///////////////////////////////////////////////////////////////////////////////
//
// IAR C/C++ Compiler V9.30.1.3056 for 8051               07/Sep/2016  21:43:57
// Copyright 2004-2015 IAR Systems AB.
//
//    Core               =  plain
//    Code model         =  banked
//    Data model         =  large
//    Calling convention =  xdata reentrant
//    Constant location  =  data_rom
//    Dptr setup         =  1,16
//                          
//    Source file        =  
//        C:\Texas Instruments\Z-Stack Home
//        1.2.2a.44539\Projects\zstack\HomeAutomation\Zigbee-HomeAutomatic\Source\zha_project.c
//    Command line       =  
//        -f "C:\Texas Instruments\Z-Stack Home
//        1.2.2a.44539\Projects\zstack\HomeAutomation\Zigbee-HomeAutomatic\CC2530DB\..\..\..\Tools\CC2530DB\f8wCoord.cfg"
//        (-DCPU32MHZ -DROOT=__near_func -DMAC_CFG_APP_PENDING_QUEUE=TRUE
//        -DMAC_CFG_TX_DATA_MAX=5 -DMAC_CFG_TX_MAX=8 -DMAC_CFG_RX_MAX=5
//        -DZDO_COORDINATOR -DRTR_NWK) -f "C:\Texas Instruments\Z-Stack Home
//        1.2.2a.44539\Projects\zstack\HomeAutomation\Zigbee-HomeAutomatic\CC2530DB\..\..\..\Tools\CC2530DB\f8wConfig.cfg"
//        (-DZIGBEEPRO -DSECURE=1 -DZG_SECURE_DYNAMIC=0 -DREFLECTOR
//        -DDEFAULT_CHANLIST=0x00000800 -DZDAPP_CONFIG_PAN_ID=0xFFFF
//        -DNWK_START_DELAY=100 -DEXTENDED_JOINING_RANDOM_MASK=0x007F
//        -DBEACON_REQUEST_DELAY=100 -DBEACON_REQ_DELAY_MASK=0x00FF
//        -DLINK_STATUS_JITTER_MASK=0x007F -DROUTE_EXPIRY_TIME=30
//        -DAPSC_ACK_WAIT_DURATION_POLLED=3000 -DNWK_INDIRECT_MSG_TIMEOUT=7
//        -DMAX_RREQ_ENTRIES=8 -DAPSC_MAX_FRAME_RETRIES=3
//        -DNWK_MAX_DATA_RETRIES=2 -DMAX_POLL_FAILURE_RETRIES=2 -DMAX_BCAST=9
//        -DAPS_MAX_GROUPS=16 -DMAX_RTG_ENTRIES=40 -DNWK_MAX_BINDING_ENTRIES=4
//        -DMAX_BINDING_CLUSTER_IDS=4 "-DDEFAULT_KEY={0x01, 0x03, 0x05, 0x07,
//        0x09, 0x0B, 0x0D, 0x0F, 0x00, 0x02, 0x04, 0x06, 0x08, 0x0A, 0x0C,
//        0x0D}" -DMAC_MAX_FRAME_SIZE=116 -DZDNWKMGR_MIN_TRANSMISSIONS=20
//        "-DCONST=const __code" -DGENERIC=__generic -DRFD_RCVC_ALWAYS_ON=FALSE
//        -DPOLL_RATE=10000 -DQUEUED_POLL_RATE=100 -DRESPONSE_POLL_RATE=100
//        -DREJOIN_POLL_RATE=440 -DREJOIN_BACKOFF=900000 -DREJOIN_SCAN=900000)
//        -f "C:\Texas Instruments\Z-Stack Home
//        1.2.2a.44539\Projects\zstack\HomeAutomation\Zigbee-HomeAutomatic\CC2530DB\..\..\..\Tools\CC2530DB\f8wZCL.cfg"
//        "C:\Texas Instruments\Z-Stack Home
//        1.2.2a.44539\Projects\zstack\HomeAutomation\Zigbee-HomeAutomatic\Source\zha_project.c"
//        -D SECURE=1 -D TC_LINKKEY_JOIN -D NV_INIT -D NV_RESTORE -D
//        HOLD_AUTO_START -D xBUILD_ALL_DEVICES -D HAL_UART=TRUE -D xZTOOL_P1
//        -D xMT_TASK -D xMT_APP_FUNC -D xMT_SYS_FUNC -D xMT_ZDO_FUNC -D
//        xLCD_SUPPORTED=DEBUG -D MULTICAST_ENABLED=FALSE -D ZCL_READ -D
//        ZCL_WRITE -D ZCL_REPORT -D ZCL_EZMODE -D ZCL_BASIC -D ZCL_IDENTIFY -D
//        ZCL_ON_OFF -D ZCL_SCENES -D ZCL_GROUPS -D ZCL_LEVEL_CTRL -D ZCL_WD -D
//        ZCL_DIAGNOSTIC -D FEATURE_SYSTEM_STATS -D
//        DEVICE_LOGICAL_TYPE=ZG_DEVICETYPE_COORDINATOR -lC "C:\Texas
//        Instruments\Z-Stack Home
//        1.2.2a.44539\Projects\zstack\HomeAutomation\Zigbee-HomeAutomatic\CC2530DB\CoordinatorEB\List"
//        -lA "C:\Texas Instruments\Z-Stack Home
//        1.2.2a.44539\Projects\zstack\HomeAutomation\Zigbee-HomeAutomatic\CC2530DB\CoordinatorEB\List"
//        --diag_suppress Pe001,Pa010 -o "C:\Texas Instruments\Z-Stack Home
//        1.2.2a.44539\Projects\zstack\HomeAutomation\Zigbee-HomeAutomatic\CC2530DB\CoordinatorEB\Obj"
//        -e --debug --core=plain --dptr=16,1 --data_model=large
//        --code_model=banked --calling_convention=xdata_reentrant
//        --place_constants=data_rom --nr_virtual_regs 16 -I "C:\Texas
//        Instruments\Z-Stack Home
//        1.2.2a.44539\Projects\zstack\HomeAutomation\Zigbee-HomeAutomatic\CC2530DB\"
//        -I "C:\Texas Instruments\Z-Stack Home
//        1.2.2a.44539\Projects\zstack\HomeAutomation\Zigbee-HomeAutomatic\CC2530DB\..\Source\"
//        -I "C:\Texas Instruments\Z-Stack Home
//        1.2.2a.44539\Projects\zstack\HomeAutomation\Zigbee-HomeAutomatic\CC2530DB\..\..\Source\"
//        -I "C:\Texas Instruments\Z-Stack Home
//        1.2.2a.44539\Projects\zstack\HomeAutomation\Zigbee-HomeAutomatic\CC2530DB\..\..\..\ZMain\TI2530DB\"
//        -I "C:\Texas Instruments\Z-Stack Home
//        1.2.2a.44539\Projects\zstack\HomeAutomation\Zigbee-HomeAutomatic\CC2530DB\..\..\..\..\..\Components\hal\include\"
//        -I "C:\Texas Instruments\Z-Stack Home
//        1.2.2a.44539\Projects\zstack\HomeAutomation\Zigbee-HomeAutomatic\CC2530DB\..\..\..\..\..\Components\hal\target\CC2530EB\"
//        -I "C:\Texas Instruments\Z-Stack Home
//        1.2.2a.44539\Projects\zstack\HomeAutomation\Zigbee-HomeAutomatic\CC2530DB\..\..\..\..\..\Components\mac\include\"
//        -I "C:\Texas Instruments\Z-Stack Home
//        1.2.2a.44539\Projects\zstack\HomeAutomation\Zigbee-HomeAutomatic\CC2530DB\..\..\..\..\..\Components\mac\high_level\"
//        -I "C:\Texas Instruments\Z-Stack Home
//        1.2.2a.44539\Projects\zstack\HomeAutomation\Zigbee-HomeAutomatic\CC2530DB\..\..\..\..\..\Components\mac\low_level\srf04\"
//        -I "C:\Texas Instruments\Z-Stack Home
//        1.2.2a.44539\Projects\zstack\HomeAutomation\Zigbee-HomeAutomatic\CC2530DB\..\..\..\..\..\Components\mac\low_level\srf04\single_chip\"
//        -I "C:\Texas Instruments\Z-Stack Home
//        1.2.2a.44539\Projects\zstack\HomeAutomation\Zigbee-HomeAutomatic\CC2530DB\..\..\..\..\..\Components\mt\"
//        -I "C:\Texas Instruments\Z-Stack Home
//        1.2.2a.44539\Projects\zstack\HomeAutomation\Zigbee-HomeAutomatic\CC2530DB\..\..\..\..\..\Components\osal\include\"
//        -I "C:\Texas Instruments\Z-Stack Home
//        1.2.2a.44539\Projects\zstack\HomeAutomation\Zigbee-HomeAutomatic\CC2530DB\..\..\..\..\..\Components\services\saddr\"
//        -I "C:\Texas Instruments\Z-Stack Home
//        1.2.2a.44539\Projects\zstack\HomeAutomation\Zigbee-HomeAutomatic\CC2530DB\..\..\..\..\..\Components\services\sdata\"
//        -I "C:\Texas Instruments\Z-Stack Home
//        1.2.2a.44539\Projects\zstack\HomeAutomation\Zigbee-HomeAutomatic\CC2530DB\..\..\..\..\..\Components\stack\af\"
//        -I "C:\Texas Instruments\Z-Stack Home
//        1.2.2a.44539\Projects\zstack\HomeAutomation\Zigbee-HomeAutomatic\CC2530DB\..\..\..\..\..\Components\stack\nwk\"
//        -I "C:\Texas Instruments\Z-Stack Home
//        1.2.2a.44539\Projects\zstack\HomeAutomation\Zigbee-HomeAutomatic\CC2530DB\..\..\..\..\..\Components\stack\sapi\"
//        -I "C:\Texas Instruments\Z-Stack Home
//        1.2.2a.44539\Projects\zstack\HomeAutomation\Zigbee-HomeAutomatic\CC2530DB\..\..\..\..\..\Components\stack\sec\"
//        -I "C:\Texas Instruments\Z-Stack Home
//        1.2.2a.44539\Projects\zstack\HomeAutomation\Zigbee-HomeAutomatic\CC2530DB\..\..\..\..\..\Components\stack\sys\"
//        -I "C:\Texas Instruments\Z-Stack Home
//        1.2.2a.44539\Projects\zstack\HomeAutomation\Zigbee-HomeAutomatic\CC2530DB\..\..\..\..\..\Components\stack\zcl\"
//        -I "C:\Texas Instruments\Z-Stack Home
//        1.2.2a.44539\Projects\zstack\HomeAutomation\Zigbee-HomeAutomatic\CC2530DB\..\..\..\..\..\Components\stack\zdo\"
//        -I "C:\Texas Instruments\Z-Stack Home
//        1.2.2a.44539\Projects\zstack\HomeAutomation\Zigbee-HomeAutomatic\CC2530DB\..\..\..\..\..\Components\zmac\"
//        -I "C:\Texas Instruments\Z-Stack Home
//        1.2.2a.44539\Projects\zstack\HomeAutomation\Zigbee-HomeAutomatic\CC2530DB\..\..\..\..\..\Components\zmac\f8w\"
//        -Ohz
//    List file          =  
//        C:\Texas Instruments\Z-Stack Home
//        1.2.2a.44539\Projects\zstack\HomeAutomation\Zigbee-HomeAutomatic\CC2530DB\CoordinatorEB\List\zha_project.s51
//
///////////////////////////////////////////////////////////////////////////////

        NAME zha_project

        RTMODEL "__SystemLibrary", "CLib"
        RTMODEL "__calling_convention", "xdata_reentrant"
        RTMODEL "__code_model", "banked"
        RTMODEL "__core", "plain"
        RTMODEL "__data_model", "large"
        RTMODEL "__dptr_size", "16"
        RTMODEL "__extended_stack", "disabled"
        RTMODEL "__location_for_constants", "data"
        RTMODEL "__number_of_dptrs", "1"
        RTMODEL "__rt_version", "1"

        RSEG DOVERLAY:DATA:NOROOT(0)
        RSEG IOVERLAY:IDATA:NOROOT(0)
        RSEG ISTACK:IDATA:NOROOT(0)
        RSEG PSTACK:XDATA:NOROOT(0)
        RSEG XSTACK:XDATA:NOROOT(0)

        EXTERN ?V0
        EXTERN ?V1
        EXTERN ?V2
        EXTERN ?V3
        EXTERN ?V4
        EXTERN ?V5
        EXTERN ?V6
        EXTERN ?V8
        EXTERN ?V9
        EXTERN ?V10
        EXTERN ?V11
        EXTERN ?ALLOC_XSTACK8
        EXTERN ?BANKED_ENTER_XDATA
        EXTERN ?BANKED_LEAVE_XDATA
        EXTERN ?BDISPATCH
        EXTERN ?BRET
        EXTERN ?DEALLOC_XSTACK8
        EXTERN ?MOVE_LONG8_XDATA_XDATA
        EXTERN ?PUSH_XSTACK8_X_FOUR
        EXTERN ?PUSH_XSTACK_I_ONE
        EXTERN ?PUSH_XSTACK_I_THREE
        EXTERN ?PUSH_XSTACK_I_TWO
        EXTERN ?US_SWITCH_DENSE
        EXTERN ?US_SWITCH_SPARSE
        EXTERN ?XSP
        EXTERN ?XSTACK_DISP0_8
        EXTERN ?XSTACK_DISP100_8
        EXTERN ?XSTACK_DISP101_8
        EXTERN ?XSTACK_DISP102_8
        EXTERN __INIT_XDATA_I
        EXTERN __INIT_XDATA_Z

        FUNCTION `??zha_project_BasicResetCB::?relay`,0203H
        FUNCTION `??zha_project_HandleKeys::?relay`,0203H
        FUNCTION `??zha_project_IdentifyCB::?relay`,0203H
        FUNCTION `??zha_project_IdentifyQueryRspCB::?relay`,0203H
        PUBLIC `??zha_project_Init::?relay`
        FUNCTION `??zha_project_Init::?relay`,0203H
        FUNCTION `??zha_project_LevelControlMoveToLevelCB::?relay`,0203H
        FUNCTION `??zha_project_OnOffCB::?relay`,0203H
        FUNCTION `??zha_project_ProcessInReadRspCmd::?relay`,0203H
        FUNCTION `??zha_project_ProcessInReportCmd::?relay`,0203H
        FUNCTION `??zha_project_ProcessZDOMsgs::?relay`,0203H
        PUBLIC `??zha_project_event_loop::?relay`
        FUNCTION `??zha_project_event_loop::?relay`,0203H
        PUBWEAK __Constant_c8
        PUBLIC dstAddr
        PUBLIC ep
        PUBLIC gPermitDuration
        PUBLIC giLightScreenMode
        PUBLIC netState
        PUBLIC zha_projectSeqNum
        PUBLIC zha_project_ActiveEP
        FUNCTION zha_project_BasicResetCB,021603H
        ARGFRAME XSTACK, 19, STACK
        ARGFRAME IOVERLAY, 0, STATIC
        ARGFRAME DOVERLAY, 0, STATIC
        LOCFRAME ISTACK, 2, STACK
        LOCFRAME XSTACK, 5, STACK
        PUBLIC zha_project_CurrentLevel32
        PUBLIC zha_project_DstAddr
        FUNCTION zha_project_HandleKeys,0a1203H
        ARGFRAME XSTACK, 65, STACK
        ARGFRAME IOVERLAY, 0, STATIC
        ARGFRAME DOVERLAY, 0, STATIC
        LOCFRAME XSTACK, 20, STACK
        FUNCTION zha_project_IdentifyCB,0603H
        ARGFRAME XSTACK, 0, STACK
        LOCFRAME ISTACK, 2, STACK
        FUNCTION zha_project_IdentifyQueryRspCB,021603H
        ARGFRAME XSTACK, 0, STACK
        LOCFRAME ISTACK, 2, STACK
        LOCFRAME XSTACK, 2, STACK
        PUBLIC zha_project_Init
        FUNCTION zha_project_Init,021203H
        ARGFRAME XSTACK, 0, STACK
        LOCFRAME XSTACK, 9, STACK
        FUNCTION zha_project_LevelControlMoveToLevelCB,0603H
        ARGFRAME XSTACK, 0, STACK
        LOCFRAME ISTACK, 2, STACK
        PUBLIC zha_project_LevelLastLevel
        PUBLIC zha_project_NewLevel
        PUBLIC zha_project_NewLevelUp
        PUBLIC zha_project_NwkState
        FUNCTION zha_project_OnOffCB,0a1603H
        ARGFRAME XSTACK, 0, STACK
        LOCFRAME XSTACK, 10, STACK
        FUNCTION zha_project_ProcessInReadRspCmd,0a1203H
        ARGFRAME XSTACK, 65, STACK
        ARGFRAME IOVERLAY, 0, STATIC
        ARGFRAME DOVERLAY, 0, STATIC
        LOCFRAME XSTACK, 71, STACK
        FUNCTION zha_project_ProcessInReportCmd,0a1203H
        ARGFRAME XSTACK, 65, STACK
        ARGFRAME IOVERLAY, 0, STATIC
        ARGFRAME DOVERLAY, 0, STATIC
        LOCFRAME XSTACK, 71, STACK
        FUNCTION zha_project_ProcessZDOMsgs,0a1203H
        ARGFRAME XSTACK, 65, STACK
        ARGFRAME IOVERLAY, 0, STATIC
        ARGFRAME DOVERLAY, 0, STATIC
        LOCFRAME ISTACK, 2, STACK
        LOCFRAME XSTACK, 29, STACK
        PUBLIC zha_project_Rate32
        PUBLIC zha_project_TaskID
        PUBLIC zha_project_WithOnOff
        PUBLIC zha_project_epDesc
        PUBLIC zha_project_event_loop
        FUNCTION zha_project_event_loop,0a1203H
        ARGFRAME XSTACK, 0, STACK
        LOCFRAME XSTACK, 70, STACK
        
          CFI Names cfiNames0
          CFI StackFrame CFA_SP SP IDATA
          CFI StackFrame CFA_PSP16 PSP16 XDATA
          CFI StackFrame CFA_XSP16 XSP16 XDATA
          CFI StaticOverlayFrame CFA_IOVERLAY IOVERLAY
          CFI StaticOverlayFrame CFA_DOVERLAY DOVERLAY
          CFI Resource `PSW.CY`:1, `B.BR0`:1, `B.BR1`:1, `B.BR2`:1, `B.BR3`:1
          CFI Resource `B.BR4`:1, `B.BR5`:1, `B.BR6`:1, `B.BR7`:1, `VB.BR8`:1
          CFI Resource `VB.BR9`:1, `VB.BR10`:1, `VB.BR11`:1, `VB.BR12`:1
          CFI Resource `VB.BR13`:1, `VB.BR14`:1, `VB.BR15`:1, VB:8, B:8, A:8
          CFI Resource PSW:8, DPL0:8, DPH0:8, R0:8, R1:8, R2:8, R3:8, R4:8, R5:8
          CFI Resource R6:8, R7:8, V0:8, V1:8, V2:8, V3:8, V4:8, V5:8, V6:8, V7:8
          CFI Resource V8:8, V9:8, V10:8, V11:8, V12:8, V13:8, V14:8, V15:8, SP:8
          CFI Resource PSPH:8, PSPL:8, PSP16:16, XSPH:8, XSPL:8, XSP16:16
          CFI VirtualResource ?RET:24
          CFI Resource ?BRET_EXT:8
          CFI VirtualResource ?RET_HIGH:8, ?RET_LOW:8
          CFI ResourceParts PSP16 PSPH, PSPL
          CFI ResourceParts XSP16 XSPH, XSPL
          CFI ResourceParts ?RET ?BRET_EXT, ?RET_HIGH, ?RET_LOW
          CFI EndNames cfiNames0
        
          CFI Common cfiCommon0 Using cfiNames0
          CFI CodeAlign 1
          CFI DataAlign -1
          CFI ReturnAddress ?RET CODE
          CFI CFA_DOVERLAY Used
          CFI CFA_IOVERLAY Used
          CFI CFA_SP SP+-3
          CFI CFA_PSP16 PSP16+0
          CFI CFA_XSP16 XSP16+0
          CFI `PSW.CY` SameValue
          CFI `B.BR0` SameValue
          CFI `B.BR1` SameValue
          CFI `B.BR2` SameValue
          CFI `B.BR3` SameValue
          CFI `B.BR4` SameValue
          CFI `B.BR5` SameValue
          CFI `B.BR6` SameValue
          CFI `B.BR7` SameValue
          CFI `VB.BR8` SameValue
          CFI `VB.BR9` SameValue
          CFI `VB.BR10` SameValue
          CFI `VB.BR11` SameValue
          CFI `VB.BR12` SameValue
          CFI `VB.BR13` SameValue
          CFI `VB.BR14` SameValue
          CFI `VB.BR15` SameValue
          CFI VB SameValue
          CFI B Undefined
          CFI A Undefined
          CFI PSW SameValue
          CFI DPL0 SameValue
          CFI DPH0 SameValue
          CFI R0 Undefined
          CFI R1 Undefined
          CFI R2 Undefined
          CFI R3 Undefined
          CFI R4 Undefined
          CFI R5 Undefined
          CFI R6 SameValue
          CFI R7 SameValue
          CFI V0 SameValue
          CFI V1 SameValue
          CFI V2 SameValue
          CFI V3 SameValue
          CFI V4 SameValue
          CFI V5 SameValue
          CFI V6 SameValue
          CFI V7 SameValue
          CFI V8 SameValue
          CFI V9 SameValue
          CFI V10 SameValue
          CFI V11 SameValue
          CFI V12 SameValue
          CFI V13 SameValue
          CFI V14 SameValue
          CFI V15 SameValue
          CFI PSPH Undefined
          CFI PSPL Undefined
          CFI XSPH Undefined
          CFI XSPL Undefined
          CFI ?RET Concat
          CFI ?BRET_EXT Frame(CFA_SP, 3)
          CFI ?RET_HIGH Frame(CFA_SP, 2)
          CFI ?RET_LOW Frame(CFA_SP, 1)
          CFI EndCommon cfiCommon0
        
        
          CFI Common cfiCommon1 Using cfiNames0
          CFI CodeAlign 1
          CFI DataAlign -1
          CFI ReturnAddress ?RET CODE
          CFI CFA_DOVERLAY Used
          CFI CFA_IOVERLAY Used
          CFI CFA_SP SP+-2
          CFI CFA_PSP16 PSP16+0
          CFI CFA_XSP16 XSP16+0
          CFI `PSW.CY` SameValue
          CFI `B.BR0` SameValue
          CFI `B.BR1` SameValue
          CFI `B.BR2` SameValue
          CFI `B.BR3` SameValue
          CFI `B.BR4` SameValue
          CFI `B.BR5` SameValue
          CFI `B.BR6` SameValue
          CFI `B.BR7` SameValue
          CFI `VB.BR8` SameValue
          CFI `VB.BR9` SameValue
          CFI `VB.BR10` SameValue
          CFI `VB.BR11` SameValue
          CFI `VB.BR12` SameValue
          CFI `VB.BR13` SameValue
          CFI `VB.BR14` SameValue
          CFI `VB.BR15` SameValue
          CFI VB SameValue
          CFI B SameValue
          CFI A SameValue
          CFI PSW SameValue
          CFI DPL0 SameValue
          CFI DPH0 SameValue
          CFI R0 SameValue
          CFI R1 SameValue
          CFI R2 SameValue
          CFI R3 SameValue
          CFI R4 SameValue
          CFI R5 SameValue
          CFI R6 SameValue
          CFI R7 SameValue
          CFI V0 SameValue
          CFI V1 SameValue
          CFI V2 SameValue
          CFI V3 SameValue
          CFI V4 SameValue
          CFI V5 SameValue
          CFI V6 SameValue
          CFI V7 SameValue
          CFI V8 SameValue
          CFI V9 SameValue
          CFI V10 SameValue
          CFI V11 SameValue
          CFI V12 SameValue
          CFI V13 SameValue
          CFI V14 SameValue
          CFI V15 SameValue
          CFI PSPH Undefined
          CFI PSPL Undefined
          CFI XSPH Undefined
          CFI XSPL Undefined
          CFI ?RET Concat
          CFI ?BRET_EXT SameValue
          CFI ?RET_HIGH Frame(CFA_SP, 2)
          CFI ?RET_LOW Frame(CFA_SP, 1)
          CFI EndCommon cfiCommon1
        
APSME_LookupExtAddr SYMBOL "APSME_LookupExtAddr"
`??APSME_LookupExtAddr::?relay` SYMBOL "?relay", APSME_LookupExtAddr
AT_Init             SYMBOL "AT_Init"
`??AT_Init::?relay` SYMBOL "?relay", AT_Init
CheckDeviceStatus   SYMBOL "CheckDeviceStatus"
`??CheckDeviceStatus::?relay` SYMBOL "?relay", CheckDeviceStatus
Device_type_Init    SYMBOL "Device_type_Init"
`??Device_type_Init::?relay` SYMBOL "?relay", Device_type_Init
HalLedSet           SYMBOL "HalLedSet"
`??HalLedSet::?relay` SYMBOL "?relay", HalLedSet
NLME_GetShortAddr   SYMBOL "NLME_GetShortAddr"
`??NLME_GetShortAddr::?relay` SYMBOL "?relay", NLME_GetShortAddr
NLME_LeaveReq       SYMBOL "NLME_LeaveReq"
`??NLME_LeaveReq::?relay` SYMBOL "?relay", NLME_LeaveReq
NLME_PermitJoiningRequest SYMBOL "NLME_PermitJoiningRequest"
`??NLME_PermitJoiningRequest::?relay` SYMBOL "?relay", NLME_PermitJoiningRequest
NLME_SendNetworkStatus SYMBOL "NLME_SendNetworkStatus"
`??NLME_SendNetworkStatus::?relay` SYMBOL "?relay", NLME_SendNetworkStatus
RegisterForKeys     SYMBOL "RegisterForKeys"
`??RegisterForKeys::?relay` SYMBOL "?relay", RegisterForKeys
SendCommond         SYMBOL "SendCommond"
`??SendCommond::?relay` SYMBOL "?relay", SendCommond
SerialApp_Init      SYMBOL "SerialApp_Init"
`??SerialApp_Init::?relay` SYMBOL "?relay", SerialApp_Init
SetTempDeviceBAT    SYMBOL "SetTempDeviceBAT"
`??SetTempDeviceBAT::?relay` SYMBOL "?relay", SetTempDeviceBAT
SetTempDeviceEP     SYMBOL "SetTempDeviceEP"
`??SetTempDeviceEP::?relay` SYMBOL "?relay", SetTempDeviceEP
SetTempDeviceHW     SYMBOL "SetTempDeviceHW"
`??SetTempDeviceHW::?relay` SYMBOL "?relay", SetTempDeviceHW
SetTempDeviceManuName SYMBOL "SetTempDeviceManuName"
`??SetTempDeviceManuName::?relay` SYMBOL "?relay", SetTempDeviceManuName
SetTempDeviceSA     SYMBOL "SetTempDeviceSA"
`??SetTempDeviceSA::?relay` SYMBOL "?relay", SetTempDeviceSA
SetTempDeviceType   SYMBOL "SetTempDeviceType"
`??SetTempDeviceType::?relay` SYMBOL "?relay", SetTempDeviceType
UpdateDeviceStatus1 SYMBOL "UpdateDeviceStatus1"
`??UpdateDeviceStatus1::?relay` SYMBOL "?relay", UpdateDeviceStatus1
UpdateDeviceStatus2 SYMBOL "UpdateDeviceStatus2"
`??UpdateDeviceStatus2::?relay` SYMBOL "?relay", UpdateDeviceStatus2
UpdateDeviceStatus3 SYMBOL "UpdateDeviceStatus3"
`??UpdateDeviceStatus3::?relay` SYMBOL "?relay", UpdateDeviceStatus3
ZDApp_LeaveReset    SYMBOL "ZDApp_LeaveReset"
`??ZDApp_LeaveReset::?relay` SYMBOL "?relay", ZDApp_LeaveReset
ZDO_ParseDeviceAnnce SYMBOL "ZDO_ParseDeviceAnnce"
`??ZDO_ParseDeviceAnnce::?relay` SYMBOL "?relay", ZDO_ParseDeviceAnnce
ZDO_ParseEPListRsp  SYMBOL "ZDO_ParseEPListRsp"
`??ZDO_ParseEPListRsp::?relay` SYMBOL "?relay", ZDO_ParseEPListRsp
ZDO_ParseMgmtBindRsp SYMBOL "ZDO_ParseMgmtBindRsp"
`??ZDO_ParseMgmtBindRsp::?relay` SYMBOL "?relay", ZDO_ParseMgmtBindRsp
ZDO_ParseSimpleDescRsp SYMBOL "ZDO_ParseSimpleDescRsp"
`??ZDO_ParseSimpleDescRsp::?relay` SYMBOL "?relay", ZDO_ParseSimpleDescRsp
ZDO_RegisterForZDOMsg SYMBOL "ZDO_RegisterForZDOMsg"
`??ZDO_RegisterForZDOMsg::?relay` SYMBOL "?relay", ZDO_RegisterForZDOMsg
ZDP_BindUnbindReq   SYMBOL "ZDP_BindUnbindReq"
`??ZDP_BindUnbindReq::?relay` SYMBOL "?relay", ZDP_BindUnbindReq
ZDP_MgmtPermitJoinReq SYMBOL "ZDP_MgmtPermitJoinReq"
`??ZDP_MgmtPermitJoinReq::?relay` SYMBOL "?relay", ZDP_MgmtPermitJoinReq
ZDP_NWKAddrOfInterestReq SYMBOL "ZDP_NWKAddrOfInterestReq"
`??ZDP_NWKAddrOfInterestReq::?relay` SYMBOL "?relay", ZDP_NWKAddrOfInterestReq
ZDP_SimpleDescReq   SYMBOL "ZDP_SimpleDescReq"
`??ZDP_SimpleDescReq::?relay` SYMBOL "?relay", ZDP_SimpleDescReq
afRegister          SYMBOL "afRegister"
`??afRegister::?relay` SYMBOL "?relay", afRegister
osal_mem_alloc      SYMBOL "osal_mem_alloc"
`??osal_mem_alloc::?relay` SYMBOL "?relay", osal_mem_alloc
osal_mem_free       SYMBOL "osal_mem_free"
`??osal_mem_free::?relay` SYMBOL "?relay", osal_mem_free
osal_memcpy         SYMBOL "osal_memcpy"
`??osal_memcpy::?relay` SYMBOL "?relay", osal_memcpy
osal_memset         SYMBOL "osal_memset"
`??osal_memset::?relay` SYMBOL "?relay", osal_memset
osal_msg_deallocate SYMBOL "osal_msg_deallocate"
`??osal_msg_deallocate::?relay` SYMBOL "?relay", osal_msg_deallocate
osal_msg_receive    SYMBOL "osal_msg_receive"
`??osal_msg_receive::?relay` SYMBOL "?relay", osal_msg_receive
osal_nv_read        SYMBOL "osal_nv_read"
`??osal_nv_read::?relay` SYMBOL "?relay", osal_nv_read
osal_set_event      SYMBOL "osal_set_event"
`??osal_set_event::?relay` SYMBOL "?relay", osal_set_event
osal_start_timerEx  SYMBOL "osal_start_timerEx"
`??osal_start_timerEx::?relay` SYMBOL "?relay", osal_start_timerEx
zclDiagnostic_InitStats SYMBOL "zclDiagnostic_InitStats"
`??zclDiagnostic_InitStats::?relay` SYMBOL "?relay", zclDiagnostic_InitStats
`?<Name zclDiagnostic_ReadWr 84>` SYMBOL "zclDiagnostic_ReadWriteAttrCB"
`??zclDiagnostic_ReadWriteAttrCB::?relay` SYMBOL "?relay", `?<Name zclDiagnostic_ReadWr 84>`
zclGeneral_RegisterCmdCallbacks SYMBOL "zclGeneral_RegisterCmdCallbacks"
`??zclGeneral_RegisterCmdCallbacks::?relay` SYMBOL "?relay", zclGeneral_RegisterCmdCallbacks
zclHA_Init          SYMBOL "zclHA_Init"
`??zclHA_Init::?relay` SYMBOL "?relay", zclHA_Init
zcl_EZModeAction    SYMBOL "zcl_EZModeAction"
`??zcl_EZModeAction::?relay` SYMBOL "?relay", zcl_EZModeAction
zcl_InvokeEZMode    SYMBOL "zcl_InvokeEZMode"
`??zcl_InvokeEZMode::?relay` SYMBOL "?relay", zcl_InvokeEZMode
zcl_ProcessMessageMSG SYMBOL "zcl_ProcessMessageMSG"
`??zcl_ProcessMessageMSG::?relay` SYMBOL "?relay", zcl_ProcessMessageMSG
zcl_SendRead        SYMBOL "zcl_SendRead"
`??zcl_SendRead::?relay` SYMBOL "?relay", zcl_SendRead
zcl_getRawAFMsg     SYMBOL "zcl_getRawAFMsg"
`??zcl_getRawAFMsg::?relay` SYMBOL "?relay", zcl_getRawAFMsg
zcl_registerAttrList SYMBOL "zcl_registerAttrList"
`??zcl_registerAttrList::?relay` SYMBOL "?relay", zcl_registerAttrList
zcl_registerForMsg  SYMBOL "zcl_registerForMsg"
`??zcl_registerForMsg::?relay` SYMBOL "?relay", zcl_registerForMsg
zcl_registerReadWriteCB SYMBOL "zcl_registerReadWriteCB"
`??zcl_registerReadWriteCB::?relay` SYMBOL "?relay", zcl_registerReadWriteCB
zgWriteStartupOptions SYMBOL "zgWriteStartupOptions"
`??zgWriteStartupOptions::?relay` SYMBOL "?relay", zgWriteStartupOptions
zha_project_Init    SYMBOL "zha_project_Init"
`??zha_project_Init::?relay` SYMBOL "?relay", zha_project_Init
zha_project_event_loop SYMBOL "zha_project_event_loop"
`??zha_project_event_loop::?relay` SYMBOL "?relay", zha_project_event_loop

        EXTERN `??APSME_LookupExtAddr::?relay`
        FUNCTION `??APSME_LookupExtAddr::?relay`,00H
        EXTERN `??AT_Init::?relay`
        FUNCTION `??AT_Init::?relay`,00H
        EXTERN `??CheckDeviceStatus::?relay`
        FUNCTION `??CheckDeviceStatus::?relay`,00H
        EXTERN `??Device_type_Init::?relay`
        FUNCTION `??Device_type_Init::?relay`,00H
        EXTERN `??HalLedSet::?relay`
        FUNCTION `??HalLedSet::?relay`,00H
        EXTERN `??NLME_GetShortAddr::?relay`
        FUNCTION `??NLME_GetShortAddr::?relay`,00H
        EXTERN `??NLME_LeaveReq::?relay`
        FUNCTION `??NLME_LeaveReq::?relay`,00H
        EXTERN `??NLME_PermitJoiningRequest::?relay`
        FUNCTION `??NLME_PermitJoiningRequest::?relay`,00H
        EXTERN `??NLME_SendNetworkStatus::?relay`
        FUNCTION `??NLME_SendNetworkStatus::?relay`,00H
        EXTERN `??RegisterForKeys::?relay`
        FUNCTION `??RegisterForKeys::?relay`,00H
        EXTERN `??SendCommond::?relay`
        FUNCTION `??SendCommond::?relay`,00H
        EXTERN `??SerialApp_Init::?relay`
        FUNCTION `??SerialApp_Init::?relay`,00H
        EXTERN `??SetTempDeviceBAT::?relay`
        FUNCTION `??SetTempDeviceBAT::?relay`,00H
        EXTERN `??SetTempDeviceEP::?relay`
        FUNCTION `??SetTempDeviceEP::?relay`,00H
        EXTERN `??SetTempDeviceHW::?relay`
        FUNCTION `??SetTempDeviceHW::?relay`,00H
        EXTERN `??SetTempDeviceManuName::?relay`
        FUNCTION `??SetTempDeviceManuName::?relay`,00H
        EXTERN `??SetTempDeviceSA::?relay`
        FUNCTION `??SetTempDeviceSA::?relay`,00H
        EXTERN `??SetTempDeviceType::?relay`
        FUNCTION `??SetTempDeviceType::?relay`,00H
        EXTERN `??UpdateDeviceStatus1::?relay`
        FUNCTION `??UpdateDeviceStatus1::?relay`,00H
        EXTERN `??UpdateDeviceStatus2::?relay`
        FUNCTION `??UpdateDeviceStatus2::?relay`,00H
        EXTERN `??UpdateDeviceStatus3::?relay`
        FUNCTION `??UpdateDeviceStatus3::?relay`,00H
        EXTERN `??ZDApp_LeaveReset::?relay`
        FUNCTION `??ZDApp_LeaveReset::?relay`,00H
        EXTERN `??ZDO_ParseDeviceAnnce::?relay`
        FUNCTION `??ZDO_ParseDeviceAnnce::?relay`,00H
        EXTERN `??ZDO_ParseEPListRsp::?relay`
        FUNCTION `??ZDO_ParseEPListRsp::?relay`,00H
        EXTERN `??ZDO_ParseMgmtBindRsp::?relay`
        FUNCTION `??ZDO_ParseMgmtBindRsp::?relay`,00H
        EXTERN `??ZDO_ParseSimpleDescRsp::?relay`
        FUNCTION `??ZDO_ParseSimpleDescRsp::?relay`,00H
        EXTERN `??ZDO_RegisterForZDOMsg::?relay`
        FUNCTION `??ZDO_RegisterForZDOMsg::?relay`,00H
        EXTERN `??ZDP_BindUnbindReq::?relay`
        FUNCTION `??ZDP_BindUnbindReq::?relay`,00H
        EXTERN `??ZDP_MgmtPermitJoinReq::?relay`
        FUNCTION `??ZDP_MgmtPermitJoinReq::?relay`,00H
        EXTERN `??ZDP_NWKAddrOfInterestReq::?relay`
        FUNCTION `??ZDP_NWKAddrOfInterestReq::?relay`,00H
        EXTERN `??ZDP_SimpleDescReq::?relay`
        FUNCTION `??ZDP_SimpleDescReq::?relay`,00H
        EXTERN `??afRegister::?relay`
        FUNCTION `??afRegister::?relay`,00H
        EXTERN `??osal_mem_alloc::?relay`
        FUNCTION `??osal_mem_alloc::?relay`,00H
        EXTERN `??osal_mem_free::?relay`
        FUNCTION `??osal_mem_free::?relay`,00H
        EXTERN `??osal_memcpy::?relay`
        FUNCTION `??osal_memcpy::?relay`,00H
        EXTERN `??osal_memset::?relay`
        FUNCTION `??osal_memset::?relay`,00H
        EXTERN `??osal_msg_deallocate::?relay`
        FUNCTION `??osal_msg_deallocate::?relay`,00H
        EXTERN `??osal_msg_receive::?relay`
        FUNCTION `??osal_msg_receive::?relay`,00H
        EXTERN `??osal_nv_read::?relay`
        FUNCTION `??osal_nv_read::?relay`,00H
        EXTERN `??osal_set_event::?relay`
        FUNCTION `??osal_set_event::?relay`,00H
        EXTERN `??osal_start_timerEx::?relay`
        FUNCTION `??osal_start_timerEx::?relay`,00H
        EXTERN `??zclDiagnostic_InitStats::?relay`
        FUNCTION `??zclDiagnostic_InitStats::?relay`,00H
        EXTERN `??zclDiagnostic_ReadWriteAttrCB::?relay`
        FUNCTION `??zclDiagnostic_ReadWriteAttrCB::?relay`,00H
        EXTERN `??zclGeneral_RegisterCmdCallbacks::?relay`
        FUNCTION `??zclGeneral_RegisterCmdCallbacks::?relay`,00H
        EXTERN `??zclHA_Init::?relay`
        FUNCTION `??zclHA_Init::?relay`,00H
        EXTERN `??zcl_EZModeAction::?relay`
        FUNCTION `??zcl_EZModeAction::?relay`,00H
        EXTERN `??zcl_InvokeEZMode::?relay`
        FUNCTION `??zcl_InvokeEZMode::?relay`,00H
        EXTERN `??zcl_ProcessMessageMSG::?relay`
        FUNCTION `??zcl_ProcessMessageMSG::?relay`,00H
        EXTERN `??zcl_SendRead::?relay`
        FUNCTION `??zcl_SendRead::?relay`,00H
        EXTERN `??zcl_getRawAFMsg::?relay`
        FUNCTION `??zcl_getRawAFMsg::?relay`,00H
        EXTERN `??zcl_registerAttrList::?relay`
        FUNCTION `??zcl_registerAttrList::?relay`,00H
        EXTERN `??zcl_registerForMsg::?relay`
        FUNCTION `??zcl_registerForMsg::?relay`,00H
        EXTERN `??zcl_registerReadWriteCB::?relay`
        FUNCTION `??zcl_registerReadWriteCB::?relay`,00H
        EXTERN `??zgWriteStartupOptions::?relay`
        FUNCTION `??zgWriteStartupOptions::?relay`,00H
        EXTERN APSME_LookupExtAddr
        FUNCTION APSME_LookupExtAddr,0202H
        ARGFRAME ISTACK, 0, STACK
        ARGFRAME PSTACK, 0, STACK
        ARGFRAME XSTACK, 63, STACK
        ARGFRAME IOVERLAY, 0, STATIC
        ARGFRAME DOVERLAY, 0, STATIC
        EXTERN AT_Init
        FUNCTION AT_Init,0200H
        ARGFRAME ISTACK, 0, STACK
        ARGFRAME PSTACK, 0, STACK
        ARGFRAME XSTACK, 9, STACK
        ARGFRAME IOVERLAY, 0, STATIC
        ARGFRAME DOVERLAY, 0, STATIC
        EXTERN AssociatedDevList
        EXTERN CheckDeviceStatus
        FUNCTION CheckDeviceStatus,0200H
        ARGFRAME ISTACK, 0, STACK
        ARGFRAME PSTACK, 0, STACK
        ARGFRAME XSTACK, 65, STACK
        ARGFRAME IOVERLAY, 0, STATIC
        ARGFRAME DOVERLAY, 0, STATIC
        EXTERN Device_type_Init
        FUNCTION Device_type_Init,0200H
        ARGFRAME ISTACK, 0, STACK
        ARGFRAME PSTACK, 0, STACK
        ARGFRAME XSTACK, 9, STACK
        ARGFRAME IOVERLAY, 0, STATIC
        ARGFRAME DOVERLAY, 0, STATIC
        EXTERN HalLedSet
        FUNCTION HalLedSet,0202H
        ARGFRAME ISTACK, 0, STACK
        ARGFRAME PSTACK, 0, STACK
        ARGFRAME XSTACK, 25, STACK
        ARGFRAME IOVERLAY, 0, STATIC
        ARGFRAME DOVERLAY, 0, STATIC
        EXTERN NLME_GetShortAddr
        FUNCTION NLME_GetShortAddr,0202H
        ARGFRAME ISTACK, 0, STACK
        ARGFRAME PSTACK, 0, STACK
        ARGFRAME XSTACK, 19, STACK
        ARGFRAME IOVERLAY, 0, STATIC
        ARGFRAME DOVERLAY, 0, STATIC
        EXTERN NLME_LeaveReq
        FUNCTION NLME_LeaveReq,0202H
        ARGFRAME ISTACK, 2, STACK
        ARGFRAME PSTACK, 0, STACK
        ARGFRAME XSTACK, 5, STACK
        ARGFRAME IOVERLAY, 0, STATIC
        ARGFRAME DOVERLAY, 0, STATIC
        EXTERN NLME_PermitJoiningRequest
        FUNCTION NLME_PermitJoiningRequest,0202H
        ARGFRAME ISTACK, 0, STACK
        ARGFRAME PSTACK, 0, STACK
        ARGFRAME XSTACK, 65, STACK
        ARGFRAME IOVERLAY, 0, STATIC
        ARGFRAME DOVERLAY, 0, STATIC
        EXTERN NLME_SendNetworkStatus
        FUNCTION NLME_SendNetworkStatus,0202H
        ARGFRAME ISTACK, 0, STACK
        ARGFRAME PSTACK, 0, STACK
        ARGFRAME XSTACK, 20, STACK
        ARGFRAME IOVERLAY, 0, STATIC
        ARGFRAME DOVERLAY, 0, STATIC
        EXTERN Onboard_soft_reset
        FUNCTION Onboard_soft_reset,0202H
        ARGFRAME ISTACK, 0, STACK
        ARGFRAME PSTACK, 0, STACK
        ARGFRAME XSTACK, 65, STACK
        ARGFRAME IOVERLAY, 0, STATIC
        ARGFRAME DOVERLAY, 0, STATIC
        EXTERN RegisterForKeys
        FUNCTION RegisterForKeys,0202H
        ARGFRAME ISTACK, 0, STACK
        ARGFRAME PSTACK, 0, STACK
        ARGFRAME XSTACK, 9, STACK
        ARGFRAME IOVERLAY, 0, STATIC
        ARGFRAME DOVERLAY, 0, STATIC
        EXTERN SendCommond
        FUNCTION SendCommond,0200H
        ARGFRAME ISTACK, 0, STACK
        ARGFRAME PSTACK, 0, STACK
        ARGFRAME XSTACK, 65, STACK
        ARGFRAME IOVERLAY, 0, STATIC
        ARGFRAME DOVERLAY, 0, STATIC
        EXTERN SerialApp_Init
        FUNCTION SerialApp_Init,0202H
        ARGFRAME ISTACK, 0, STACK
        ARGFRAME PSTACK, 0, STACK
        ARGFRAME XSTACK, 9, STACK
        ARGFRAME IOVERLAY, 0, STATIC
        ARGFRAME DOVERLAY, 0, STATIC
        EXTERN SetTempDeviceBAT
        FUNCTION SetTempDeviceBAT,0200H
        ARGFRAME ISTACK, 0, STACK
        ARGFRAME PSTACK, 0, STACK
        ARGFRAME XSTACK, 63, STACK
        ARGFRAME IOVERLAY, 0, STATIC
        ARGFRAME DOVERLAY, 0, STATIC
        EXTERN SetTempDeviceEP
        FUNCTION SetTempDeviceEP,0200H
        ARGFRAME ISTACK, 0, STACK
        ARGFRAME PSTACK, 0, STACK
        ARGFRAME XSTACK, 25, STACK
        ARGFRAME IOVERLAY, 0, STATIC
        ARGFRAME DOVERLAY, 0, STATIC
        EXTERN SetTempDeviceHW
        FUNCTION SetTempDeviceHW,0200H
        ARGFRAME ISTACK, 0, STACK
        ARGFRAME PSTACK, 0, STACK
        ARGFRAME XSTACK, 63, STACK
        ARGFRAME IOVERLAY, 0, STATIC
        ARGFRAME DOVERLAY, 0, STATIC
        EXTERN SetTempDeviceManuName
        FUNCTION SetTempDeviceManuName,0200H
        ARGFRAME ISTACK, 0, STACK
        ARGFRAME PSTACK, 0, STACK
        ARGFRAME XSTACK, 63, STACK
        ARGFRAME IOVERLAY, 0, STATIC
        ARGFRAME DOVERLAY, 0, STATIC
        EXTERN SetTempDeviceSA
        FUNCTION SetTempDeviceSA,0200H
        ARGFRAME ISTACK, 0, STACK
        ARGFRAME PSTACK, 0, STACK
        ARGFRAME XSTACK, 25, STACK
        ARGFRAME IOVERLAY, 0, STATIC
        ARGFRAME DOVERLAY, 0, STATIC
        EXTERN SetTempDeviceType
        FUNCTION SetTempDeviceType,0200H
        ARGFRAME ISTACK, 0, STACK
        ARGFRAME PSTACK, 0, STACK
        ARGFRAME XSTACK, 63, STACK
        ARGFRAME IOVERLAY, 0, STATIC
        ARGFRAME DOVERLAY, 0, STATIC
        EXTERN UpdateDeviceStatus1
        FUNCTION UpdateDeviceStatus1,0200H
        ARGFRAME ISTACK, 0, STACK
        ARGFRAME PSTACK, 0, STACK
        ARGFRAME XSTACK, 63, STACK
        ARGFRAME IOVERLAY, 0, STATIC
        ARGFRAME DOVERLAY, 0, STATIC
        EXTERN UpdateDeviceStatus2
        FUNCTION UpdateDeviceStatus2,0200H
        ARGFRAME ISTACK, 0, STACK
        ARGFRAME PSTACK, 0, STACK
        ARGFRAME XSTACK, 63, STACK
        ARGFRAME IOVERLAY, 0, STATIC
        ARGFRAME DOVERLAY, 0, STATIC
        EXTERN UpdateDeviceStatus3
        FUNCTION UpdateDeviceStatus3,0200H
        ARGFRAME ISTACK, 0, STACK
        ARGFRAME PSTACK, 0, STACK
        ARGFRAME XSTACK, 63, STACK
        ARGFRAME IOVERLAY, 0, STATIC
        ARGFRAME DOVERLAY, 0, STATIC
        EXTERN ZDApp_LeaveReset
        FUNCTION ZDApp_LeaveReset,0202H
        ARGFRAME ISTACK, 2, STACK
        ARGFRAME PSTACK, 0, STACK
        ARGFRAME XSTACK, 5, STACK
        ARGFRAME IOVERLAY, 0, STATIC
        ARGFRAME DOVERLAY, 0, STATIC
        EXTERN ZDO_ParseDeviceAnnce
        FUNCTION ZDO_ParseDeviceAnnce,0202H
        ARGFRAME ISTACK, 0, STACK
        ARGFRAME PSTACK, 0, STACK
        ARGFRAME XSTACK, 25, STACK
        ARGFRAME IOVERLAY, 0, STATIC
        ARGFRAME DOVERLAY, 0, STATIC
        EXTERN ZDO_ParseEPListRsp
        FUNCTION ZDO_ParseEPListRsp,0202H
        ARGFRAME ISTACK, 0, STACK
        ARGFRAME PSTACK, 0, STACK
        ARGFRAME XSTACK, 25, STACK
        ARGFRAME IOVERLAY, 0, STATIC
        ARGFRAME DOVERLAY, 0, STATIC
        EXTERN ZDO_ParseMgmtBindRsp
        FUNCTION ZDO_ParseMgmtBindRsp,0202H
        ARGFRAME ISTACK, 0, STACK
        ARGFRAME PSTACK, 0, STACK
        ARGFRAME XSTACK, 25, STACK
        ARGFRAME IOVERLAY, 0, STATIC
        ARGFRAME DOVERLAY, 0, STATIC
        EXTERN ZDO_ParseSimpleDescRsp
        FUNCTION ZDO_ParseSimpleDescRsp,0202H
        ARGFRAME ISTACK, 0, STACK
        ARGFRAME PSTACK, 0, STACK
        ARGFRAME XSTACK, 25, STACK
        ARGFRAME IOVERLAY, 0, STATIC
        ARGFRAME DOVERLAY, 0, STATIC
        EXTERN ZDO_RegisterForZDOMsg
        FUNCTION ZDO_RegisterForZDOMsg,0202H
        ARGFRAME ISTACK, 0, STACK
        ARGFRAME PSTACK, 0, STACK
        ARGFRAME XSTACK, 9, STACK
        ARGFRAME IOVERLAY, 0, STATIC
        ARGFRAME DOVERLAY, 0, STATIC
        EXTERN ZDP_BindUnbindReq
        FUNCTION ZDP_BindUnbindReq,0202H
        ARGFRAME ISTACK, 0, STACK
        ARGFRAME PSTACK, 0, STACK
        ARGFRAME XSTACK, 71, STACK
        ARGFRAME IOVERLAY, 0, STATIC
        ARGFRAME DOVERLAY, 0, STATIC
        EXTERN ZDP_MgmtPermitJoinReq
        FUNCTION ZDP_MgmtPermitJoinReq,0202H
        ARGFRAME ISTACK, 0, STACK
        ARGFRAME PSTACK, 0, STACK
        ARGFRAME XSTACK, 19, STACK
        ARGFRAME IOVERLAY, 0, STATIC
        ARGFRAME DOVERLAY, 0, STATIC
        EXTERN ZDP_NWKAddrOfInterestReq
        FUNCTION ZDP_NWKAddrOfInterestReq,0202H
        ARGFRAME ISTACK, 0, STACK
        ARGFRAME PSTACK, 0, STACK
        ARGFRAME XSTACK, 66, STACK
        ARGFRAME IOVERLAY, 0, STATIC
        ARGFRAME DOVERLAY, 0, STATIC
        EXTERN ZDP_SimpleDescReq
        FUNCTION ZDP_SimpleDescReq,0202H
        ARGFRAME ISTACK, 0, STACK
        ARGFRAME PSTACK, 0, STACK
        ARGFRAME XSTACK, 66, STACK
        ARGFRAME IOVERLAY, 0, STATIC
        ARGFRAME DOVERLAY, 0, STATIC
        EXTERN afRegister
        FUNCTION afRegister,0202H
        ARGFRAME ISTACK, 0, STACK
        ARGFRAME PSTACK, 0, STACK
        ARGFRAME XSTACK, 9, STACK
        ARGFRAME IOVERLAY, 0, STATIC
        ARGFRAME DOVERLAY, 0, STATIC
        EXTERN osal_mem_alloc
        FUNCTION osal_mem_alloc,0202H
        ARGFRAME ISTACK, 0, STACK
        ARGFRAME PSTACK, 0, STACK
        ARGFRAME XSTACK, 25, STACK
        ARGFRAME IOVERLAY, 0, STATIC
        ARGFRAME DOVERLAY, 0, STATIC
        EXTERN osal_mem_free
        FUNCTION osal_mem_free,0202H
        ARGFRAME ISTACK, 0, STACK
        ARGFRAME PSTACK, 0, STACK
        ARGFRAME XSTACK, 65, STACK
        ARGFRAME IOVERLAY, 0, STATIC
        ARGFRAME DOVERLAY, 0, STATIC
        EXTERN osal_memcpy
        FUNCTION osal_memcpy,0202H
        ARGFRAME ISTACK, 0, STACK
        ARGFRAME PSTACK, 0, STACK
        ARGFRAME XSTACK, 66, STACK
        ARGFRAME IOVERLAY, 0, STATIC
        ARGFRAME DOVERLAY, 0, STATIC
        EXTERN osal_memset
        FUNCTION osal_memset,0202H
        ARGFRAME ISTACK, 2, STACK
        ARGFRAME PSTACK, 0, STACK
        ARGFRAME XSTACK, 65, STACK
        ARGFRAME IOVERLAY, 0, STATIC
        ARGFRAME DOVERLAY, 0, STATIC
        EXTERN osal_msg_deallocate
        FUNCTION osal_msg_deallocate,0202H
        ARGFRAME ISTACK, 0, STACK
        ARGFRAME PSTACK, 0, STACK
        ARGFRAME XSTACK, 65, STACK
        ARGFRAME IOVERLAY, 0, STATIC
        ARGFRAME DOVERLAY, 0, STATIC
        EXTERN osal_msg_receive
        FUNCTION osal_msg_receive,0202H
        ARGFRAME ISTACK, 0, STACK
        ARGFRAME PSTACK, 0, STACK
        ARGFRAME XSTACK, 65, STACK
        ARGFRAME IOVERLAY, 0, STATIC
        ARGFRAME DOVERLAY, 0, STATIC
        EXTERN osal_nv_read
        FUNCTION osal_nv_read,0202H
        ARGFRAME ISTACK, 0, STACK
        ARGFRAME PSTACK, 0, STACK
        ARGFRAME XSTACK, 67, STACK
        ARGFRAME IOVERLAY, 0, STATIC
        ARGFRAME DOVERLAY, 0, STATIC
        EXTERN osal_set_event
        FUNCTION osal_set_event,0202H
        ARGFRAME ISTACK, 0, STACK
        ARGFRAME PSTACK, 0, STACK
        ARGFRAME XSTACK, 63, STACK
        ARGFRAME IOVERLAY, 0, STATIC
        ARGFRAME DOVERLAY, 0, STATIC
        EXTERN osal_start_timerEx
        FUNCTION osal_start_timerEx,0202H
        ARGFRAME ISTACK, 0, STACK
        ARGFRAME PSTACK, 0, STACK
        ARGFRAME XSTACK, 29, STACK
        ARGFRAME IOVERLAY, 0, STATIC
        ARGFRAME DOVERLAY, 0, STATIC
        EXTERN zclDiagnostic_InitStats
        FUNCTION zclDiagnostic_InitStats,0202H
        ARGFRAME ISTACK, 0, STACK
        ARGFRAME PSTACK, 0, STACK
        ARGFRAME XSTACK, 9, STACK
        ARGFRAME IOVERLAY, 0, STATIC
        ARGFRAME DOVERLAY, 0, STATIC
        EXTERN zclGeneral_RegisterCmdCallbacks
        FUNCTION zclGeneral_RegisterCmdCallbacks,0202H
        ARGFRAME ISTACK, 0, STACK
        ARGFRAME PSTACK, 0, STACK
        ARGFRAME XSTACK, 9, STACK
        ARGFRAME IOVERLAY, 0, STATIC
        ARGFRAME DOVERLAY, 0, STATIC
        EXTERN zclHA_Init
        FUNCTION zclHA_Init,0202H
        ARGFRAME ISTACK, 0, STACK
        ARGFRAME PSTACK, 0, STACK
        ARGFRAME XSTACK, 9, STACK
        ARGFRAME IOVERLAY, 0, STATIC
        ARGFRAME DOVERLAY, 0, STATIC
        EXTERN zcl_EZModeAction
        FUNCTION zcl_EZModeAction,0202H
        ARGFRAME ISTACK, 2, STACK
        ARGFRAME PSTACK, 0, STACK
        ARGFRAME XSTACK, 2, STACK
        ARGFRAME IOVERLAY, 0, STATIC
        ARGFRAME DOVERLAY, 0, STATIC
        EXTERN zcl_InvokeEZMode
        FUNCTION zcl_InvokeEZMode,0202H
        ARGFRAME ISTACK, 0, STACK
        ARGFRAME PSTACK, 0, STACK
        ARGFRAME XSTACK, 19, STACK
        ARGFRAME IOVERLAY, 0, STATIC
        ARGFRAME DOVERLAY, 0, STATIC
        EXTERN zcl_ProcessMessageMSG
        FUNCTION zcl_ProcessMessageMSG,0202H
        ARGFRAME ISTACK, 0, STACK
        ARGFRAME PSTACK, 0, STACK
        ARGFRAME XSTACK, 65, STACK
        ARGFRAME IOVERLAY, 0, STATIC
        ARGFRAME DOVERLAY, 0, STATIC
        EXTERN zcl_SendRead
        FUNCTION zcl_SendRead,0202H
        ARGFRAME ISTACK, 0, STACK
        ARGFRAME PSTACK, 0, STACK
        ARGFRAME XSTACK, 70, STACK
        ARGFRAME IOVERLAY, 0, STATIC
        ARGFRAME DOVERLAY, 0, STATIC
        EXTERN zcl_getRawAFMsg
        FUNCTION zcl_getRawAFMsg,0202H
        ARGFRAME ISTACK, 0, STACK
        ARGFRAME PSTACK, 0, STACK
        ARGFRAME XSTACK, 10, STACK
        ARGFRAME IOVERLAY, 0, STATIC
        ARGFRAME DOVERLAY, 0, STATIC
        EXTERN zcl_registerAttrList
        FUNCTION zcl_registerAttrList,0202H
        ARGFRAME ISTACK, 0, STACK
        ARGFRAME PSTACK, 0, STACK
        ARGFRAME XSTACK, 9, STACK
        ARGFRAME IOVERLAY, 0, STATIC
        ARGFRAME DOVERLAY, 0, STATIC
        EXTERN zcl_registerForMsg
        FUNCTION zcl_registerForMsg,0202H
        ARGFRAME ISTACK, 0, STACK
        ARGFRAME PSTACK, 0, STACK
        ARGFRAME XSTACK, 9, STACK
        ARGFRAME IOVERLAY, 0, STATIC
        ARGFRAME DOVERLAY, 0, STATIC
        EXTERN zcl_registerReadWriteCB
        FUNCTION zcl_registerReadWriteCB,0202H
        ARGFRAME ISTACK, 0, STACK
        ARGFRAME PSTACK, 0, STACK
        ARGFRAME XSTACK, 9, STACK
        ARGFRAME IOVERLAY, 0, STATIC
        ARGFRAME DOVERLAY, 0, STATIC
        EXTERN zgWriteStartupOptions
        FUNCTION zgWriteStartupOptions,0202H
        ARGFRAME ISTACK, 2, STACK
        ARGFRAME PSTACK, 0, STACK
        ARGFRAME XSTACK, 5, STACK
        ARGFRAME IOVERLAY, 0, STATIC
        ARGFRAME DOVERLAY, 0, STATIC
        EXTERN zha_project_Attrs
        EXTERN zha_project_IdentifyTime
        EXTERN zha_project_LevelCurrentLevel
        EXTERN zha_project_LevelOnLevel
        EXTERN zha_project_Level_to_Level
        EXTERN zha_project_NumAttributes
        EXTERN zha_project_OnOff
        EXTERN zha_project_SimpleDesc

// C:\Texas Instruments\Z-Stack Home 1.2.2a.44539\Projects\zstack\HomeAutomation\Zigbee-HomeAutomatic\Source\zha_project.c
//    1 /**************************************************************************************************
//    2   Filename:       zha_project.c
//    3   Revised:        $Date: 2014-10-24 16:04:46 -0700 (Fri, 24 Oct 2014) $
//    4   Revision:       $Revision: 40796 $
//    5 
//    6 
//    7   Description:    Zigbee Cluster Library - sample device application.
//    8 
//    9 
//   10   Copyright 2006-2014 Texas Instruments Incorporated. All rights reserved.
//   11 
//   12   IMPORTANT: Your use of this Software is limited to those specific rights
//   13   granted under the terms of a software license agreement between the user
//   14   who downloaded the software, his/her employer (which must be your employer)
//   15   and Texas Instruments Incorporated (the "License").  You may not use this
//   16   Software unless you agree to abide by the terms of the License. The License
//   17   limits your use, and you acknowledge, that the Software may not be modified,
//   18   copied or distributed unless embedded on a Texas Instruments microcontroller
//   19   or used solely and exclusively in conjunction with a Texas Instruments radio
//   20   frequency transceiver, which is integrated into your product.  Other than for
//   21   the foregoing purpose, you may not use, reproduce, copy, prepare derivative
//   22   works of, modify, distribute, perform, display or sell this Software and/or
//   23   its documentation for any purpose.
//   24 
//   25   YOU FURTHER ACKNOWLEDGE AND AGREE THAT THE SOFTWARE AND DOCUMENTATION ARE
//   26   PROVIDED "AS IS" WITHOUT WARRANTY OF ANY KIND, EITHER EXPRESS OR IMPLIED,
//   27   INCLUDING WITHOUT LIMITATION, ANY WARRANTY OF MERCHANTABILITY, TITLE,
//   28   NON-INFRINGEMENT AND FITNESS FOR A PARTICULAR PURPOSE. IN NO EVENT SHALL
//   29   TEXAS INSTRUMENTS OR ITS LICENSORS BE LIABLE OR OBLIGATED UNDER CONTRACT,
//   30   NEGLIGENCE, STRICT LIABILITY, CONTRIBUTION, BREACH OF WARRANTY, OR OTHER
//   31   LEGAL EQUITABLE THEORY ANY DIRECT OR INDIRECT DAMAGES OR EXPENSES
//   32   INCLUDING BUT NOT LIMITED TO ANY INCIDENTAL, SPECIAL, INDIRECT, PUNITIVE
//   33   OR CONSEQUENTIAL DAMAGES, LOST PROFITS OR LOST DATA, COST OF PROCUREMENT
//   34   OF SUBSTITUTE GOODS, TECHNOLOGY, SERVICES, OR ANY CLAIMS BY THIRD PARTIES
//   35   (INCLUDING BUT NOT LIMITED TO ANY DEFENSE THEREOF), OR OTHER SIMILAR COSTS.
//   36 
//   37   Should you have any questions regarding your right to use this Software,
//   38   contact Texas Instruments Incorporated at www.TI.com.
//   39 **************************************************************************************************/
//   40 
//   41 /*********************************************************************
//   42   This application implements a ZigBee HA 1.2 Light. It can be configured as an
//   43   On/Off light, or as a dimmable light. The following flags must be defined in
//   44   the compiler's pre-defined symbols.
//   45 
//   46   ZCL_ON_OFF
//   47   ZCL_LEVEL_CTRL    (only if dimming functionality desired)
//   48   HOLD_AUTO_START
//   49   ZCL_EZMODE
//   50 
//   51   This device supports all mandatory and optional commands/attributes for the
//   52   OnOff (0x0006) and LevelControl (0x0008) clusters.
//   53 
//   54   SCREEN MODES
//   55   ----------------------------------------
//   56   Main:
//   57     - SW1: Toggle local light
//   58     - SW2: Invoke EZMode
//   59     - SW4: Enable/Disable local permit join
//   60     - SW5: Go to Help screen
//   61   ----------------------------------------
//   62 *********************************************************************/
//   63 
//   64 /*********************************************************************
//   65  * INCLUDES
//   66  */
//   67 #include "ZComDef.h"
//   68 #include "OSAL.h"
//   69 #include "AF.h"
//   70 #include "ZDApp.h"
//   71 #include "ZDObject.h"
//   72 #include "MT_SYS.h"
//   73 
//   74 #include "nwk_util.h"
//   75 
//   76 #include "ZDObject.h"
//   77 #include "ZDProfile.h"
//   78 #include "zcl.h"
//   79 #include "zcl_general.h"
//   80 #include "zcl_ha.h"
//   81 #include "zcl_ss.h"
//   82 #include "zcl_ms.h"
//   83 #include "zcl_ezmode.h"
//   84 #include "zcl_diagnostic.h"
//   85 #include "zcl_lighting.h"
//   86 #include "zha_project.h"
//   87 #include "SerialApp.h"
//   88 #include "at_command.h"   
//   89 #include "onboard.h"
//   90 
//   91 /* HAL */
//   92 #include "hal_lcd.h"
//   93 #include "hal_led.h"
//   94 #include "hal_key.h"
//   95 
//   96 #if ( defined (ZGP_DEVICE_TARGET) || defined (ZGP_DEVICE_TARGETPLUS) \ 
//   97       || defined (ZGP_DEVICE_COMBO) || defined (ZGP_DEVICE_COMBO_MIN) )
//   98 #include "zgp_translationtable.h"
//   99   #if (SUPPORTED_S_FEATURE(SUPP_ZGP_FEATURE_TRANSLATION_TABLE))
//  100     #define ZGP_AUTO_TT
//  101   #endif
//  102 #endif
//  103 
//  104 #if (defined HAL_BOARD_ZLIGHT) || (defined HAL_PWM)
//  105 #include "math.h"
//  106 #include "hal_timer.h"
//  107 #endif
//  108 
//  109 #include "NLMEDE.h"
//  110 
//  111 /*********************************************************************
//  112  * MACROS
//  113  */
//  114 
//  115 /*********************************************************************
//  116  * CONSTANTS
//  117  */
//  118 #if (defined HAL_BOARD_ZLIGHT)
//  119 #define LEVEL_MAX                 0xFE
//  120 #define LEVEL_MIN                 0x0
//  121 #define GAMMA_VALUE               2
//  122 #define PWM_FULL_DUTY_CYCLE       1000
//  123 #elif (defined HAL_PWM)
//  124 #define LEVEL_MAX                 0xFE
//  125 #define LEVEL_MIN                 0x0
//  126 #define GAMMA_VALUE               2
//  127 #define PWM_FULL_DUTY_CYCLE       100
//  128 #endif
//  129 
//  130 /*********************************************************************
//  131  * TYPEDEFS
//  132  */
//  133 
//  134 /*********************************************************************
//  135  * GLOBAL VARIABLES
//  136  */

        RSEG XDATA_Z:XDATA:NOROOT(0)
        DATA8
//  137 byte zha_project_TaskID;
zha_project_TaskID:
        DS 1
        REQUIRE __INIT_XDATA_Z

        RSEG XDATA_Z:XDATA:NOROOT(0)
        DATA8
//  138 uint8 zha_projectSeqNum;
zha_projectSeqNum:
        DS 1
        REQUIRE __INIT_XDATA_Z

        RSEG XDATA_Z:XDATA:NOROOT(0)
        DATA16
//  139 ZDO_ActiveEndpointRsp_t   *zha_project_ActiveEP;
zha_project_ActiveEP:
        DS 2
        REQUIRE __INIT_XDATA_Z

        RSEG XDATA_Z:XDATA:NOROOT(0)
        DATA8
//  140 endPointDesc_t zha_project_epDesc;
zha_project_epDesc:
        DS 6
        REQUIRE __INIT_XDATA_Z
//  141 afAddrType_t zha_project_DstAddr;

        RSEG XDATA_Z:XDATA:NOROOT(0)
        DATA8
//  142 static zAddrType_t simpleDescReqAddr;
simpleDescReqAddr:
        DS 9
        REQUIRE __INIT_XDATA_Z

        RSEG XDATA_Z:XDATA:NOROOT(0)
        DATA8
//  143 uint8 ep[5];
ep:
        DS 5
        REQUIRE __INIT_XDATA_Z

        RSEG XDATA_Z:XDATA:NOROOT(0)
        DATA8
//  144 uint8 netState = 0;
netState:
        DS 1
        REQUIRE __INIT_XDATA_Z

        RSEG XDATA_Z:XDATA:NOROOT(0)
        DATA8
//  145 zAddrType_t dstAddr;
dstAddr:
        DS 9
        REQUIRE __INIT_XDATA_Z
//  146 
//  147 #if ZG_BUILD_ENDDEVICE_TYPE
//  148 endPointDesc_t zclZHAtest_epDesc;
//  149 endPointDesc_t zclZHAtest_epDesc1;
//  150 endPointDesc_t zclZHAtest_epDesc2;
//  151 endPointDesc_t zclZHAtest_epDesc3;
//  152 endPointDesc_t zclZHAtest_epDesc4;
//  153 endPointDesc_t zclZHAtest_epDesc5;
//  154 endPointDesc_t zclZHAtest_epDesc6;
//  155 endPointDesc_t zclZHAtest_epDesc7;
//  156 endPointDesc_t zclZHAtest_epDesc8;
//  157 endPointDesc_t zclZHAtest_epDesc9;
//  158 endPointDesc_t zclZHAtest_epDesc10;
//  159 endPointDesc_t zclZHAtest_epDesc11;
//  160 endPointDesc_t zclZHAtest_epDesc12;
//  161 endPointDesc_t zclZHAtest_epDesc14;
//  162 #endif
//  163 /*********************************************************************
//  164  * GLOBAL FUNCTIONS
//  165  */
//  166 
//  167 /*********************************************************************
//  168  * LOCAL VARIABLES
//  169  */

        RSEG XDATA_Z:XDATA:NOROOT(0)
        DATA8
//  170 afAddrType_t zha_project_DstAddr;
zha_project_DstAddr:
        DS 12
        REQUIRE __INIT_XDATA_Z
//  171 
//  172 #ifdef ZCL_EZMODE
//  173 static void zha_project_ProcessZDOMsgs( zdoIncomingMsg_t *pMsg );
//  174 static void zha_project_EZModeCB( zlcEZMode_State_t state, zclEZMode_CBData_t *pData );
//  175 
//  176 
//  177 // register EZ-Mode with task information (timeout events, callback, etc...)
//  178 //static const zclEZMode_RegisterData_t zha_project_RegisterEZModeData =
//  179 //{
//  180 //  &zha_project_TaskID,
//  181 //  SAMPLELIGHT_EZMODE_NEXTSTATE_EVT,
//  182 //  SAMPLELIGHT_EZMODE_TIMEOUT_EVT,
//  183 //  &zha_projectSeqNum,
//  184 //  zha_project_EZModeCB
//  185 //};
//  186 
//  187 #else
//  188 uint16 bindingInClusters[] =
//  189 {
//  190   ZCL_CLUSTER_ID_GEN_ON_OFF
//  191 #ifdef ZCL_LEVEL_CTRL
//  192   , ZCL_CLUSTER_ID_GEN_LEVEL_CONTROL
//  193 #endif
//  194 };
//  195 #define ZCLSAMPLELIGHT_BINDINGLIST (sizeof(bindingInClusters) / sizeof(bindingInClusters[0]))
//  196 
//  197 #endif  // ZCL_EZMODE
//  198 
//  199 // Test Endpoint to allow SYS_APP_MSGs

        RSEG XDATA_I:XDATA:NOROOT(0)
//  200 static endPointDesc_t sampleLight_TestEp =
sampleLight_TestEp:
        DATA8
        DS 6
        REQUIRE `?<Initializer for sampleLight_TestEp>`
        REQUIRE __INIT_XDATA_I
//  201 {
//  202   SAMPLELIGHT_ENDPOINT,
//  203   &zha_project_TaskID,
//  204   (SimpleDescriptionFormat_t *)NULL,  // No Simple description for this test endpoint
//  205   (afNetworkLatencyReq_t)0            // No Network Latency req
//  206 };
//  207 

        RSEG XDATA_Z:XDATA:NOROOT(0)
        DATA8
//  208 uint8 giLightScreenMode = LIGHT_MAINMODE;   // display the main screen mode first
giLightScreenMode:
        DS 1
        REQUIRE __INIT_XDATA_Z
//  209 

        RSEG XDATA_Z:XDATA:NOROOT(0)
        DATA8
//  210 uint8 gPermitDuration = 0;    // permit joining default to disabled
gPermitDuration:
        DS 1
        REQUIRE __INIT_XDATA_Z
//  211 

        RSEG XDATA_I:XDATA:NOROOT(0)
//  212 devStates_t zha_project_NwkState = DEV_INIT;
zha_project_NwkState:
        DATA8
        DS 1
        REQUIRE `?<Initializer for zha_project_NwkState>`
        REQUIRE __INIT_XDATA_I
//  213 
//  214 #if ZCL_LEVEL_CTRL

        RSEG XDATA_Z:XDATA:NOROOT(0)
        DATA8
//  215 uint8 zha_project_WithOnOff;       // set to TRUE if state machine should set light on/off
zha_project_WithOnOff:
        DS 1
        REQUIRE __INIT_XDATA_Z

        RSEG XDATA_Z:XDATA:NOROOT(0)
        DATA8
//  216 uint8 zha_project_NewLevel;        // new level when done moving
zha_project_NewLevel:
        DS 1
        REQUIRE __INIT_XDATA_Z

        RSEG XDATA_Z:XDATA:NOROOT(0)
        DATA8
//  217 bool  zha_project_NewLevelUp;      // is direction to new level up or down?
zha_project_NewLevelUp:
        DS 1
        REQUIRE __INIT_XDATA_Z

        RSEG XDATA_Z:XDATA:NOROOT(0)
        DATA32
//  218 int32 zha_project_CurrentLevel32;  // current level, fixed point (e.g. 192.456)
zha_project_CurrentLevel32:
        DS 4
        REQUIRE __INIT_XDATA_Z

        RSEG XDATA_Z:XDATA:NOROOT(0)
        DATA32
//  219 int32 zha_project_Rate32;          // rate in units, fixed point (e.g. 16.123)
zha_project_Rate32:
        DS 4
        REQUIRE __INIT_XDATA_Z

        RSEG XDATA_Z:XDATA:NOROOT(0)
        DATA8
//  220 uint8 zha_project_LevelLastLevel;  // to save the Current Level before the light was turned OFF
zha_project_LevelLastLevel:
        DS 1
        REQUIRE __INIT_XDATA_Z
//  221 #endif
//  222 
//  223 /*********************************************************************
//  224  * LOCAL FUNCTIONS
//  225  */
//  226 
//  227 
//  228 
//  229 static void zha_project_HandleKeys( byte shift, byte keys );
//  230 static void zha_project_BasicResetCB( void );
//  231 static void zha_project_IdentifyCB( zclIdentify_t *pCmd );
//  232 static void zha_project_IdentifyQueryRspCB( zclIdentifyQueryRsp_t *pRsp );
//  233 static void zha_project_OnOffCB( uint8 cmd );
//  234 static ZStatus_t zclZLL_ColorControl_MoveToColorTemperature(zclCCMoveToColorTemperature_t *pCmd);
//  235 static void zclSS_ChangeNotification(zclZoneChangeNotif_t *pCmd);
//  236 
//  237 
//  238 
//  239 
//  240 #ifdef ZCL_LEVEL_CTRL
//  241 static void zha_project_LevelControlMoveToLevelCB( zclLCMoveToLevel_t *pCmd );
//  242 //static void zha_project_LevelControlMoveCB( zclLCMove_t *pCmd );
//  243 //static void zha_project_LevelControlStepCB( zclLCStep_t *pCmd );
//  244 //static void zha_project_LevelControlStopCB( void );
//  245 //static void zha_project_DefaultMove( void );
//  246 //static uint32 zha_project_TimeRateHelper( uint8 newLevel );
//  247 //static uint16 zha_project_GetTime ( uint8 level, uint16 time );
//  248 //static void zha_project_MoveBasedOnRate( uint8 newLevel, uint32 rate );
//  249 //static void zha_project_MoveBasedOnTime( uint8 newLevel, uint16 time );
//  250 //static void zha_project_AdjustLightLevel( void );
//  251 #endif
//  252 
//  253 // app display functions
//  254 static void zha_project_DisplayLight( void );
//  255 
//  256 #if (defined HAL_BOARD_ZLIGHT) || (defined HAL_PWM)
//  257 void zha_project_UpdateLampLevel( uint8 level );
//  258 #endif
//  259 
//  260 // Functions to process ZCL Foundation incoming Command/Response messages
//  261 static void zha_project_ProcessIncomingMsg( zclIncomingMsg_t *msg );
//  262 #ifdef ZCL_READ
//  263 static uint8 zha_project_ProcessInReadRspCmd( zclIncomingMsg_t *pInMsg );
//  264 #endif
//  265 #ifdef ZCL_WRITE
//  266 static uint8 zha_project_ProcessInWriteRspCmd( zclIncomingMsg_t *pInMsg );
//  267 #endif
//  268 #ifdef ZCL_REPORT
//  269 static uint8 zha_project_ProcessInReportCmd( zclIncomingMsg_t *pInMsg );
//  270 #endif
//  271 static uint8 zha_project_ProcessInDefaultRspCmd( zclIncomingMsg_t *pInMsg );
//  272 #ifdef ZCL_DISCOVER
//  273 static uint8 zha_project_ProcessInDiscCmdsRspCmd( zclIncomingMsg_t *pInMsg );
//  274 static uint8 zha_project_ProcessInDiscAttrsRspCmd( zclIncomingMsg_t *pInMsg );
//  275 static uint8 zha_project_ProcessInDiscAttrsExtRspCmd( zclIncomingMsg_t *pInMsg );
//  276 #endif
//  277 
//  278 /*********************************************************************
//  279  * STATUS STRINGS
//  280  */
//  281 
//  282 
//  283 /*********************************************************************
//  284  * ZCL General Profile Callback table
//  285  */

        RSEG XDATA_I:XDATA:NOROOT(0)
//  286 static zclGeneral_AppCallbacks_t zha_project_CmdCallbacks =
zha_project_CmdCallbacks:
        DATA8
        DS 40
        REQUIRE `?<Initializer for zha_project_CmdCallbacks>`
        REQUIRE __INIT_XDATA_I
//  287 {
//  288   zha_project_BasicResetCB,            // Basic Cluster Reset command
//  289   zha_project_IdentifyCB,              // Identify command
//  290 #ifdef ZCL_EZMODE
//  291   NULL,                                   // Identify EZ-Mode Invoke command
//  292   NULL,                                   // Identify Update Commission State command
//  293 #endif
//  294   NULL,                                   // Identify Trigger Effect command
//  295   zha_project_IdentifyQueryRspCB,      // Identify Query Response command
//  296   zha_project_OnOffCB,                 // On/Off cluster commands
//  297   NULL,                                   // On/Off cluster enhanced command Off with Effect
//  298   NULL,                                   // On/Off cluster enhanced command On with Recall Global Scene
//  299   NULL,                                   // On/Off cluster enhanced command On with Timed Off
//  300 #ifdef ZCL_LEVEL_CTRL
//  301   zha_project_LevelControlMoveToLevelCB, // Level Control Move to Level command
//  302   NULL,        // Level Control Move command
//  303   NULL,        // Level Control Step command
//  304   NULL,        // Level Control Stop command
//  305 #endif
//  306 #ifdef ZCL_GROUPS
//  307   NULL,                                   // Group Response commands
//  308 #endif
//  309 #ifdef ZCL_SCENES
//  310   NULL,                                  // Scene Store Request command
//  311   NULL,                                  // Scene Recall Request command
//  312   NULL,                                  // Scene Response command
//  313 #endif
//  314 #ifdef ZCL_ALARMS
//  315   NULL,                                  // Alarm (Response) commands
//  316 #endif
//  317 #ifdef SE_UK_EXT
//  318   NULL,                                  // Get Event Log command
//  319   NULL,                                  // Publish Event Log command
//  320 #endif
//  321   NULL,                                  // RSSI Location command
//  322   NULL                                   // RSSI Location Response command
//  323 };
//  324 
//  325 static zclLighting_AppCallbacks_t  zclZLLtest_CmdCallbacks =
//  326 {
//  327     NULL,
//  328     NULL,
//  329     NULL,
//  330     NULL,
//  331     NULL,
//  332     NULL,
//  333     NULL,
//  334     NULL,
//  335     NULL,
//  336     NULL,
//  337     zclZLL_ColorControl_MoveToColorTemperature,
//  338 
//  339 
//  340 };
//  341 
//  342 static zclSS_AppCallbacks_t zclSStest_CmdCallbacks =
//  343 {
//  344     //zclSS_ChangeNotification,
//  345     NULL,
//  346     NULL,
//  347     NULL,
//  348     NULL,
//  349     NULL,
//  350     NULL,
//  351     NULL,
//  352     NULL,
//  353     NULL,
//  354     NULL,
//  355     //zclSS_WD_StartWarning,
//  356     //zclSS_WD_Squawk,
//  357   
//  358   
//  359   
//  360   
//  361 };
//  362 
//  363 /*********************************************************************
//  364  * @fn          zha_project_Init
//  365  *
//  366  * @brief       Initialization function for the zclGeneral layer.
//  367  *
//  368  * @param       none
//  369  *
//  370  * @return      none
//  371  */

        RSEG BANKED_CODE:CODE:NOROOT(0)
//  372 void zha_project_Init( byte task_id )
zha_project_Init:
          CFI Block cfiBlock0 Using cfiCommon0
          CFI Function zha_project_Init
        CODE
//  373 {
        FUNCALL zha_project_Init, zclHA_Init
        LOCFRAME ISTACK, 0, STACK
        LOCFRAME PSTACK, 0, STACK
        LOCFRAME XSTACK, 9, STACK
        LOCFRAME IOVERLAY, 0, STATIC
        LOCFRAME DOVERLAY, 0, STATIC
        ARGFRAME ISTACK, 0, STACK
        ARGFRAME PSTACK, 0, STACK
        ARGFRAME XSTACK, 9, STACK
        ARGFRAME IOVERLAY, 0, STATIC
        ARGFRAME DOVERLAY, 0, STATIC
        FUNCALL zha_project_Init, SerialApp_Init
        LOCFRAME ISTACK, 0, STACK
        LOCFRAME PSTACK, 0, STACK
        LOCFRAME XSTACK, 9, STACK
        LOCFRAME IOVERLAY, 0, STATIC
        LOCFRAME DOVERLAY, 0, STATIC
        ARGFRAME ISTACK, 0, STACK
        ARGFRAME PSTACK, 0, STACK
        ARGFRAME XSTACK, 9, STACK
        ARGFRAME IOVERLAY, 0, STATIC
        ARGFRAME DOVERLAY, 0, STATIC
        FUNCALL zha_project_Init, AT_Init
        LOCFRAME ISTACK, 0, STACK
        LOCFRAME PSTACK, 0, STACK
        LOCFRAME XSTACK, 9, STACK
        LOCFRAME IOVERLAY, 0, STATIC
        LOCFRAME DOVERLAY, 0, STATIC
        ARGFRAME ISTACK, 0, STACK
        ARGFRAME PSTACK, 0, STACK
        ARGFRAME XSTACK, 9, STACK
        ARGFRAME IOVERLAY, 0, STATIC
        ARGFRAME DOVERLAY, 0, STATIC
        FUNCALL zha_project_Init, Device_type_Init
        LOCFRAME ISTACK, 0, STACK
        LOCFRAME PSTACK, 0, STACK
        LOCFRAME XSTACK, 9, STACK
        LOCFRAME IOVERLAY, 0, STATIC
        LOCFRAME DOVERLAY, 0, STATIC
        ARGFRAME ISTACK, 0, STACK
        ARGFRAME PSTACK, 0, STACK
        ARGFRAME XSTACK, 9, STACK
        ARGFRAME IOVERLAY, 0, STATIC
        ARGFRAME DOVERLAY, 0, STATIC
        FUNCALL zha_project_Init, zclGeneral_RegisterCmdCallbacks
        LOCFRAME ISTACK, 0, STACK
        LOCFRAME PSTACK, 0, STACK
        LOCFRAME XSTACK, 9, STACK
        LOCFRAME IOVERLAY, 0, STATIC
        LOCFRAME DOVERLAY, 0, STATIC
        ARGFRAME ISTACK, 0, STACK
        ARGFRAME PSTACK, 0, STACK
        ARGFRAME XSTACK, 9, STACK
        ARGFRAME IOVERLAY, 0, STATIC
        ARGFRAME DOVERLAY, 0, STATIC
        FUNCALL zha_project_Init, zcl_registerAttrList
        LOCFRAME ISTACK, 0, STACK
        LOCFRAME PSTACK, 0, STACK
        LOCFRAME XSTACK, 9, STACK
        LOCFRAME IOVERLAY, 0, STATIC
        LOCFRAME DOVERLAY, 0, STATIC
        ARGFRAME ISTACK, 0, STACK
        ARGFRAME PSTACK, 0, STACK
        ARGFRAME XSTACK, 9, STACK
        ARGFRAME IOVERLAY, 0, STATIC
        ARGFRAME DOVERLAY, 0, STATIC
        FUNCALL zha_project_Init, zcl_registerForMsg
        LOCFRAME ISTACK, 0, STACK
        LOCFRAME PSTACK, 0, STACK
        LOCFRAME XSTACK, 9, STACK
        LOCFRAME IOVERLAY, 0, STATIC
        LOCFRAME DOVERLAY, 0, STATIC
        ARGFRAME ISTACK, 0, STACK
        ARGFRAME PSTACK, 0, STACK
        ARGFRAME XSTACK, 9, STACK
        ARGFRAME IOVERLAY, 0, STATIC
        ARGFRAME DOVERLAY, 0, STATIC
        FUNCALL zha_project_Init, RegisterForKeys
        LOCFRAME ISTACK, 0, STACK
        LOCFRAME PSTACK, 0, STACK
        LOCFRAME XSTACK, 9, STACK
        LOCFRAME IOVERLAY, 0, STATIC
        LOCFRAME DOVERLAY, 0, STATIC
        ARGFRAME ISTACK, 0, STACK
        ARGFRAME PSTACK, 0, STACK
        ARGFRAME XSTACK, 9, STACK
        ARGFRAME IOVERLAY, 0, STATIC
        ARGFRAME DOVERLAY, 0, STATIC
        FUNCALL zha_project_Init, afRegister
        LOCFRAME ISTACK, 0, STACK
        LOCFRAME PSTACK, 0, STACK
        LOCFRAME XSTACK, 9, STACK
        LOCFRAME IOVERLAY, 0, STATIC
        LOCFRAME DOVERLAY, 0, STATIC
        ARGFRAME ISTACK, 0, STACK
        ARGFRAME PSTACK, 0, STACK
        ARGFRAME XSTACK, 9, STACK
        ARGFRAME IOVERLAY, 0, STATIC
        ARGFRAME DOVERLAY, 0, STATIC
        FUNCALL zha_project_Init, ZDO_RegisterForZDOMsg
        LOCFRAME ISTACK, 0, STACK
        LOCFRAME PSTACK, 0, STACK
        LOCFRAME XSTACK, 9, STACK
        LOCFRAME IOVERLAY, 0, STATIC
        LOCFRAME DOVERLAY, 0, STATIC
        ARGFRAME ISTACK, 0, STACK
        ARGFRAME PSTACK, 0, STACK
        ARGFRAME XSTACK, 9, STACK
        ARGFRAME IOVERLAY, 0, STATIC
        ARGFRAME DOVERLAY, 0, STATIC
        FUNCALL zha_project_Init, ZDO_RegisterForZDOMsg
        LOCFRAME ISTACK, 0, STACK
        LOCFRAME PSTACK, 0, STACK
        LOCFRAME XSTACK, 9, STACK
        LOCFRAME IOVERLAY, 0, STATIC
        LOCFRAME DOVERLAY, 0, STATIC
        ARGFRAME ISTACK, 0, STACK
        ARGFRAME PSTACK, 0, STACK
        ARGFRAME XSTACK, 9, STACK
        ARGFRAME IOVERLAY, 0, STATIC
        ARGFRAME DOVERLAY, 0, STATIC
        FUNCALL zha_project_Init, ZDO_RegisterForZDOMsg
        LOCFRAME ISTACK, 0, STACK
        LOCFRAME PSTACK, 0, STACK
        LOCFRAME XSTACK, 9, STACK
        LOCFRAME IOVERLAY, 0, STATIC
        LOCFRAME DOVERLAY, 0, STATIC
        ARGFRAME ISTACK, 0, STACK
        ARGFRAME PSTACK, 0, STACK
        ARGFRAME XSTACK, 9, STACK
        ARGFRAME IOVERLAY, 0, STATIC
        ARGFRAME DOVERLAY, 0, STATIC
        FUNCALL zha_project_Init, ZDO_RegisterForZDOMsg
        LOCFRAME ISTACK, 0, STACK
        LOCFRAME PSTACK, 0, STACK
        LOCFRAME XSTACK, 9, STACK
        LOCFRAME IOVERLAY, 0, STATIC
        LOCFRAME DOVERLAY, 0, STATIC
        ARGFRAME ISTACK, 0, STACK
        ARGFRAME PSTACK, 0, STACK
        ARGFRAME XSTACK, 9, STACK
        ARGFRAME IOVERLAY, 0, STATIC
        ARGFRAME DOVERLAY, 0, STATIC
        FUNCALL zha_project_Init, ZDO_RegisterForZDOMsg
        LOCFRAME ISTACK, 0, STACK
        LOCFRAME PSTACK, 0, STACK
        LOCFRAME XSTACK, 9, STACK
        LOCFRAME IOVERLAY, 0, STATIC
        LOCFRAME DOVERLAY, 0, STATIC
        ARGFRAME ISTACK, 0, STACK
        ARGFRAME PSTACK, 0, STACK
        ARGFRAME XSTACK, 9, STACK
        ARGFRAME IOVERLAY, 0, STATIC
        ARGFRAME DOVERLAY, 0, STATIC
        FUNCALL zha_project_Init, zcl_registerReadWriteCB
        LOCFRAME ISTACK, 0, STACK
        LOCFRAME PSTACK, 0, STACK
        LOCFRAME XSTACK, 9, STACK
        LOCFRAME IOVERLAY, 0, STATIC
        LOCFRAME DOVERLAY, 0, STATIC
        ARGFRAME ISTACK, 0, STACK
        ARGFRAME PSTACK, 0, STACK
        ARGFRAME XSTACK, 9, STACK
        ARGFRAME IOVERLAY, 0, STATIC
        ARGFRAME DOVERLAY, 0, STATIC
        FUNCALL zha_project_Init, zclDiagnostic_InitStats
        LOCFRAME ISTACK, 0, STACK
        LOCFRAME PSTACK, 0, STACK
        LOCFRAME XSTACK, 9, STACK
        LOCFRAME IOVERLAY, 0, STATIC
        LOCFRAME DOVERLAY, 0, STATIC
        ARGFRAME ISTACK, 0, STACK
        ARGFRAME PSTACK, 0, STACK
        ARGFRAME XSTACK, 9, STACK
        ARGFRAME IOVERLAY, 0, STATIC
        ARGFRAME DOVERLAY, 0, STATIC
        MOV     A,#-0x9
        LCALL   ?BANKED_ENTER_XDATA
          CFI DPH0 load(1, XDATA, add(CFA_XSP16, literal(-1)))
          CFI DPL0 load(1, XDATA, add(CFA_XSP16, literal(-2)))
          CFI ?BRET_EXT load(1, XDATA, add(CFA_XSP16, literal(-3)))
          CFI ?RET_HIGH load(1, XDATA, add(CFA_XSP16, literal(-4)))
          CFI ?RET_LOW load(1, XDATA, add(CFA_XSP16, literal(-5)))
          CFI R7 load(1, XDATA, add(CFA_XSP16, literal(-6)))
          CFI V0 load(1, XDATA, add(CFA_XSP16, literal(-7)))
          CFI VB load(1, XDATA, add(CFA_XSP16, literal(-8)))
          CFI R6 load(1, XDATA, add(CFA_XSP16, literal(-9)))
          CFI CFA_SP SP+0
          CFI CFA_XSP16 add(XSP16, 9)
        ; Saved register size: 9
        ; Auto size: 0
        MOV     A,R1
        MOV     R6,A
//  374   uint8 devicetype;
//  375   zha_project_TaskID = task_id;
        MOV     DPTR,#zha_project_TaskID
        MOVX    @DPTR,A
//  376 
//  377   // Set destination address to indirect
//  378   zha_project_DstAddr.addrMode = (afAddrMode_t)AddrNotPresent;
        MOV     DPTR,#zha_project_DstAddr + 8
        CLR     A
        MOVX    @DPTR,A
//  379   zha_project_DstAddr.endPoint = 0;
        INC     DPTR
        MOVX    @DPTR,A
//  380   zha_project_DstAddr.addr.shortAddr = 0;
        MOV     DPTR,#zha_project_DstAddr
        MOVX    @DPTR,A
        INC     DPTR
        MOVX    @DPTR,A
//  381 
//  382   // This app is part of the Home Automation Profile
//  383 #if ZG_BUILD_COORDINATOR_TYPE  
//  384   zclHA_Init( &zha_project_SimpleDesc );
        ; Setup parameters for call to function zclHA_Init
        MOV     R2,#zha_project_SimpleDesc & 0xff
        MOV     R3,#(zha_project_SimpleDesc >> 8) & 0xff
        LCALL   `??zclHA_Init::?relay`; Banked call to: zclHA_Init
//  385 #endif
//  386   SerialApp_Init();
        ; Setup parameters for call to function SerialApp_Init
        LCALL   `??SerialApp_Init::?relay`; Banked call to: SerialApp_Init
//  387   AT_Init();
        ; Setup parameters for call to function AT_Init
        LCALL   `??AT_Init::?relay`  ; Banked call to: AT_Init
//  388   //osal_nv_item_init( ZCD_NV_DEVICE_TABLE,(uint16)(sizeof(NODE_INFO_t) * 6 ), NULL );
//  389   Device_type_Init();
        ; Setup parameters for call to function Device_type_Init
        LCALL   `??Device_type_Init::?relay`; Banked call to: Device_type_Init
//  390 #if ZG_BUILD_ENDDEVICE_TYPE
//  391     osal_nv_read(ZCD_NV_DEVICE_TYPE,0, sizeof(uint8), &devicetype);
//  392     ZDO_StartDevice(ZG_DEVICETYPE_ENDDEVICE,MODE_JOIN,15, 15);
//  393     switch(devicetype)
//  394     {
//  395         case light:
//  396             zclZHAtest_epDesc1.endPoint = 1;
//  397             zclZHAtest_epDesc1.task_id = &zha_project_TaskID;
//  398             zclZHAtest_epDesc1.simpleDesc
//  399                     = (SimpleDescriptionFormat_t *)&zclZHAtest_SimpleDesc1;
//  400             zclZHAtest_epDesc1.latencyReq = noLatencyReqs;
//  401             zclHA_Init(&zclZHAtest_SimpleDesc1);
//  402             afRegister( &zclZHAtest_epDesc1 );      
//  403           
//  404          break;
//  405         case level:
//  406              zclZHAtest_epDesc2.endPoint = 1;
//  407         zclZHAtest_epDesc2.task_id = &zha_project_TaskID;
//  408         zclZHAtest_epDesc2.simpleDesc
//  409                 = (SimpleDescriptionFormat_t *)&zclZHAtest_SimpleDesc2;
//  410         zclZHAtest_epDesc2.latencyReq = noLatencyReqs;    
//  411         zclHA_Init(&zclZHAtest_SimpleDesc2);
//  412         afRegister( &zclZHAtest_epDesc2 );
//  413         break;
//  414  
//  415         case colortem:
//  416             zclZHAtest_epDesc3.endPoint = 1;
//  417             zclZHAtest_epDesc3.task_id = &zha_project_TaskID;
//  418             zclZHAtest_epDesc3.simpleDesc
//  419                     = (SimpleDescriptionFormat_t *)&zclZHAtest_SimpleDesc3;
//  420             zclZHAtest_epDesc3.latencyReq = noLatencyReqs;
//  421             zclHA_Init(&zclZHAtest_SimpleDesc3);
//  422             afRegister( &zclZHAtest_epDesc3 );
//  423           break;
//  424         case temp:
//  425             zclZHAtest_epDesc4.endPoint = 1;
//  426             zclZHAtest_epDesc4.task_id = &zha_project_TaskID;
//  427             zclZHAtest_epDesc4.simpleDesc
//  428                     = (SimpleDescriptionFormat_t *)&zclZHAtest_SimpleDesc4;
//  429             zclZHAtest_epDesc4.latencyReq = noLatencyReqs;
//  430             zclHA_Init(&zclZHAtest_SimpleDesc4);
//  431             afRegister( &zclZHAtest_epDesc4 );      
//  432           break;
//  433         case pir:
//  434             zclZHAtest_epDesc5.endPoint = 1;
//  435             zclZHAtest_epDesc5.task_id = &zha_project_TaskID;
//  436             zclZHAtest_epDesc5.simpleDesc
//  437                     = (SimpleDescriptionFormat_t *)&zclZHAtest_SimpleDesc5;
//  438             zclZHAtest_epDesc5.latencyReq = noLatencyReqs;
//  439             zclHA_Init(&zclZHAtest_SimpleDesc5);
//  440             afRegister( &zclZHAtest_epDesc5 );     
//  441             zha_project_Smoke_Type = 0x000d;
//  442           
//  443          break; 
//  444         case humility:
//  445             zclZHAtest_epDesc6.endPoint = 1;
//  446             zclZHAtest_epDesc6.task_id = &zha_project_TaskID;
//  447             zclZHAtest_epDesc6.simpleDesc
//  448                     = (SimpleDescriptionFormat_t *)&zclZHAtest_SimpleDesc6;
//  449             zclZHAtest_epDesc6.latencyReq = noLatencyReqs;
//  450             zclHA_Init(&zclZHAtest_SimpleDesc6);
//  451             afRegister( &zclZHAtest_epDesc6 );      
//  452           break;
//  453         case doorsen:
//  454             zclZHAtest_epDesc7.endPoint = 1;
//  455             zclZHAtest_epDesc7.task_id = &zha_project_TaskID;
//  456             zclZHAtest_epDesc7.simpleDesc
//  457                     = (SimpleDescriptionFormat_t *)&zclZHAtest_SimpleDesc7;
//  458             zclZHAtest_epDesc7.latencyReq = noLatencyReqs;
//  459             zclHA_Init(&zclZHAtest_SimpleDesc7);
//  460             afRegister( &zclZHAtest_epDesc7 );  
//  461             zha_project_Smoke_Type = 0x0015;
//  462           break;
//  463         case lumin:
//  464             zclZHAtest_epDesc8.endPoint = 1;
//  465             zclZHAtest_epDesc8.task_id = &zha_project_TaskID;
//  466             zclZHAtest_epDesc8.simpleDesc
//  467                     = (SimpleDescriptionFormat_t *)&zclZHAtest_SimpleDesc8;
//  468             zclZHAtest_epDesc8.latencyReq = noLatencyReqs;
//  469             zclHA_Init(&zclZHAtest_SimpleDesc8);
//  470             afRegister( &zclZHAtest_epDesc8 ); 
//  471         break;
//  472         case slsensor:
//  473             zclZHAtest_epDesc9.endPoint = 1;
//  474             zclZHAtest_epDesc9.task_id = &zha_project_TaskID;
//  475             zclZHAtest_epDesc9.simpleDesc
//  476                     = (SimpleDescriptionFormat_t *)&zclZHAtest_SimpleDesc9;
//  477             zclZHAtest_epDesc9.latencyReq = noLatencyReqs; 
//  478             zclHA_Init(&zclZHAtest_SimpleDesc9);
//  479             afRegister( &zclZHAtest_epDesc9 );
//  480             zha_project_Smoke_Type = 0x0225;      
//  481           break;
//  482         case smoke:
//  483             zclZHAtest_epDesc10.endPoint = 1;
//  484             zclZHAtest_epDesc10.task_id = &zha_project_TaskID;
//  485             zclZHAtest_epDesc10.simpleDesc
//  486                     = (SimpleDescriptionFormat_t *)&zclZHAtest_SimpleDesc10;
//  487             zclZHAtest_epDesc10.latencyReq = noLatencyReqs;    
//  488             zclHA_Init(&zclZHAtest_SimpleDesc10); 
//  489             afRegister( &zclZHAtest_epDesc10 );          
//  490             zha_project_Smoke_Type = 0x0028;
//  491           break;
//  492         case watersen:
//  493             zclZHAtest_epDesc11.endPoint = 1;
//  494             zclZHAtest_epDesc11.task_id = &zha_project_TaskID;
//  495             zclZHAtest_epDesc11.simpleDesc
//  496                     = (SimpleDescriptionFormat_t *)&zclZHAtest_SimpleDesc11;
//  497             zclZHAtest_epDesc11.latencyReq = noLatencyReqs; 
//  498             zclHA_Init(&zclZHAtest_SimpleDesc11);
//  499             afRegister( &zclZHAtest_epDesc11 );
//  500             zha_project_Smoke_Type = 0x002a;
//  501           break;  
//  502         case cosensor:
//  503             zclZHAtest_epDesc10.endPoint = 1;
//  504             zclZHAtest_epDesc10.task_id = &zha_project_TaskID;
//  505             zclZHAtest_epDesc10.simpleDesc
//  506                     = (SimpleDescriptionFormat_t *)&zclZHAtest_SimpleDesc10;
//  507             zclZHAtest_epDesc10.latencyReq = noLatencyReqs;    
//  508             zclHA_Init(&zclZHAtest_SimpleDesc10); 
//  509             afRegister( &zclZHAtest_epDesc10 );          
//  510             zha_project_Smoke_Type = 0x0227;
//  511             break; 
//  512         case gassensor:
//  513             zclZHAtest_epDesc10.endPoint = 1;
//  514             zclZHAtest_epDesc10.task_id = &zha_project_TaskID;
//  515             zclZHAtest_epDesc10.simpleDesc
//  516                     = (SimpleDescriptionFormat_t *)&zclZHAtest_SimpleDesc10;
//  517             zclZHAtest_epDesc10.latencyReq = noLatencyReqs;    
//  518             zclHA_Init(&zclZHAtest_SimpleDesc10); 
//  519             afRegister( &zclZHAtest_epDesc10 );          
//  520             zha_project_Smoke_Type = 0x002B;
//  521             break;
//  522         case glasssen:
//  523             zclZHAtest_epDesc10.endPoint = 1;
//  524             zclZHAtest_epDesc10.task_id = &zha_project_TaskID;
//  525             zclZHAtest_epDesc10.simpleDesc
//  526                     = (SimpleDescriptionFormat_t *)&zclZHAtest_SimpleDesc10;
//  527             zclZHAtest_epDesc10.latencyReq = noLatencyReqs;    
//  528             zclHA_Init(&zclZHAtest_SimpleDesc10); 
//  529             afRegister( &zclZHAtest_epDesc10 );          
//  530             zha_project_Smoke_Type = 0x0226;
//  531             break;
//  532         case zonectrl:
//  533             zclZHAtest_epDesc10.endPoint = 1;
//  534             zclZHAtest_epDesc10.task_id = &zha_project_TaskID;
//  535             zclZHAtest_epDesc10.simpleDesc
//  536                     = (SimpleDescriptionFormat_t *)&zclZHAtest_SimpleDesc10;
//  537             zclZHAtest_epDesc10.latencyReq = noLatencyReqs;    
//  538             zclHA_Init(&zclZHAtest_SimpleDesc10); 
//  539             afRegister( &zclZHAtest_epDesc10 );          
//  540             zha_project_Smoke_Type = 0x0115;
//  541             break;
//  542         case lightswitch:
//  543             zclZHAtest_epDesc12.endPoint = 1;
//  544             zclZHAtest_epDesc12.task_id = &zha_project_TaskID;
//  545             zclZHAtest_epDesc12.simpleDesc
//  546                     = (SimpleDescriptionFormat_t *)&zclZHAtest_SimpleDesc12;
//  547             zclZHAtest_epDesc12.latencyReq = noLatencyReqs;    
//  548             zclHA_Init(&zclZHAtest_SimpleDesc12); 
//  549             afRegister( &zclZHAtest_epDesc12 );        
//  550             break;
//  551         case outlet:
//  552             zclZHAtest_epDesc14.endPoint = 1;
//  553             zclZHAtest_epDesc14.task_id = &zha_project_TaskID;
//  554             zclZHAtest_epDesc14.simpleDesc
//  555                     = (SimpleDescriptionFormat_t *)&zclZHAtest_SimpleDesc14;
//  556             zclZHAtest_epDesc14.latencyReq = noLatencyReqs;    
//  557             zclHA_Init(&zclZHAtest_SimpleDesc14); 
//  558             afRegister( &zclZHAtest_epDesc14 ); 
//  559             break;
//  560       
//  561             
//  562         default:
//  563          break;    
//  564     
//  565     }
//  566 #endif 
//  567     // Register the ZCL General Cluster Library callback functions
//  568   zclGeneral_RegisterCmdCallbacks( SAMPLELIGHT_ENDPOINT, &zha_project_CmdCallbacks );
        ; Setup parameters for call to function zclGeneral_RegisterCmdCallbacks
        MOV     R2,#zha_project_CmdCallbacks & 0xff
        MOV     R3,#(zha_project_CmdCallbacks >> 8) & 0xff
        MOV     R1,#0x1
        LCALL   `??zclGeneral_RegisterCmdCallbacks::?relay`; Banked call to: zclGeneral_RegisterCmdCallbacks
//  569 
//  570   // Register the application's attribute list
//  571   zcl_registerAttrList( SAMPLELIGHT_ENDPOINT, zha_project_NumAttributes, zha_project_Attrs );
        ; Setup parameters for call to function zcl_registerAttrList
        MOV     R4,#zha_project_Attrs & 0xff
        MOV     R5,#(zha_project_Attrs >> 8) & 0xff
        MOV     DPTR,#zha_project_NumAttributes
        CLR     A
        MOVC    A,@A+DPTR
        MOV     R2,A
        MOV     R1,#0x1
        LCALL   `??zcl_registerAttrList::?relay`; Banked call to: zcl_registerAttrList
//  572 
//  573   // Register the Application to receive the unprocessed Foundation command/response messages
//  574   zcl_registerForMsg( zha_project_TaskID );
        ; Setup parameters for call to function zcl_registerForMsg
        MOV     DPTR,#zha_project_TaskID
        MOVX    A,@DPTR
        MOV     R1,A
        LCALL   `??zcl_registerForMsg::?relay`; Banked call to: zcl_registerForMsg
//  575 
//  576 #ifdef ZCL_DISCOVER
//  577   // Register the application's command list
//  578   zcl_registerCmdList( SAMPLELIGHT_ENDPOINT, zclCmdsArraySize, zha_project_Cmds );
//  579 #endif
//  580 
//  581   // Register for all key events - This app will handle all key events
//  582   RegisterForKeys( zha_project_TaskID );
        ; Setup parameters for call to function RegisterForKeys
        MOV     DPTR,#zha_project_TaskID
        MOVX    A,@DPTR
        MOV     R1,A
        LCALL   `??RegisterForKeys::?relay`; Banked call to: RegisterForKeys
//  583 
//  584   // Register for a test endpoint
//  585   afRegister( &sampleLight_TestEp );
        ; Setup parameters for call to function afRegister
        MOV     R2,#sampleLight_TestEp & 0xff
        MOV     R3,#(sampleLight_TestEp >> 8) & 0xff
        LCALL   `??afRegister::?relay`; Banked call to: afRegister
//  586 
//  587 #ifdef ZCL_EZMODE
//  588   // Register EZ-Mode
//  589   //zcl_RegisterEZMode( &zha_project_RegisterEZModeData );
//  590 
//  591   // Register with the ZDO to receive Match Descriptor Responses
//  592     ZDO_RegisterForZDOMsg( task_id, End_Device_Bind_rsp );
        ; Setup parameters for call to function ZDO_RegisterForZDOMsg
        MOV     R2,#0x20
        MOV     R3,#-0x80
        MOV     A,R6
        MOV     R1,A
        LCALL   `??ZDO_RegisterForZDOMsg::?relay`; Banked call to: ZDO_RegisterForZDOMsg
//  593     ZDO_RegisterForZDOMsg( task_id, Match_Desc_rsp );
        ; Setup parameters for call to function ZDO_RegisterForZDOMsg
        MOV     R2,#0x6
        MOV     R3,#-0x80
        MOV     A,R6
        MOV     R1,A
        LCALL   `??ZDO_RegisterForZDOMsg::?relay`; Banked call to: ZDO_RegisterForZDOMsg
//  594     ZDO_RegisterForZDOMsg( task_id, Active_EP_rsp );
        ; Setup parameters for call to function ZDO_RegisterForZDOMsg
        MOV     R2,#0x5
        MOV     R3,#-0x80
        MOV     A,R6
        MOV     R1,A
        LCALL   `??ZDO_RegisterForZDOMsg::?relay`; Banked call to: ZDO_RegisterForZDOMsg
//  595     ZDO_RegisterForZDOMsg( task_id, Simple_Desc_rsp );
        ; Setup parameters for call to function ZDO_RegisterForZDOMsg
        MOV     R2,#0x4
        MOV     R3,#-0x80
        MOV     A,R6
        MOV     R1,A
        LCALL   `??ZDO_RegisterForZDOMsg::?relay`; Banked call to: ZDO_RegisterForZDOMsg
//  596     ZDO_RegisterForZDOMsg( task_id, Device_annce );
        ; Setup parameters for call to function ZDO_RegisterForZDOMsg
        MOV     R2,#0x13
        MOV     R3,#0x0
        MOV     A,R6
        MOV     R1,A
        LCALL   `??ZDO_RegisterForZDOMsg::?relay`; Banked call to: ZDO_RegisterForZDOMsg
//  597 #endif
//  598 
//  599 
//  600 #ifdef ZCL_DIAGNOSTIC
//  601   // Register the application's callback function to read/write attribute data.
//  602   // This is only required when the attribute data format is unknown to ZCL.
//  603   zcl_registerReadWriteCB( SAMPLELIGHT_ENDPOINT, zclDiagnostic_ReadWriteAttrCB, NULL );
        ; Setup parameters for call to function zcl_registerReadWriteCB
        MOV     R4,#0x0
        MOV     R5,#0x0
        MOV     R2,#`??zclDiagnostic_ReadWriteAttrCB::?relay` & 0xff
        MOV     R3,#(`??zclDiagnostic_ReadWriteAttrCB::?relay` >> 8) & 0xff
        MOV     R1,#0x1
        LCALL   `??zcl_registerReadWriteCB::?relay`; Banked call to: zcl_registerReadWriteCB
//  604 
//  605   if ( zclDiagnostic_InitStats() == ZSuccess )
        ; Setup parameters for call to function zclDiagnostic_InitStats
        LCALL   `??zclDiagnostic_InitStats::?relay`; Banked call to: zclDiagnostic_InitStats
//  606   {
//  607     // Here the user could start the timer to save Diagnostics to NV
//  608   }
//  609 #endif
//  610 
//  611 #ifdef LCD_SUPPORTED
//  612   HalLcdWriteString ( (char *)sDeviceName, HAL_LCD_LINE_3 );
//  613 #endif  // LCD_SUPPORTED
//  614 
//  615   //osal_start_reload_timer(task_id,DEVICE_STATUS_EVT,8000);
//  616 #if ZG_BUILD_ENDDEVICE_TYPE
//  617   osal_start_reload_timer(task_id,SEND_REPORT_EVT,5000);
//  618 #endif
//  619   
//  620 #ifdef ZGP_AUTO_TT
//  621   zgpTranslationTable_RegisterEP ( &zha_project_SimpleDesc );
//  622 #endif
//  623 }
        MOV     R7,#0x1
        LJMP    ?BANKED_LEAVE_XDATA
          CFI EndBlock cfiBlock0
//  624 
//  625 /*********************************************************************
//  626  * @fn          zclSample_event_loop
//  627  *
//  628  * @brief       Event Loop Processor for zclGeneral.
//  629  *
//  630  * @param       none
//  631  *
//  632  * @return      none
//  633  */

        RSEG BANKED_CODE:CODE:NOROOT(0)
//  634 uint16 zha_project_event_loop( uint8 task_id, uint16 events )
zha_project_event_loop:
          CFI Block cfiBlock1 Using cfiCommon0
          CFI Function zha_project_event_loop
        CODE
//  635 {
        FUNCALL zha_project_event_loop, zcl_SendRead
        LOCFRAME ISTACK, 0, STACK
        LOCFRAME PSTACK, 0, STACK
        LOCFRAME XSTACK, 70, STACK
        LOCFRAME IOVERLAY, 0, STATIC
        LOCFRAME DOVERLAY, 0, STATIC
        ARGFRAME ISTACK, 0, STACK
        ARGFRAME PSTACK, 0, STACK
        ARGFRAME XSTACK, 70, STACK
        ARGFRAME IOVERLAY, 0, STATIC
        ARGFRAME DOVERLAY, 0, STATIC
        FUNCALL zha_project_event_loop, zcl_SendRead
        LOCFRAME ISTACK, 0, STACK
        LOCFRAME PSTACK, 0, STACK
        LOCFRAME XSTACK, 70, STACK
        LOCFRAME IOVERLAY, 0, STATIC
        LOCFRAME DOVERLAY, 0, STATIC
        ARGFRAME ISTACK, 0, STACK
        ARGFRAME PSTACK, 0, STACK
        ARGFRAME XSTACK, 70, STACK
        ARGFRAME IOVERLAY, 0, STATIC
        ARGFRAME DOVERLAY, 0, STATIC
        FUNCALL zha_project_event_loop, zcl_SendRead
        LOCFRAME ISTACK, 0, STACK
        LOCFRAME PSTACK, 0, STACK
        LOCFRAME XSTACK, 70, STACK
        LOCFRAME IOVERLAY, 0, STATIC
        LOCFRAME DOVERLAY, 0, STATIC
        ARGFRAME ISTACK, 0, STACK
        ARGFRAME PSTACK, 0, STACK
        ARGFRAME XSTACK, 70, STACK
        ARGFRAME IOVERLAY, 0, STATIC
        ARGFRAME DOVERLAY, 0, STATIC
        FUNCALL zha_project_event_loop, ZDP_NWKAddrOfInterestReq
        LOCFRAME ISTACK, 0, STACK
        LOCFRAME PSTACK, 0, STACK
        LOCFRAME XSTACK, 66, STACK
        LOCFRAME IOVERLAY, 0, STATIC
        LOCFRAME DOVERLAY, 0, STATIC
        ARGFRAME ISTACK, 0, STACK
        ARGFRAME PSTACK, 0, STACK
        ARGFRAME XSTACK, 66, STACK
        ARGFRAME IOVERLAY, 0, STATIC
        ARGFRAME DOVERLAY, 0, STATIC
        FUNCALL zha_project_event_loop, NLME_PermitJoiningRequest
        LOCFRAME ISTACK, 0, STACK
        LOCFRAME PSTACK, 0, STACK
        LOCFRAME XSTACK, 65, STACK
        LOCFRAME IOVERLAY, 0, STATIC
        LOCFRAME DOVERLAY, 0, STATIC
        ARGFRAME ISTACK, 0, STACK
        ARGFRAME PSTACK, 0, STACK
        ARGFRAME XSTACK, 65, STACK
        ARGFRAME IOVERLAY, 0, STATIC
        ARGFRAME DOVERLAY, 0, STATIC
        FUNCALL zha_project_event_loop, osal_msg_deallocate
        LOCFRAME ISTACK, 0, STACK
        LOCFRAME PSTACK, 0, STACK
        LOCFRAME XSTACK, 65, STACK
        LOCFRAME IOVERLAY, 0, STATIC
        LOCFRAME DOVERLAY, 0, STATIC
        ARGFRAME ISTACK, 0, STACK
        ARGFRAME PSTACK, 0, STACK
        ARGFRAME XSTACK, 65, STACK
        ARGFRAME IOVERLAY, 0, STATIC
        ARGFRAME DOVERLAY, 0, STATIC
        FUNCALL zha_project_event_loop, osal_msg_receive
        LOCFRAME ISTACK, 0, STACK
        LOCFRAME PSTACK, 0, STACK
        LOCFRAME XSTACK, 65, STACK
        LOCFRAME IOVERLAY, 0, STATIC
        LOCFRAME DOVERLAY, 0, STATIC
        ARGFRAME ISTACK, 0, STACK
        ARGFRAME PSTACK, 0, STACK
        ARGFRAME XSTACK, 65, STACK
        ARGFRAME IOVERLAY, 0, STATIC
        ARGFRAME DOVERLAY, 0, STATIC
        FUNCALL zha_project_event_loop, zha_project_ProcessZDOMsgs
        LOCFRAME ISTACK, 0, STACK
        LOCFRAME PSTACK, 0, STACK
        LOCFRAME XSTACK, 65, STACK
        LOCFRAME IOVERLAY, 0, STATIC
        LOCFRAME DOVERLAY, 0, STATIC
        ARGFRAME ISTACK, 0, STACK
        ARGFRAME PSTACK, 0, STACK
        ARGFRAME XSTACK, 65, STACK
        ARGFRAME IOVERLAY, 0, STATIC
        ARGFRAME DOVERLAY, 0, STATIC
        FUNCALL zha_project_event_loop, zha_project_ProcessInReportCmd
        LOCFRAME ISTACK, 0, STACK
        LOCFRAME PSTACK, 0, STACK
        LOCFRAME XSTACK, 65, STACK
        LOCFRAME IOVERLAY, 0, STATIC
        LOCFRAME DOVERLAY, 0, STATIC
        ARGFRAME ISTACK, 0, STACK
        ARGFRAME PSTACK, 0, STACK
        ARGFRAME XSTACK, 65, STACK
        ARGFRAME IOVERLAY, 0, STATIC
        ARGFRAME DOVERLAY, 0, STATIC
        FUNCALL zha_project_event_loop, zha_project_ProcessInReadRspCmd
        LOCFRAME ISTACK, 0, STACK
        LOCFRAME PSTACK, 0, STACK
        LOCFRAME XSTACK, 65, STACK
        LOCFRAME IOVERLAY, 0, STATIC
        LOCFRAME DOVERLAY, 0, STATIC
        ARGFRAME ISTACK, 0, STACK
        ARGFRAME PSTACK, 0, STACK
        ARGFRAME XSTACK, 65, STACK
        ARGFRAME IOVERLAY, 0, STATIC
        ARGFRAME DOVERLAY, 0, STATIC
        FUNCALL zha_project_event_loop, osal_mem_free
        LOCFRAME ISTACK, 0, STACK
        LOCFRAME PSTACK, 0, STACK
        LOCFRAME XSTACK, 65, STACK
        LOCFRAME IOVERLAY, 0, STATIC
        LOCFRAME DOVERLAY, 0, STATIC
        ARGFRAME ISTACK, 0, STACK
        ARGFRAME PSTACK, 0, STACK
        ARGFRAME XSTACK, 65, STACK
        ARGFRAME IOVERLAY, 0, STATIC
        ARGFRAME DOVERLAY, 0, STATIC
        FUNCALL zha_project_event_loop, zha_project_HandleKeys
        LOCFRAME ISTACK, 0, STACK
        LOCFRAME PSTACK, 0, STACK
        LOCFRAME XSTACK, 65, STACK
        LOCFRAME IOVERLAY, 0, STATIC
        LOCFRAME DOVERLAY, 0, STATIC
        ARGFRAME ISTACK, 0, STACK
        ARGFRAME PSTACK, 0, STACK
        ARGFRAME XSTACK, 65, STACK
        ARGFRAME IOVERLAY, 0, STATIC
        ARGFRAME DOVERLAY, 0, STATIC
        FUNCALL zha_project_event_loop, zcl_ProcessMessageMSG
        LOCFRAME ISTACK, 0, STACK
        LOCFRAME PSTACK, 0, STACK
        LOCFRAME XSTACK, 65, STACK
        LOCFRAME IOVERLAY, 0, STATIC
        LOCFRAME DOVERLAY, 0, STATIC
        ARGFRAME ISTACK, 0, STACK
        ARGFRAME PSTACK, 0, STACK
        ARGFRAME XSTACK, 65, STACK
        ARGFRAME IOVERLAY, 0, STATIC
        ARGFRAME DOVERLAY, 0, STATIC
        FUNCALL zha_project_event_loop, ZDP_SimpleDescReq
        LOCFRAME ISTACK, 0, STACK
        LOCFRAME PSTACK, 0, STACK
        LOCFRAME XSTACK, 66, STACK
        LOCFRAME IOVERLAY, 0, STATIC
        LOCFRAME DOVERLAY, 0, STATIC
        ARGFRAME ISTACK, 0, STACK
        ARGFRAME PSTACK, 0, STACK
        ARGFRAME XSTACK, 66, STACK
        ARGFRAME IOVERLAY, 0, STATIC
        ARGFRAME DOVERLAY, 0, STATIC
        FUNCALL zha_project_event_loop, osal_memset
        LOCFRAME ISTACK, 0, STACK
        LOCFRAME PSTACK, 0, STACK
        LOCFRAME XSTACK, 65, STACK
        LOCFRAME IOVERLAY, 0, STATIC
        LOCFRAME DOVERLAY, 0, STATIC
        ARGFRAME ISTACK, 0, STACK
        ARGFRAME PSTACK, 0, STACK
        ARGFRAME XSTACK, 65, STACK
        ARGFRAME IOVERLAY, 0, STATIC
        ARGFRAME DOVERLAY, 0, STATIC
        FUNCALL zha_project_event_loop, ZDP_SimpleDescReq
        LOCFRAME ISTACK, 0, STACK
        LOCFRAME PSTACK, 0, STACK
        LOCFRAME XSTACK, 66, STACK
        LOCFRAME IOVERLAY, 0, STATIC
        LOCFRAME DOVERLAY, 0, STATIC
        ARGFRAME ISTACK, 0, STACK
        ARGFRAME PSTACK, 0, STACK
        ARGFRAME XSTACK, 66, STACK
        ARGFRAME IOVERLAY, 0, STATIC
        ARGFRAME DOVERLAY, 0, STATIC
        FUNCALL zha_project_event_loop, Onboard_soft_reset
        LOCFRAME ISTACK, 0, STACK
        LOCFRAME PSTACK, 0, STACK
        LOCFRAME XSTACK, 65, STACK
        LOCFRAME IOVERLAY, 0, STATIC
        LOCFRAME DOVERLAY, 0, STATIC
        ARGFRAME ISTACK, 0, STACK
        ARGFRAME PSTACK, 0, STACK
        ARGFRAME XSTACK, 65, STACK
        ARGFRAME IOVERLAY, 0, STATIC
        ARGFRAME DOVERLAY, 0, STATIC
        FUNCALL zha_project_event_loop, CheckDeviceStatus
        LOCFRAME ISTACK, 0, STACK
        LOCFRAME PSTACK, 0, STACK
        LOCFRAME XSTACK, 65, STACK
        LOCFRAME IOVERLAY, 0, STATIC
        LOCFRAME DOVERLAY, 0, STATIC
        ARGFRAME ISTACK, 0, STACK
        ARGFRAME PSTACK, 0, STACK
        ARGFRAME XSTACK, 65, STACK
        ARGFRAME IOVERLAY, 0, STATIC
        ARGFRAME DOVERLAY, 0, STATIC
        FUNCALL zha_project_event_loop, SendCommond
        LOCFRAME ISTACK, 0, STACK
        LOCFRAME PSTACK, 0, STACK
        LOCFRAME XSTACK, 65, STACK
        LOCFRAME IOVERLAY, 0, STATIC
        LOCFRAME DOVERLAY, 0, STATIC
        ARGFRAME ISTACK, 0, STACK
        ARGFRAME PSTACK, 0, STACK
        ARGFRAME XSTACK, 65, STACK
        ARGFRAME IOVERLAY, 0, STATIC
        ARGFRAME DOVERLAY, 0, STATIC
        REQUIRE ?V0
        REQUIRE ?V1
        REQUIRE ?V2
        REQUIRE ?V3
        MOV     A,#-0xc
        LCALL   ?BANKED_ENTER_XDATA
          CFI DPH0 load(1, XDATA, add(CFA_XSP16, literal(-1)))
          CFI DPL0 load(1, XDATA, add(CFA_XSP16, literal(-2)))
          CFI ?BRET_EXT load(1, XDATA, add(CFA_XSP16, literal(-3)))
          CFI ?RET_HIGH load(1, XDATA, add(CFA_XSP16, literal(-4)))
          CFI ?RET_LOW load(1, XDATA, add(CFA_XSP16, literal(-5)))
          CFI R7 load(1, XDATA, add(CFA_XSP16, literal(-6)))
          CFI V3 load(1, XDATA, add(CFA_XSP16, literal(-7)))
          CFI V2 load(1, XDATA, add(CFA_XSP16, literal(-8)))
          CFI V1 load(1, XDATA, add(CFA_XSP16, literal(-9)))
          CFI V0 load(1, XDATA, add(CFA_XSP16, literal(-10)))
          CFI VB load(1, XDATA, add(CFA_XSP16, literal(-11)))
          CFI R6 load(1, XDATA, add(CFA_XSP16, literal(-12)))
          CFI CFA_SP SP+0
          CFI CFA_XSP16 add(XSP16, 12)
        ; Saved register size: 12
        ; Auto size: 53
        MOV     A,#-0x35
        LCALL   ?ALLOC_XSTACK8
          CFI CFA_XSP16 add(XSP16, 65)
        MOV     A,R2
        MOV     R6,A
        MOV     A,R3
        MOV     R7,A
//  636   afIncomingMSGPacket_t *MSGpkt;
//  637 
//  638   (void)task_id;  // Intentionally unreferenced parameter
//  639 
//  640     if ( events & SYS_EVENT_MSG )
        ANL     A,#0x80
        JZ      $+5
        LJMP    ??zha_project_event_loop_0 & 0xFFFF
//  641     {
//  642         while ( (MSGpkt = (afIncomingMSGPacket_t *)osal_msg_receive( zha_project_TaskID )) )
//  643         {
//  644             switch ( MSGpkt->hdr.event )
//  645             {
//  646                 #ifdef ZCL_EZMODE
//  647                 case ZDO_CB_MSG:
//  648                     zha_project_ProcessZDOMsgs( (zdoIncomingMsg_t *)MSGpkt );
//  649                     break;
//  650                 #endif
//  651                 case ZCL_INCOMING_MSG:
//  652                 // Incoming ZCL Foundation command/response messages
//  653                     zha_project_ProcessIncomingMsg( (zclIncomingMsg_t *)MSGpkt );
//  654                     break;
//  655 
//  656                 case KEY_CHANGE:
//  657                     zha_project_HandleKeys( ((keyChange_t *)MSGpkt)->state, ((keyChange_t *)MSGpkt)->keys );
//  658                     break;
//  659                 case AF_INCOMING_MSG_CMD:
//  660                     zcl_ProcessMessageMSG(MSGpkt);
//  661 
//  662                     //ZHAtest_MessageMSGCB( MSGpkt );
//  663                     break;    
//  664                 
//  665 
//  666                 case ZDO_STATE_CHANGE:
//  667                     zha_project_NwkState = (devStates_t)(MSGpkt->hdr.status);
//  668          
//  669                     if(zha_project_NwkState == DEV_ZB_COORD)
//  670                     {
//  671                         netState = 1;
//  672                         NLME_PermitJoiningRequest(0);
//  673                     }
//  674                 break;
//  675 
//  676                 default:
//  677                     break;
//  678             }
//  679 
//  680           // Release the memory
//  681           osal_msg_deallocate( (uint8 *)MSGpkt );
//  682         }
//  683         return (events ^ SYS_EVENT_MSG);
//  684     }
//  685     if ( events & ZHA_ATTRIBUTE_REQ_EVT )
        MOV     A,R6
        ANL     A,#0x4
        JZ      ??zha_project_event_loop_1
//  686     {
//  687         uint8 i=0;
//  688         afAddrType_t  dscReqAddr;
//  689         dscReqAddr.addrMode=afAddr16Bit;
        MOV     A,#0x8
        LCALL   ?XSTACK_DISP0_8
        LCALL   ?Subroutine4 & 0xFFFF
//  690         dscReqAddr.addr.shortAddr=simpleDescReqAddr.addr.shortAddr;
//  691         dscReqAddr.endPoint=1;
??CrossCallReturnLabel_0:
        LCALL   ?XSTACK_DISP0_8
        MOV     A,#0x1
        MOVX    @DPTR,A
//  692         zclReadCmd_t BasicAttrsList;
//  693         BasicAttrsList.numAttr = 5;
        MOV     A,#0xc
        LCALL   ?XSTACK_DISP0_8
        MOV     A,#0x5
        MOVX    @DPTR,A
//  694         BasicAttrsList.attrID[0] = ATTRID_BASIC_ZCL_VERSION;
        MOV     A,#0xd
        LCALL   ?XSTACK_DISP0_8
        CLR     A
        MOVX    @DPTR,A
        INC     DPTR
        MOVX    @DPTR,A
//  695         BasicAttrsList.attrID[1] = ATTRID_BASIC_HW_VERSION;
        MOV     A,#0xf
        LCALL   ?XSTACK_DISP0_8
        MOV     A,#0x3
        MOVX    @DPTR,A
        INC     DPTR
        CLR     A
        MOVX    @DPTR,A
//  696         BasicAttrsList.attrID[2] = ATTRID_BASIC_MODEL_ID;
        MOV     A,#0x11
        LCALL   ?XSTACK_DISP0_8
        MOV     A,#0x5
        MOVX    @DPTR,A
        INC     DPTR
        CLR     A
        MOVX    @DPTR,A
//  697         BasicAttrsList.attrID[3] = ATTRID_BASIC_MANUFACTURER_NAME;
        MOV     A,#0x13
        LCALL   ?XSTACK_DISP0_8
        MOV     A,#0x4
        MOVX    @DPTR,A
        INC     DPTR
        CLR     A
        MOVX    @DPTR,A
//  698         //BasicAttrsList.attrID[5] = ATTRID_BASIC_DATE_CODE;
//  699         BasicAttrsList.attrID[4] = ATTRID_BASIC_POWER_SOURCE;
        MOV     A,#0x15
        LCALL   ?XSTACK_DISP0_8
        MOV     A,#0x7
        LCALL   ?Subroutine5 & 0xFFFF
//  700         zcl_SendRead( 1, &dscReqAddr,ZCL_CLUSTER_ID_GEN_BASIC, &BasicAttrsList,
//  701                     ZCL_FRAME_CLIENT_SERVER_DIR, 0, 0);
//  702         
//  703         //return ( events ^ ZHA_ATTRIBUTE_REQ_EVT );
//  704     }  
??CrossCallReturnLabel_3:
        LCALL   ?PUSH_XSTACK_I_ONE
          CFI CFA_XSP16 add(XSP16, 66)
        MOV     R0,#?V0
        LCALL   ?PUSH_XSTACK_I_ONE
          CFI CFA_XSP16 add(XSP16, 67)
        MOV     R0,#?V0
        LCALL   ?PUSH_XSTACK_I_ONE
          CFI CFA_XSP16 add(XSP16, 68)
        MOV     A,#0xf
        LCALL   ?XSTACK_DISP100_8
        MOV     ?V0,R0
        MOV     ?V1,R1
        MOV     R0,#?V0
        LCALL   ?PUSH_XSTACK_I_TWO
          CFI CFA_XSP16 add(XSP16, 70)
        MOV     R4,#0x0
        MOV     R5,#0x0
        MOV     A,#0x5
        LCALL   ?XSTACK_DISP101_8
        MOV     R1,#0x1
        LCALL   `??zcl_SendRead::?relay`; Banked call to: zcl_SendRead
        MOV     A,#0x5
        LCALL   ?DEALLOC_XSTACK8
          CFI CFA_XSP16 add(XSP16, 65)
//  705   
//  706     if(events & ZHA_ATTRIBUTE_POWER_EVT)
??zha_project_event_loop_1:
        MOV     A,R6
        ANL     A,#0x80
        JZ      ??zha_project_event_loop_2
//  707     {
//  708         afAddrType_t  dscReqAddr;
//  709         dscReqAddr.addrMode=afAddr16Bit;
        MOV     A,#0x8
        LCALL   ?XSTACK_DISP0_8
        LCALL   ?Subroutine4 & 0xFFFF
//  710         dscReqAddr.addr.shortAddr=simpleDescReqAddr.addr.shortAddr;
//  711         dscReqAddr.endPoint=1;
??CrossCallReturnLabel_1:
        LCALL   ?XSTACK_DISP0_8
        MOV     A,#0x1
        MOVX    @DPTR,A
//  712         zclReadCmd_t BasicAttrsList;
//  713         BasicAttrsList.numAttr = 2;
        MOV     A,#0xc
        LCALL   ?XSTACK_DISP0_8
        MOV     A,#0x2
        MOVX    @DPTR,A
//  714         BasicAttrsList.attrID[0] = ATTRID_POWER_CFG_BATTERY_VOLTAGE;
        MOV     A,#0xd
        LCALL   ?XSTACK_DISP0_8
        MOV     A,#0x20
        MOVX    @DPTR,A
        INC     DPTR
        CLR     A
        MOVX    @DPTR,A
//  715         BasicAttrsList.attrID[1] = 0x0021;
        MOV     A,#0xf
        LCALL   ?XSTACK_DISP0_8
        MOV     A,#0x21
        LCALL   ?Subroutine5 & 0xFFFF
//  716         zcl_SendRead( 1, &dscReqAddr,
//  717                     ZCL_CLUSTER_ID_GEN_POWER_CFG, &BasicAttrsList,
//  718                     ZCL_FRAME_CLIENT_SERVER_DIR, 0, 0);
//  719         //return ( events ^ ZHA_ATTRIBUTE_POWER_EVT );    
//  720     }
??CrossCallReturnLabel_4:
        LCALL   ?PUSH_XSTACK_I_ONE
          CFI CFA_XSP16 add(XSP16, 66)
        MOV     R0,#?V0
        LCALL   ?PUSH_XSTACK_I_ONE
          CFI CFA_XSP16 add(XSP16, 67)
        MOV     R0,#?V0
        LCALL   ?PUSH_XSTACK_I_ONE
          CFI CFA_XSP16 add(XSP16, 68)
        MOV     A,#0xf
        LCALL   ?XSTACK_DISP100_8
        MOV     ?V0,R0
        MOV     ?V1,R1
        MOV     R0,#?V0
        LCALL   ?PUSH_XSTACK_I_TWO
          CFI CFA_XSP16 add(XSP16, 70)
        MOV     R4,#0x1
        MOV     R5,#0x0
        MOV     A,#0x5
        LCALL   ?XSTACK_DISP101_8
        MOV     R1,#0x1
        LCALL   `??zcl_SendRead::?relay`; Banked call to: zcl_SendRead
        MOV     A,#0x5
        LCALL   ?DEALLOC_XSTACK8
          CFI CFA_XSP16 add(XSP16, 65)
//  721     if ( events & ZONE_TYPE_EVT )
??zha_project_event_loop_2:
        MOV     A,R6
        ANL     A,#0x20
        JZ      ??zha_project_event_loop_3
//  722     {
//  723         afAddrType_t  dscReqAddr;
//  724         dscReqAddr.addrMode=afAddr16Bit;
        MOV     A,#0x8
        LCALL   ?XSTACK_DISP0_8
        LCALL   ?Subroutine4 & 0xFFFF
//  725         dscReqAddr.addr.shortAddr=simpleDescReqAddr.addr.shortAddr;
//  726         dscReqAddr.endPoint=1;
??CrossCallReturnLabel_2:
        LCALL   ?XSTACK_DISP0_8
        MOV     A,#0x1
        MOVX    @DPTR,A
//  727         zclReadCmd_t BasicAttrsList;
//  728         BasicAttrsList.numAttr = 1;
        MOV     A,#0xc
        LCALL   ?XSTACK_DISP0_8
        MOV     A,#0x1
        MOVX    @DPTR,A
//  729         BasicAttrsList.attrID[0] = ATTRID_SS_IAS_ZONE_TYPE;
        MOV     A,#0xd
        LCALL   ?XSTACK_DISP0_8
        MOV     A,#0x1
        LCALL   ?Subroutine5 & 0xFFFF
//  730         zcl_SendRead( 1, &dscReqAddr,
//  731                     ZCL_CLUSTER_ID_SS_IAS_ZONE, &BasicAttrsList,
//  732                     ZCL_FRAME_CLIENT_SERVER_DIR, 0, 0); 
//  733         //return ( events ^ ZONE_TYPE_EVT );
//  734     } 
??CrossCallReturnLabel_5:
        LCALL   ?PUSH_XSTACK_I_ONE
          CFI CFA_XSP16 add(XSP16, 66)
        MOV     R0,#?V0
        LCALL   ?PUSH_XSTACK_I_ONE
          CFI CFA_XSP16 add(XSP16, 67)
        MOV     R0,#?V0
        LCALL   ?PUSH_XSTACK_I_ONE
          CFI CFA_XSP16 add(XSP16, 68)
        MOV     A,#0xf
        LCALL   ?XSTACK_DISP100_8
        MOV     ?V0,R0
        MOV     ?V1,R1
        MOV     R0,#?V0
        LCALL   ?PUSH_XSTACK_I_TWO
          CFI CFA_XSP16 add(XSP16, 70)
        MOV     R4,#0x0
        MOV     R5,#0x5
        MOV     A,R5
        LCALL   ?XSTACK_DISP101_8
        MOV     R1,#0x1
        LCALL   `??zcl_SendRead::?relay`; Banked call to: zcl_SendRead
        MOV     A,#0x5
        LCALL   ?DEALLOC_XSTACK8
          CFI CFA_XSP16 add(XSP16, 65)
//  735     if ( events & ZHA_ACTIVE_EP_EVT )
??zha_project_event_loop_3:
        MOV     A,R6
        ANL     A,#0x8
        JZ      ??zha_project_event_loop_4
//  736     {
//  737         ZDP_ActiveEPReq( &simpleDescReqAddr, simpleDescReqAddr.addr.shortAddr, 0);
        ; Setup parameters for call to function ZDP_NWKAddrOfInterestReq
        MOV     ?V0,#0x0
        MOV     R0,#?V0
        LCALL   ?PUSH_XSTACK_I_ONE
          CFI CFA_XSP16 add(XSP16, 66)
        MOV     R1,#0x5
        LCALL   ?Subroutine14 & 0xFFFF
//  738         //return ( events ^ ZHA_ACTIVE_EP_EVT );
//  739     }  
??CrossCallReturnLabel_34:
        LCALL   `??ZDP_NWKAddrOfInterestReq::?relay`; Banked call to: ZDP_NWKAddrOfInterestReq
        MOV     A,#0x1
        LCALL   ?DEALLOC_XSTACK8
          CFI CFA_XSP16 add(XSP16, 65)
//  740   
//  741   // event to get simple descriptor of the newly joined device
//  742     if ( events & SIMPLE_DESC_QUERY_EVT )
??zha_project_event_loop_4:
        MOV     A,R6
        ANL     A,#0x10
        JNZ     $+5
        LJMP    ??zha_project_event_loop_5 & 0xFFFF
//  743     {
//  744         uint8 i;
//  745         for(i=0;i<=zha_project_ActiveEP->cnt;i++)
        MOV     ?V0,#0x0
        LJMP    ??zha_project_event_loop_6 & 0xFFFF
??zha_project_event_loop_7:
        INC     DPTR
        MOVX    A,@DPTR
        MOV     DPTR,#zha_project_NwkState
        MOVX    @DPTR,A
        XRL     A,#0x9
        JNZ     ??zha_project_event_loop_8
        MOV     DPTR,#netState
        MOV     A,#0x1
        MOVX    @DPTR,A
        ; Setup parameters for call to function NLME_PermitJoiningRequest
        MOV     R1,#0x0
        LCALL   `??NLME_PermitJoiningRequest::?relay`; Banked call to: NLME_PermitJoiningRequest
??zha_project_event_loop_8:
        ; Setup parameters for call to function osal_msg_deallocate
        MOV     R2,?V0
        MOV     R3,?V1
        LCALL   `??osal_msg_deallocate::?relay`; Banked call to: osal_msg_deallocate
??zha_project_event_loop_0:
        ; Setup parameters for call to function osal_msg_receive
        MOV     DPTR,#zha_project_TaskID
        MOVX    A,@DPTR
        MOV     R1,A
        LCALL   `??osal_msg_receive::?relay`; Banked call to: osal_msg_receive
        MOV     ?V0,R2
        MOV     ?V1,R3
        MOV     A,R2
        ORL     A,?V1
        JNZ     $+5
        LJMP    ??zha_project_event_loop_9 & 0xFFFF
        MOV     DPL,R2
        MOV     DPH,R3
        MOVX    A,@DPTR
        ADD     A,#-0x1a
        JZ      ??zha_project_event_loop_10
        ADD     A,#-0x1a
        JZ      ??zha_project_event_loop_11
        ADD     A,#0x74
        JZ      ??zha_project_event_loop_12
        ADD     A,#-0x11
        JZ      ??zha_project_event_loop_7
        ADD     A,#-0x2
        JNZ     ??zha_project_event_loop_8
        ; Setup parameters for call to function zha_project_ProcessZDOMsgs
        LCALL   `??zha_project_ProcessZDOMsgs::?relay`; Banked call to: zha_project_ProcessZDOMsgs
        SJMP    ??zha_project_event_loop_8
??zha_project_event_loop_11:
        MOV     A,R2
        ADD     A,#0x17
        MOV     R0,A
        CLR     A
        ADDC    A,?V1
        MOV     R1,A
        MOV     ?V2,R0
        MOV     ?V3,R1
        INC     DPTR
        INC     DPTR
        INC     DPTR
        INC     DPTR
        INC     DPTR
        INC     DPTR
        INC     DPTR
        MOVX    A,@DPTR
        DEC     A
        JZ      ??zha_project_event_loop_13
        ADD     A,#-0x3
        JZ      ??zha_project_event_loop_14
        ADD     A,#-0x6
        JNZ     ??zha_project_event_loop_15
        ; Setup parameters for call to function zha_project_ProcessInReportCmd
        LCALL   `??zha_project_ProcessInReportCmd::?relay`; Banked call to: zha_project_ProcessInReportCmd
        SJMP    ??zha_project_event_loop_15
??zha_project_event_loop_14:
        MOV     DPL,R0
        MOV     DPH,R1
        LCALL   ??Subroutine46_0 & 0xFFFF
??CrossCallReturnLabel_130:
        MOV     DPL,R0
        MOV     DPH,R1
        MOV     R0,#0x0
??zha_project_event_loop_16:
        MOVX    A,@DPTR
        MOV     R1,A
        MOV     A,R0
        CLR     C
        SUBB    A,R1
        JNC     ??zha_project_event_loop_15
        INC     R0
        SJMP    ??zha_project_event_loop_16
??zha_project_event_loop_13:
        ; Setup parameters for call to function zha_project_ProcessInReadRspCmd
        LCALL   `??zha_project_ProcessInReadRspCmd::?relay`; Banked call to: zha_project_ProcessInReadRspCmd
??zha_project_event_loop_15:
        LCALL   ?Subroutine18 & 0xFFFF
??CrossCallReturnLabel_62:
        JZ      ??zha_project_event_loop_8
        ; Setup parameters for call to function osal_mem_free
        LCALL   `??osal_mem_free::?relay`; Banked call to: osal_mem_free
        LJMP    ??zha_project_event_loop_8 & 0xFFFF
??zha_project_event_loop_12:
        ; Setup parameters for call to function zha_project_HandleKeys
        INC     DPTR
        INC     DPTR
        INC     DPTR
        MOVX    A,@DPTR
        MOV     R2,A
        MOV     DPL,?V0
        MOV     DPH,R3
        INC     DPTR
        INC     DPTR
        MOVX    A,@DPTR
        MOV     R1,A
        LCALL   `??zha_project_HandleKeys::?relay`; Banked call to: zha_project_HandleKeys
        LJMP    ??zha_project_event_loop_8 & 0xFFFF
??zha_project_event_loop_10:
        ; Setup parameters for call to function zcl_ProcessMessageMSG
        LCALL   `??zcl_ProcessMessageMSG::?relay`; Banked call to: zcl_ProcessMessageMSG
        LJMP    ??zha_project_event_loop_8 & 0xFFFF
??zha_project_event_loop_9:
        MOV     A,R6
        MOV     R2,A
        MOV     A,R7
        XRL     A,#0x80
        LJMP    ??zha_project_event_loop_17 & 0xFFFF
//  746         {
//  747             if(ep[i]!=0)
??zha_project_event_loop_18:
        MOV     R0,?V0
        MOV     A,#ep & 0xff
        ADD     A,R0
        MOV     DPL,A
        CLR     A
        ADDC    A,#(ep >> 8) & 0xff
        MOV     DPH,A
        MOVX    A,@DPTR
        MOV     R1,A
        JZ      ??zha_project_event_loop_19
//  748             {
//  749                   ZDP_SimpleDescReq( &simpleDescReqAddr, simpleDescReqAddr.addr.shortAddr,
//  750                             ep[i], 0);
        ; Setup parameters for call to function ZDP_SimpleDescReq
        MOV     ?V1,#0x0
        MOV     R0,#?V1
        LCALL   ?PUSH_XSTACK_I_ONE
          CFI CFA_XSP16 add(XSP16, 66)
        LCALL   ?Subroutine14 & 0xFFFF
//  751             }
//  752         }
??CrossCallReturnLabel_35:
        LCALL   `??ZDP_SimpleDescReq::?relay`; Banked call to: ZDP_SimpleDescReq
        MOV     A,#0x1
        LCALL   ?DEALLOC_XSTACK8
          CFI CFA_XSP16 add(XSP16, 65)
??zha_project_event_loop_19:
        INC     ?V0
??zha_project_event_loop_6:
        MOV     DPTR,#zha_project_ActiveEP
        LCALL   ?Subroutine22 & 0xFFFF
??CrossCallReturnLabel_45:
        INC     DPTR
        INC     DPTR
        INC     DPTR
        MOVX    A,@DPTR
        CLR     C
        SUBB    A,?V0
        JNC     ??zha_project_event_loop_18
//  753         osal_memset(ep,0,sizeof(ep));
        ; Setup parameters for call to function osal_memset
        MOV     R4,#0x5
        MOV     R5,#0x0
        MOV     R1,#0x0
        MOV     R2,#ep & 0xff
        MOV     R3,#(ep >> 8) & 0xff
        LCALL   `??osal_memset::?relay`; Banked call to: osal_memset
//  754         //return ( events ^ SIMPLE_DESC_QUERY_EVT );
//  755     }
//  756 
//  757   // handle processing of timeout event triggered by request fast polling command
//  758 
//  759     if ( events & SIMPLE_DESC_EVT )
??zha_project_event_loop_5:
        MOV     A,R6
        ANL     A,#0x40
        JZ      ??zha_project_event_loop_20
//  760     {
//  761         ZDP_SimpleDescReq( &simpleDescReqAddr, simpleDescReqAddr.addr.shortAddr,1, 0);
        ; Setup parameters for call to function ZDP_SimpleDescReq
        MOV     ?V0,#0x0
        MOV     R0,#?V0
        LCALL   ?PUSH_XSTACK_I_ONE
          CFI CFA_XSP16 add(XSP16, 66)
        MOV     R1,#0x1
        LCALL   ?Subroutine14 & 0xFFFF
//  762         //return ( events ^ SIMPLE_DESC_QUERY_EVT );
//  763     }
??CrossCallReturnLabel_36:
        LCALL   `??ZDP_SimpleDescReq::?relay`; Banked call to: ZDP_SimpleDescReq
        MOV     A,#0x1
        LCALL   ?DEALLOC_XSTACK8
          CFI CFA_XSP16 add(XSP16, 65)
//  764     if ( events & RESET_EVT )
??zha_project_event_loop_20:
        MOV     A,R7
        ANL     A,#0x2
        JZ      ??zha_project_event_loop_21
//  765     {
//  766         Onboard_soft_reset();
        ; Setup parameters for call to function Onboard_soft_reset
        LCALL   Onboard_soft_reset & 0xFFFF
//  767         return ( events ^ RESET_EVT );
        MOV     A,R6
        MOV     R2,A
        MOV     A,R7
        XRL     A,#0x2
        SJMP    ??zha_project_event_loop_17
//  768     }  
//  769 #if ZG_BUILD_COORDINATOR_TYPE    
//  770      if ( events & DEVICE_STATUS_EVT )
??zha_project_event_loop_21:
        MOV     A,R7
        ANL     A,#0x1
        JZ      ??zha_project_event_loop_22
//  771     {
//  772         CheckDeviceStatus();
        ; Setup parameters for call to function CheckDeviceStatus
        LCALL   `??CheckDeviceStatus::?relay`; Banked call to: CheckDeviceStatus
//  773         return ( events ^ DEVICE_STATUS_EVT ); 
        MOV     A,R6
        MOV     R2,A
        MOV     A,R7
        XRL     A,#0x1
        SJMP    ??zha_project_event_loop_17
//  774     }
//  775      if ( events & SET_DEVICE_STATE_EVT )
??zha_project_event_loop_22:
        MOV     A,R7
        ANL     A,#0x4
        JZ      ??zha_project_event_loop_23
//  776     {
//  777         SendCommond();
        ; Setup parameters for call to function SendCommond
        LCALL   `??SendCommond::?relay`; Banked call to: SendCommond
//  778         return ( events ^ SET_DEVICE_STATE_EVT ); 
        MOV     A,R6
        MOV     R2,A
        MOV     A,R7
        XRL     A,#0x4
??zha_project_event_loop_17:
        MOV     R3,A
        SJMP    ??zha_project_event_loop_24
//  779     }
//  780 #if ZG_BUILD_ENDDEVICE_TYPE    
//  781     if ( events & SEND_REPORT_EVT )
//  782     {
//  783         sendReport();
//  784         return ( events ^ SEND_REPORT_EVT );
//  785     } 
//  786 #endif
//  787 
//  788 #endif    
//  789   // Discard unknown events
//  790   return 0;
??zha_project_event_loop_23:
        MOV     R2,#0x0
        MOV     R3,#0x0
??zha_project_event_loop_24:
        MOV     A,#0x35
        LCALL   ?DEALLOC_XSTACK8
          CFI CFA_XSP16 add(XSP16, 12)
        MOV     R7,#0x4
        LJMP    ?BANKED_LEAVE_XDATA
//  791 }
          CFI EndBlock cfiBlock1

        RSEG BANKED_CODE:CODE:NOROOT(0)
?Subroutine18:
          CFI Block cfiCond2 Using cfiCommon0
          CFI Function zha_project_event_loop
          CFI Conditional ??CrossCallReturnLabel_62
          CFI R6 load(1, XDATA, add(CFA_XSP16, literal(-12)))
          CFI VB load(1, XDATA, add(CFA_XSP16, literal(-11)))
          CFI V0 load(1, XDATA, add(CFA_XSP16, literal(-10)))
          CFI V1 load(1, XDATA, add(CFA_XSP16, literal(-9)))
          CFI V2 load(1, XDATA, add(CFA_XSP16, literal(-8)))
          CFI V3 load(1, XDATA, add(CFA_XSP16, literal(-7)))
          CFI R7 load(1, XDATA, add(CFA_XSP16, literal(-6)))
          CFI ?RET_LOW load(1, XDATA, add(CFA_XSP16, literal(-5)))
          CFI ?RET_HIGH load(1, XDATA, add(CFA_XSP16, literal(-4)))
          CFI ?BRET_EXT load(1, XDATA, add(CFA_XSP16, literal(-3)))
          CFI DPL0 load(1, XDATA, add(CFA_XSP16, literal(-2)))
          CFI DPH0 load(1, XDATA, add(CFA_XSP16, literal(-1)))
          CFI CFA_SP SP+-2
          CFI CFA_XSP16 add(XSP16, 65)
          CFI Block cfiCond3 Using cfiCommon0
          CFI (cfiCond3) Function zha_project_ProcessZDOMsgs
          CFI (cfiCond3) Conditional ??CrossCallReturnLabel_63
          CFI (cfiCond3) R6 load(1, XDATA, add(CFA_XSP16, literal(-14)))
          CFI (cfiCond3) VB load(1, XDATA, add(CFA_XSP16, literal(-13)))
          CFI (cfiCond3) V0 load(1, XDATA, add(CFA_XSP16, literal(-12)))
          CFI (cfiCond3) V1 load(1, XDATA, add(CFA_XSP16, literal(-11)))
          CFI (cfiCond3) V2 load(1, XDATA, add(CFA_XSP16, literal(-10)))
          CFI (cfiCond3) V3 load(1, XDATA, add(CFA_XSP16, literal(-9)))
          CFI (cfiCond3) V4 load(1, XDATA, add(CFA_XSP16, literal(-8)))
          CFI (cfiCond3) V5 load(1, XDATA, add(CFA_XSP16, literal(-7)))
          CFI (cfiCond3) R7 load(1, XDATA, add(CFA_XSP16, literal(-6)))
          CFI (cfiCond3) ?RET_LOW load(1, XDATA, add(CFA_XSP16, literal(-5)))
          CFI (cfiCond3) ?RET_HIGH load(1, XDATA, add(CFA_XSP16, literal(-4)))
          CFI (cfiCond3) ?BRET_EXT load(1, XDATA, add(CFA_XSP16, literal(-3)))
          CFI (cfiCond3) DPL0 load(1, XDATA, add(CFA_XSP16, literal(-2)))
          CFI (cfiCond3) DPH0 load(1, XDATA, add(CFA_XSP16, literal(-1)))
          CFI (cfiCond3) CFA_SP SP+-2
          CFI (cfiCond3) CFA_XSP16 add(XSP16, 25)
          CFI Block cfiPicker4 Using cfiCommon1
          CFI (cfiPicker4) NoFunction
          CFI (cfiPicker4) Picker
        MOV     DPL,?V2
        MOV     DPH,?V3
          CFI EndBlock cfiCond2
          CFI EndBlock cfiCond3
          CFI EndBlock cfiPicker4
        REQUIRE ??Subroutine35_0
        ; // Fall through to label ??Subroutine35_0

        RSEG BANKED_CODE:CODE:NOROOT(0)
??Subroutine35_0:
          CFI Block cfiCond5 Using cfiCommon0
          CFI Function zha_project_ProcessZDOMsgs
          CFI Conditional ??CrossCallReturnLabel_61
          CFI R6 load(1, XDATA, add(CFA_XSP16, literal(-14)))
          CFI VB load(1, XDATA, add(CFA_XSP16, literal(-13)))
          CFI V0 load(1, XDATA, add(CFA_XSP16, literal(-12)))
          CFI V1 load(1, XDATA, add(CFA_XSP16, literal(-11)))
          CFI V2 load(1, XDATA, add(CFA_XSP16, literal(-10)))
          CFI V3 load(1, XDATA, add(CFA_XSP16, literal(-9)))
          CFI V4 load(1, XDATA, add(CFA_XSP16, literal(-8)))
          CFI V5 load(1, XDATA, add(CFA_XSP16, literal(-7)))
          CFI R7 load(1, XDATA, add(CFA_XSP16, literal(-6)))
          CFI ?RET_LOW load(1, XDATA, add(CFA_XSP16, literal(-5)))
          CFI ?RET_HIGH load(1, XDATA, add(CFA_XSP16, literal(-4)))
          CFI ?BRET_EXT load(1, XDATA, add(CFA_XSP16, literal(-3)))
          CFI DPL0 load(1, XDATA, add(CFA_XSP16, literal(-2)))
          CFI DPH0 load(1, XDATA, add(CFA_XSP16, literal(-1)))
          CFI CFA_SP SP+-2
          CFI CFA_XSP16 add(XSP16, 25)
          CFI Block cfiCond6 Using cfiCommon0
          CFI (cfiCond6) Function zha_project_event_loop
          CFI (cfiCond6) Conditional ??CrossCallReturnLabel_62
          CFI (cfiCond6) R6 load(1, XDATA, add(CFA_XSP16, literal(-12)))
          CFI (cfiCond6) VB load(1, XDATA, add(CFA_XSP16, literal(-11)))
          CFI (cfiCond6) V0 load(1, XDATA, add(CFA_XSP16, literal(-10)))
          CFI (cfiCond6) V1 load(1, XDATA, add(CFA_XSP16, literal(-9)))
          CFI (cfiCond6) V2 load(1, XDATA, add(CFA_XSP16, literal(-8)))
          CFI (cfiCond6) V3 load(1, XDATA, add(CFA_XSP16, literal(-7)))
          CFI (cfiCond6) R7 load(1, XDATA, add(CFA_XSP16, literal(-6)))
          CFI (cfiCond6) ?RET_LOW load(1, XDATA, add(CFA_XSP16, literal(-5)))
          CFI (cfiCond6) ?RET_HIGH load(1, XDATA, add(CFA_XSP16, literal(-4)))
          CFI (cfiCond6) ?BRET_EXT load(1, XDATA, add(CFA_XSP16, literal(-3)))
          CFI (cfiCond6) DPL0 load(1, XDATA, add(CFA_XSP16, literal(-2)))
          CFI (cfiCond6) DPH0 load(1, XDATA, add(CFA_XSP16, literal(-1)))
          CFI (cfiCond6) CFA_SP SP+-2
          CFI (cfiCond6) CFA_XSP16 add(XSP16, 65)
          CFI Block cfiCond7 Using cfiCommon0
          CFI (cfiCond7) Function zha_project_ProcessZDOMsgs
          CFI (cfiCond7) Conditional ??CrossCallReturnLabel_63
          CFI (cfiCond7) R6 load(1, XDATA, add(CFA_XSP16, literal(-14)))
          CFI (cfiCond7) VB load(1, XDATA, add(CFA_XSP16, literal(-13)))
          CFI (cfiCond7) V0 load(1, XDATA, add(CFA_XSP16, literal(-12)))
          CFI (cfiCond7) V1 load(1, XDATA, add(CFA_XSP16, literal(-11)))
          CFI (cfiCond7) V2 load(1, XDATA, add(CFA_XSP16, literal(-10)))
          CFI (cfiCond7) V3 load(1, XDATA, add(CFA_XSP16, literal(-9)))
          CFI (cfiCond7) V4 load(1, XDATA, add(CFA_XSP16, literal(-8)))
          CFI (cfiCond7) V5 load(1, XDATA, add(CFA_XSP16, literal(-7)))
          CFI (cfiCond7) R7 load(1, XDATA, add(CFA_XSP16, literal(-6)))
          CFI (cfiCond7) ?RET_LOW load(1, XDATA, add(CFA_XSP16, literal(-5)))
          CFI (cfiCond7) ?RET_HIGH load(1, XDATA, add(CFA_XSP16, literal(-4)))
          CFI (cfiCond7) ?BRET_EXT load(1, XDATA, add(CFA_XSP16, literal(-3)))
          CFI (cfiCond7) DPL0 load(1, XDATA, add(CFA_XSP16, literal(-2)))
          CFI (cfiCond7) DPH0 load(1, XDATA, add(CFA_XSP16, literal(-1)))
          CFI (cfiCond7) CFA_SP SP+-2
          CFI (cfiCond7) CFA_XSP16 add(XSP16, 25)
          CFI Block cfiPicker8 Using cfiCommon1
          CFI (cfiPicker8) NoFunction
          CFI (cfiPicker8) Picker
        LCALL   ??Subroutine43_0 & 0xFFFF
??CrossCallReturnLabel_125:
        MOV     A,R2
        ORL     A,R3
        RET
          CFI EndBlock cfiCond5
          CFI EndBlock cfiCond6
          CFI EndBlock cfiCond7
          CFI EndBlock cfiPicker8

        RSEG BANKED_CODE:CODE:NOROOT(0)
?Subroutine14:
          CFI Block cfiCond9 Using cfiCommon0
          CFI Function zha_project_event_loop
          CFI Conditional ??CrossCallReturnLabel_34
          CFI R6 load(1, XDATA, add(CFA_XSP16, literal(-12)))
          CFI VB load(1, XDATA, add(CFA_XSP16, literal(-11)))
          CFI V0 load(1, XDATA, add(CFA_XSP16, literal(-10)))
          CFI V1 load(1, XDATA, add(CFA_XSP16, literal(-9)))
          CFI V2 load(1, XDATA, add(CFA_XSP16, literal(-8)))
          CFI V3 load(1, XDATA, add(CFA_XSP16, literal(-7)))
          CFI R7 load(1, XDATA, add(CFA_XSP16, literal(-6)))
          CFI ?RET_LOW load(1, XDATA, add(CFA_XSP16, literal(-5)))
          CFI ?RET_HIGH load(1, XDATA, add(CFA_XSP16, literal(-4)))
          CFI ?BRET_EXT load(1, XDATA, add(CFA_XSP16, literal(-3)))
          CFI DPL0 load(1, XDATA, add(CFA_XSP16, literal(-2)))
          CFI DPH0 load(1, XDATA, add(CFA_XSP16, literal(-1)))
          CFI CFA_SP SP+-2
          CFI CFA_XSP16 add(XSP16, 66)
          CFI Block cfiCond10 Using cfiCommon0
          CFI (cfiCond10) Function zha_project_event_loop
          CFI (cfiCond10) Conditional ??CrossCallReturnLabel_35
          CFI (cfiCond10) R6 load(1, XDATA, add(CFA_XSP16, literal(-12)))
          CFI (cfiCond10) VB load(1, XDATA, add(CFA_XSP16, literal(-11)))
          CFI (cfiCond10) V0 load(1, XDATA, add(CFA_XSP16, literal(-10)))
          CFI (cfiCond10) V1 load(1, XDATA, add(CFA_XSP16, literal(-9)))
          CFI (cfiCond10) V2 load(1, XDATA, add(CFA_XSP16, literal(-8)))
          CFI (cfiCond10) V3 load(1, XDATA, add(CFA_XSP16, literal(-7)))
          CFI (cfiCond10) R7 load(1, XDATA, add(CFA_XSP16, literal(-6)))
          CFI (cfiCond10) ?RET_LOW load(1, XDATA, add(CFA_XSP16, literal(-5)))
          CFI (cfiCond10) ?RET_HIGH load(1, XDATA, add(CFA_XSP16, literal(-4)))
          CFI (cfiCond10) ?BRET_EXT load(1, XDATA, add(CFA_XSP16, literal(-3)))
          CFI (cfiCond10) DPL0 load(1, XDATA, add(CFA_XSP16, literal(-2)))
          CFI (cfiCond10) DPH0 load(1, XDATA, add(CFA_XSP16, literal(-1)))
          CFI (cfiCond10) CFA_SP SP+-2
          CFI (cfiCond10) CFA_XSP16 add(XSP16, 66)
          CFI Block cfiCond11 Using cfiCommon0
          CFI (cfiCond11) Function zha_project_event_loop
          CFI (cfiCond11) Conditional ??CrossCallReturnLabel_36
          CFI (cfiCond11) R6 load(1, XDATA, add(CFA_XSP16, literal(-12)))
          CFI (cfiCond11) VB load(1, XDATA, add(CFA_XSP16, literal(-11)))
          CFI (cfiCond11) V0 load(1, XDATA, add(CFA_XSP16, literal(-10)))
          CFI (cfiCond11) V1 load(1, XDATA, add(CFA_XSP16, literal(-9)))
          CFI (cfiCond11) V2 load(1, XDATA, add(CFA_XSP16, literal(-8)))
          CFI (cfiCond11) V3 load(1, XDATA, add(CFA_XSP16, literal(-7)))
          CFI (cfiCond11) R7 load(1, XDATA, add(CFA_XSP16, literal(-6)))
          CFI (cfiCond11) ?RET_LOW load(1, XDATA, add(CFA_XSP16, literal(-5)))
          CFI (cfiCond11) ?RET_HIGH load(1, XDATA, add(CFA_XSP16, literal(-4)))
          CFI (cfiCond11) ?BRET_EXT load(1, XDATA, add(CFA_XSP16, literal(-3)))
          CFI (cfiCond11) DPL0 load(1, XDATA, add(CFA_XSP16, literal(-2)))
          CFI (cfiCond11) DPH0 load(1, XDATA, add(CFA_XSP16, literal(-1)))
          CFI (cfiCond11) CFA_SP SP+-2
          CFI (cfiCond11) CFA_XSP16 add(XSP16, 66)
          CFI Block cfiPicker12 Using cfiCommon1
          CFI (cfiPicker12) NoFunction
          CFI (cfiPicker12) Picker
        MOV     DPTR,#simpleDescReqAddr
        LCALL   ?Subroutine29 & 0xFFFF
??CrossCallReturnLabel_56:
        MOV     R2,#simpleDescReqAddr & 0xff
        MOV     R3,#(simpleDescReqAddr >> 8) & 0xff
        RET
          CFI EndBlock cfiCond9
          CFI EndBlock cfiCond10
          CFI EndBlock cfiCond11
          CFI EndBlock cfiPicker12

        RSEG BANKED_CODE:CODE:NOROOT(0)
?Subroutine5:
          CFI Block cfiCond13 Using cfiCommon0
          CFI Function zha_project_event_loop
          CFI Conditional ??CrossCallReturnLabel_3
          CFI R6 load(1, XDATA, add(CFA_XSP16, literal(-12)))
          CFI VB load(1, XDATA, add(CFA_XSP16, literal(-11)))
          CFI V0 load(1, XDATA, add(CFA_XSP16, literal(-10)))
          CFI V1 load(1, XDATA, add(CFA_XSP16, literal(-9)))
          CFI V2 load(1, XDATA, add(CFA_XSP16, literal(-8)))
          CFI V3 load(1, XDATA, add(CFA_XSP16, literal(-7)))
          CFI R7 load(1, XDATA, add(CFA_XSP16, literal(-6)))
          CFI ?RET_LOW load(1, XDATA, add(CFA_XSP16, literal(-5)))
          CFI ?RET_HIGH load(1, XDATA, add(CFA_XSP16, literal(-4)))
          CFI ?BRET_EXT load(1, XDATA, add(CFA_XSP16, literal(-3)))
          CFI DPL0 load(1, XDATA, add(CFA_XSP16, literal(-2)))
          CFI DPH0 load(1, XDATA, add(CFA_XSP16, literal(-1)))
          CFI CFA_SP SP+-2
          CFI CFA_XSP16 add(XSP16, 65)
          CFI Block cfiCond14 Using cfiCommon0
          CFI (cfiCond14) Function zha_project_event_loop
          CFI (cfiCond14) Conditional ??CrossCallReturnLabel_4
          CFI (cfiCond14) R6 load(1, XDATA, add(CFA_XSP16, literal(-12)))
          CFI (cfiCond14) VB load(1, XDATA, add(CFA_XSP16, literal(-11)))
          CFI (cfiCond14) V0 load(1, XDATA, add(CFA_XSP16, literal(-10)))
          CFI (cfiCond14) V1 load(1, XDATA, add(CFA_XSP16, literal(-9)))
          CFI (cfiCond14) V2 load(1, XDATA, add(CFA_XSP16, literal(-8)))
          CFI (cfiCond14) V3 load(1, XDATA, add(CFA_XSP16, literal(-7)))
          CFI (cfiCond14) R7 load(1, XDATA, add(CFA_XSP16, literal(-6)))
          CFI (cfiCond14) ?RET_LOW load(1, XDATA, add(CFA_XSP16, literal(-5)))
          CFI (cfiCond14) ?RET_HIGH load(1, XDATA, add(CFA_XSP16, literal(-4)))
          CFI (cfiCond14) ?BRET_EXT load(1, XDATA, add(CFA_XSP16, literal(-3)))
          CFI (cfiCond14) DPL0 load(1, XDATA, add(CFA_XSP16, literal(-2)))
          CFI (cfiCond14) DPH0 load(1, XDATA, add(CFA_XSP16, literal(-1)))
          CFI (cfiCond14) CFA_SP SP+-2
          CFI (cfiCond14) CFA_XSP16 add(XSP16, 65)
          CFI Block cfiCond15 Using cfiCommon0
          CFI (cfiCond15) Function zha_project_event_loop
          CFI (cfiCond15) Conditional ??CrossCallReturnLabel_5
          CFI (cfiCond15) R6 load(1, XDATA, add(CFA_XSP16, literal(-12)))
          CFI (cfiCond15) VB load(1, XDATA, add(CFA_XSP16, literal(-11)))
          CFI (cfiCond15) V0 load(1, XDATA, add(CFA_XSP16, literal(-10)))
          CFI (cfiCond15) V1 load(1, XDATA, add(CFA_XSP16, literal(-9)))
          CFI (cfiCond15) V2 load(1, XDATA, add(CFA_XSP16, literal(-8)))
          CFI (cfiCond15) V3 load(1, XDATA, add(CFA_XSP16, literal(-7)))
          CFI (cfiCond15) R7 load(1, XDATA, add(CFA_XSP16, literal(-6)))
          CFI (cfiCond15) ?RET_LOW load(1, XDATA, add(CFA_XSP16, literal(-5)))
          CFI (cfiCond15) ?RET_HIGH load(1, XDATA, add(CFA_XSP16, literal(-4)))
          CFI (cfiCond15) ?BRET_EXT load(1, XDATA, add(CFA_XSP16, literal(-3)))
          CFI (cfiCond15) DPL0 load(1, XDATA, add(CFA_XSP16, literal(-2)))
          CFI (cfiCond15) DPH0 load(1, XDATA, add(CFA_XSP16, literal(-1)))
          CFI (cfiCond15) CFA_SP SP+-2
          CFI (cfiCond15) CFA_XSP16 add(XSP16, 65)
          CFI Block cfiPicker16 Using cfiCommon1
          CFI (cfiPicker16) NoFunction
          CFI (cfiPicker16) Picker
        MOVX    @DPTR,A
        INC     DPTR
        CLR     A
        MOVX    @DPTR,A
        ; Setup parameters for call to function zcl_SendRead
        ; Setup parameters for call to function zcl_SendRead
        ; Setup parameters for call to function zcl_SendRead
        MOV     ?V0,A
        MOV     R0,#?V0
        RET
          CFI EndBlock cfiCond13
          CFI EndBlock cfiCond14
          CFI EndBlock cfiCond15
          CFI EndBlock cfiPicker16

        RSEG BANKED_CODE:CODE:NOROOT(0)
?Subroutine4:
          CFI Block cfiCond17 Using cfiCommon0
          CFI Function zha_project_event_loop
          CFI Conditional ??CrossCallReturnLabel_0
          CFI R6 load(1, XDATA, add(CFA_XSP16, literal(-12)))
          CFI VB load(1, XDATA, add(CFA_XSP16, literal(-11)))
          CFI V0 load(1, XDATA, add(CFA_XSP16, literal(-10)))
          CFI V1 load(1, XDATA, add(CFA_XSP16, literal(-9)))
          CFI V2 load(1, XDATA, add(CFA_XSP16, literal(-8)))
          CFI V3 load(1, XDATA, add(CFA_XSP16, literal(-7)))
          CFI R7 load(1, XDATA, add(CFA_XSP16, literal(-6)))
          CFI ?RET_LOW load(1, XDATA, add(CFA_XSP16, literal(-5)))
          CFI ?RET_HIGH load(1, XDATA, add(CFA_XSP16, literal(-4)))
          CFI ?BRET_EXT load(1, XDATA, add(CFA_XSP16, literal(-3)))
          CFI DPL0 load(1, XDATA, add(CFA_XSP16, literal(-2)))
          CFI DPH0 load(1, XDATA, add(CFA_XSP16, literal(-1)))
          CFI CFA_SP SP+-2
          CFI CFA_XSP16 add(XSP16, 65)
          CFI Block cfiCond18 Using cfiCommon0
          CFI (cfiCond18) Function zha_project_event_loop
          CFI (cfiCond18) Conditional ??CrossCallReturnLabel_1
          CFI (cfiCond18) R6 load(1, XDATA, add(CFA_XSP16, literal(-12)))
          CFI (cfiCond18) VB load(1, XDATA, add(CFA_XSP16, literal(-11)))
          CFI (cfiCond18) V0 load(1, XDATA, add(CFA_XSP16, literal(-10)))
          CFI (cfiCond18) V1 load(1, XDATA, add(CFA_XSP16, literal(-9)))
          CFI (cfiCond18) V2 load(1, XDATA, add(CFA_XSP16, literal(-8)))
          CFI (cfiCond18) V3 load(1, XDATA, add(CFA_XSP16, literal(-7)))
          CFI (cfiCond18) R7 load(1, XDATA, add(CFA_XSP16, literal(-6)))
          CFI (cfiCond18) ?RET_LOW load(1, XDATA, add(CFA_XSP16, literal(-5)))
          CFI (cfiCond18) ?RET_HIGH load(1, XDATA, add(CFA_XSP16, literal(-4)))
          CFI (cfiCond18) ?BRET_EXT load(1, XDATA, add(CFA_XSP16, literal(-3)))
          CFI (cfiCond18) DPL0 load(1, XDATA, add(CFA_XSP16, literal(-2)))
          CFI (cfiCond18) DPH0 load(1, XDATA, add(CFA_XSP16, literal(-1)))
          CFI (cfiCond18) CFA_SP SP+-2
          CFI (cfiCond18) CFA_XSP16 add(XSP16, 65)
          CFI Block cfiCond19 Using cfiCommon0
          CFI (cfiCond19) Function zha_project_event_loop
          CFI (cfiCond19) Conditional ??CrossCallReturnLabel_2
          CFI (cfiCond19) R6 load(1, XDATA, add(CFA_XSP16, literal(-12)))
          CFI (cfiCond19) VB load(1, XDATA, add(CFA_XSP16, literal(-11)))
          CFI (cfiCond19) V0 load(1, XDATA, add(CFA_XSP16, literal(-10)))
          CFI (cfiCond19) V1 load(1, XDATA, add(CFA_XSP16, literal(-9)))
          CFI (cfiCond19) V2 load(1, XDATA, add(CFA_XSP16, literal(-8)))
          CFI (cfiCond19) V3 load(1, XDATA, add(CFA_XSP16, literal(-7)))
          CFI (cfiCond19) R7 load(1, XDATA, add(CFA_XSP16, literal(-6)))
          CFI (cfiCond19) ?RET_LOW load(1, XDATA, add(CFA_XSP16, literal(-5)))
          CFI (cfiCond19) ?RET_HIGH load(1, XDATA, add(CFA_XSP16, literal(-4)))
          CFI (cfiCond19) ?BRET_EXT load(1, XDATA, add(CFA_XSP16, literal(-3)))
          CFI (cfiCond19) DPL0 load(1, XDATA, add(CFA_XSP16, literal(-2)))
          CFI (cfiCond19) DPH0 load(1, XDATA, add(CFA_XSP16, literal(-1)))
          CFI (cfiCond19) CFA_SP SP+-2
          CFI (cfiCond19) CFA_XSP16 add(XSP16, 65)
          CFI Block cfiPicker20 Using cfiCommon1
          CFI (cfiPicker20) NoFunction
          CFI (cfiPicker20) Picker
        MOV     A,#0x2
        MOVX    @DPTR,A
        MOV     DPTR,#simpleDescReqAddr
        LCALL   ?Subroutine28 & 0xFFFF
??CrossCallReturnLabel_52:
        MOV     A,R0
        MOVX    @DPTR,A
        INC     DPTR
        MOV     A,R1
        MOVX    @DPTR,A
        MOV     A,#0x9
        RET
          CFI EndBlock cfiCond17
          CFI EndBlock cfiCond18
          CFI EndBlock cfiCond19
          CFI EndBlock cfiPicker20
//  792 
//  793 
//  794 /*********************************************************************
//  795  * @fn      zha_project_HandleKeys
//  796  *
//  797  * @brief   Handles all key events for this device.
//  798  *
//  799  * @param   shift - true if in shift/alt.
//  800  * @param   keys - bit field for key events. Valid entries:
//  801  *                 HAL_KEY_SW_5
//  802  *                 HAL_KEY_SW_4
//  803  *                 HAL_KEY_SW_2
//  804  *                 HAL_KEY_SW_1
//  805  *
//  806  * @return  none
//  807  */

        RSEG BANKED_CODE:CODE:NOROOT(0)
//  808 static void zha_project_HandleKeys( byte shift, byte keys )
zha_project_HandleKeys:
          CFI Block cfiBlock21 Using cfiCommon0
          CFI Function zha_project_HandleKeys
        CODE
//  809 {
        FUNCALL zha_project_HandleKeys, zcl_InvokeEZMode
        LOCFRAME ISTACK, 0, STACK
        LOCFRAME PSTACK, 0, STACK
        LOCFRAME XSTACK, 19, STACK
        LOCFRAME IOVERLAY, 0, STATIC
        LOCFRAME DOVERLAY, 0, STATIC
        ARGFRAME ISTACK, 0, STACK
        ARGFRAME PSTACK, 0, STACK
        ARGFRAME XSTACK, 19, STACK
        ARGFRAME IOVERLAY, 0, STATIC
        ARGFRAME DOVERLAY, 0, STATIC
        FUNCALL zha_project_HandleKeys, NLME_GetShortAddr
        LOCFRAME ISTACK, 0, STACK
        LOCFRAME PSTACK, 0, STACK
        LOCFRAME XSTACK, 19, STACK
        LOCFRAME IOVERLAY, 0, STATIC
        LOCFRAME DOVERLAY, 0, STATIC
        ARGFRAME ISTACK, 0, STACK
        ARGFRAME PSTACK, 0, STACK
        ARGFRAME XSTACK, 19, STACK
        ARGFRAME IOVERLAY, 0, STATIC
        ARGFRAME DOVERLAY, 0, STATIC
        FUNCALL zha_project_HandleKeys, NLME_SendNetworkStatus
        LOCFRAME ISTACK, 0, STACK
        LOCFRAME PSTACK, 0, STACK
        LOCFRAME XSTACK, 20, STACK
        LOCFRAME IOVERLAY, 0, STATIC
        LOCFRAME DOVERLAY, 0, STATIC
        ARGFRAME ISTACK, 0, STACK
        ARGFRAME PSTACK, 0, STACK
        ARGFRAME XSTACK, 20, STACK
        ARGFRAME IOVERLAY, 0, STATIC
        ARGFRAME DOVERLAY, 0, STATIC
        FUNCALL zha_project_HandleKeys, NLME_GetShortAddr
        LOCFRAME ISTACK, 0, STACK
        LOCFRAME PSTACK, 0, STACK
        LOCFRAME XSTACK, 19, STACK
        LOCFRAME IOVERLAY, 0, STATIC
        LOCFRAME DOVERLAY, 0, STATIC
        ARGFRAME ISTACK, 0, STACK
        ARGFRAME PSTACK, 0, STACK
        ARGFRAME XSTACK, 19, STACK
        ARGFRAME IOVERLAY, 0, STATIC
        ARGFRAME DOVERLAY, 0, STATIC
        FUNCALL zha_project_HandleKeys, ZDP_MgmtPermitJoinReq
        LOCFRAME ISTACK, 0, STACK
        LOCFRAME PSTACK, 0, STACK
        LOCFRAME XSTACK, 19, STACK
        LOCFRAME IOVERLAY, 0, STATIC
        LOCFRAME DOVERLAY, 0, STATIC
        ARGFRAME ISTACK, 0, STACK
        ARGFRAME PSTACK, 0, STACK
        ARGFRAME XSTACK, 19, STACK
        ARGFRAME IOVERLAY, 0, STATIC
        ARGFRAME DOVERLAY, 0, STATIC
        FUNCALL zha_project_HandleKeys, zha_project_BasicResetCB
        LOCFRAME ISTACK, 0, STACK
        LOCFRAME PSTACK, 0, STACK
        LOCFRAME XSTACK, 19, STACK
        LOCFRAME IOVERLAY, 0, STATIC
        LOCFRAME DOVERLAY, 0, STATIC
        ARGFRAME ISTACK, 0, STACK
        ARGFRAME PSTACK, 0, STACK
        ARGFRAME XSTACK, 19, STACK
        ARGFRAME IOVERLAY, 0, STATIC
        ARGFRAME DOVERLAY, 0, STATIC
        REQUIRE ?V0
        REQUIRE ?V1
        MOV     A,#-0xa
        LCALL   ?BANKED_ENTER_XDATA
          CFI DPH0 load(1, XDATA, add(CFA_XSP16, literal(-1)))
          CFI DPL0 load(1, XDATA, add(CFA_XSP16, literal(-2)))
          CFI ?BRET_EXT load(1, XDATA, add(CFA_XSP16, literal(-3)))
          CFI ?RET_HIGH load(1, XDATA, add(CFA_XSP16, literal(-4)))
          CFI ?RET_LOW load(1, XDATA, add(CFA_XSP16, literal(-5)))
          CFI R7 load(1, XDATA, add(CFA_XSP16, literal(-6)))
          CFI V1 load(1, XDATA, add(CFA_XSP16, literal(-7)))
          CFI V0 load(1, XDATA, add(CFA_XSP16, literal(-8)))
          CFI VB load(1, XDATA, add(CFA_XSP16, literal(-9)))
          CFI R6 load(1, XDATA, add(CFA_XSP16, literal(-10)))
          CFI CFA_SP SP+0
          CFI CFA_XSP16 add(XSP16, 10)
        ; Saved register size: 10
        ; Auto size: 9
        MOV     A,#-0x9
        LCALL   ?ALLOC_XSTACK8
          CFI CFA_XSP16 add(XSP16, 19)
        MOV     A,R1
        MOV     R6,A
        MOV     A,R2
        MOV     R7,A
//  810   if ( keys & HAL_KEY_SW_1 )
        MOV     C,0xE0 /* A   */.0
        JNC     ??zha_project_HandleKeys_0
//  811   {
//  812     giLightScreenMode = LIGHT_MAINMODE;
        MOV     DPTR,#giLightScreenMode
        CLR     A
        MOVX    @DPTR,A
//  813 
//  814     // toggle local light immediately
//  815     zha_project_OnOff = zha_project_OnOff ? LIGHT_OFF : LIGHT_ON;
        MOV     DPTR,#zha_project_OnOff
        MOVX    A,@DPTR
        JZ      ??zha_project_HandleKeys_1
        CLR     A
        MOVX    @DPTR,A
        MOV     DPTR,#zha_project_LevelCurrentLevel
        INC     A
        SJMP    ??zha_project_HandleKeys_2
??zha_project_HandleKeys_1:
        MOV     A,#0x1
        MOVX    @DPTR,A
        MOV     DPTR,#zha_project_LevelOnLevel
        MOVX    A,@DPTR
        MOV     DPTR,#zha_project_LevelCurrentLevel
??zha_project_HandleKeys_2:
        MOVX    @DPTR,A
//  816 #ifdef ZCL_LEVEL_CTRL
//  817     zha_project_LevelCurrentLevel = zha_project_OnOff ? zha_project_LevelOnLevel : ATTR_LEVEL_MIN_LEVEL;
//  818 #endif
//  819   }
//  820 
//  821   if ( keys & HAL_KEY_SW_2 )
??zha_project_HandleKeys_0:
        MOV     A,R7
        MOV     C,0xE0 /* A   */.1
        JNC     ??zha_project_HandleKeys_3
//  822   {
//  823 #if (defined HAL_BOARD_ZLIGHT)
//  824 
//  825     zha_project_BasicResetCB();
//  826 
//  827 #else
//  828 
//  829     giLightScreenMode = LIGHT_MAINMODE;
        MOV     DPTR,#giLightScreenMode
        CLR     A
        MOVX    @DPTR,A
//  830 
//  831 #ifdef ZCL_EZMODE
//  832     {
//  833       // Invoke EZ-Mode
//  834       zclEZMode_InvokeData_t ezModeData;
//  835 
//  836       // Invoke EZ-Mode
//  837       ezModeData.endpoint = SAMPLELIGHT_ENDPOINT; // endpoint on which to invoke EZ-Mode
        MOV     DPL,?XSP + 0
        MOV     DPH,?XSP + 1
        INC     A
        MOVX    @DPTR,A
//  838       if ( (zha_project_NwkState == DEV_ZB_COORD) ||
//  839           (zha_project_NwkState == DEV_ROUTER)   ||
//  840             (zha_project_NwkState == DEV_END_DEVICE) )
        MOV     DPTR,#zha_project_NwkState
        MOVX    A,@DPTR
        XRL     A,#0x9
        JZ      ??zha_project_HandleKeys_4
        MOVX    A,@DPTR
        XRL     A,#0x7
        JZ      ??zha_project_HandleKeys_4
        MOVX    A,@DPTR
        XRL     A,#0x6
        JNZ     ??zha_project_HandleKeys_5
//  841       {
//  842         ezModeData.onNetwork = TRUE;      // node is already on the network
??zha_project_HandleKeys_4:
        MOV     A,#0x1
        LCALL   ?XSTACK_DISP0_8
        MOV     A,#0x1
        SJMP    ??zha_project_HandleKeys_6
//  843       }
//  844       else
//  845       {
//  846         ezModeData.onNetwork = FALSE;     // node is not yet on the network
??zha_project_HandleKeys_5:
        MOV     A,#0x1
        LCALL   ?XSTACK_DISP0_8
        CLR     A
??zha_project_HandleKeys_6:
        MOVX    @DPTR,A
//  847       }
//  848       ezModeData.initiator = FALSE;          // OnOffLight is a target
        MOV     A,#0x2
        LCALL   ?XSTACK_DISP0_8
        CLR     A
        MOVX    @DPTR,A
//  849       ezModeData.numActiveOutClusters = 0;
        MOV     A,#0x6
        LCALL   ?XSTACK_DISP0_8
        CLR     A
        MOVX    @DPTR,A
//  850       ezModeData.pActiveOutClusterIDs = NULL;
        MOV     A,#0x7
        LCALL   ?XSTACK_DISP0_8
        CLR     A
        MOVX    @DPTR,A
        INC     DPTR
        MOVX    @DPTR,A
//  851       ezModeData.numActiveInClusters = 0;
        MOV     A,#0x3
        LCALL   ?XSTACK_DISP0_8
        CLR     A
        MOVX    @DPTR,A
//  852       ezModeData.pActiveOutClusterIDs = NULL;
        MOV     A,#0x7
        LCALL   ?XSTACK_DISP0_8
        CLR     A
        MOVX    @DPTR,A
        INC     DPTR
        MOVX    @DPTR,A
//  853       zcl_InvokeEZMode( &ezModeData );
        ; Setup parameters for call to function zcl_InvokeEZMode
        MOV     R2,?XSP + 0
        MOV     R3,?XSP + 1
        LCALL   `??zcl_InvokeEZMode::?relay`; Banked call to: zcl_InvokeEZMode
//  854     }
//  855 
//  856 #else // NOT EZ-Mode
//  857     {
//  858       zAddrType_t dstAddr;
//  859       HalLedSet ( HAL_LED_4, HAL_LED_MODE_OFF );
//  860 
//  861       // Initiate an End Device Bind Request, this bind request will
//  862       // only use a cluster list that is important to binding.
//  863       dstAddr.addrMode = afAddr16Bit;
//  864       dstAddr.addr.shortAddr = 0;   // Coordinator makes the match
//  865       ZDP_EndDeviceBindReq( &dstAddr, NLME_GetShortAddr(),
//  866                            SAMPLELIGHT_ENDPOINT,
//  867                            ZCL_HA_PROFILE_ID,
//  868                            ZCLSAMPLELIGHT_BINDINGLIST, bindingInClusters,
//  869                            0, NULL,   // No Outgoing clusters to bind
//  870                            TRUE );
//  871     }
//  872 #endif // ZCL_EZMODE
//  873 #endif // HAL_BOARD_ZLIGHT
//  874   }
//  875 
//  876   if ( keys & HAL_KEY_SW_3 )
??zha_project_HandleKeys_3:
        MOV     A,R7
        MOV     C,0xE0 /* A   */.4
        JNC     ??zha_project_HandleKeys_7
//  877   {
//  878     NLME_SendNetworkStatus( zha_project_DstAddr.addr.shortAddr,
//  879                        NLME_GetShortAddr(), NWKSTAT_NONTREE_LINK_FAILURE, FALSE );
        ; Setup parameters for call to function NLME_GetShortAddr
        LCALL   `??NLME_GetShortAddr::?relay`; Banked call to: NLME_GetShortAddr
        MOV     ?V0,R2
        MOV     ?V1,R3
        MOV     R4,?V0
        MOV     R5,?V1
        ; Setup parameters for call to function NLME_SendNetworkStatus
        MOV     ?V0,#0x0
        MOV     R0,#?V0
        LCALL   ?PUSH_XSTACK_I_ONE
          CFI CFA_XSP16 add(XSP16, 20)
        MOV     R1,#0x2
        MOV     DPTR,#zha_project_DstAddr
        LCALL   ??Subroutine38_0 & 0xFFFF
//  880   }
??CrossCallReturnLabel_64:
        LCALL   `??NLME_SendNetworkStatus::?relay`; Banked call to: NLME_SendNetworkStatus
        MOV     A,#0x1
        LCALL   ?DEALLOC_XSTACK8
          CFI CFA_XSP16 add(XSP16, 19)
//  881 
//  882   if ( keys & HAL_KEY_SW_4 )
??zha_project_HandleKeys_7:
        MOV     A,R7
        MOV     C,0xE0 /* A   */.3
        JNC     ??zha_project_HandleKeys_8
//  883   {
//  884     giLightScreenMode = LIGHT_MAINMODE;
        MOV     DPTR,#giLightScreenMode
        CLR     A
        MOVX    @DPTR,A
//  885 
//  886     if ( ( zha_project_NwkState == DEV_ZB_COORD ) ||
//  887           ( zha_project_NwkState == DEV_ROUTER ) )
        MOV     DPTR,#zha_project_NwkState
        MOVX    A,@DPTR
        XRL     A,#0x9
        JZ      ??zha_project_HandleKeys_9
        MOVX    A,@DPTR
        XRL     A,#0x7
        JNZ     ??zha_project_HandleKeys_8
//  888     {
//  889       zAddrType_t tmpAddr;
//  890 
//  891       tmpAddr.addrMode = Addr16Bit;
??zha_project_HandleKeys_9:
        MOV     A,#0x8
        LCALL   ?XSTACK_DISP0_8
        MOV     A,#0x2
        MOVX    @DPTR,A
//  892       tmpAddr.addr.shortAddr = NLME_GetShortAddr();
        ; Setup parameters for call to function NLME_GetShortAddr
        LCALL   `??NLME_GetShortAddr::?relay`; Banked call to: NLME_GetShortAddr
        MOV     DPL,?XSP + 0
        MOV     DPH,?XSP + 1
        MOV     A,R2
        MOVX    @DPTR,A
        INC     DPTR
        MOV     A,R3
        MOVX    @DPTR,A
//  893 
//  894       // toggle permit join
//  895       gPermitDuration = gPermitDuration ? 0 : 0xff;
        MOV     DPTR,#gPermitDuration
        MOVX    A,@DPTR
        JZ      ??zha_project_HandleKeys_10
        CLR     A
        SJMP    ??zha_project_HandleKeys_11
??zha_project_HandleKeys_10:
        MOV     A,#-0x1
??zha_project_HandleKeys_11:
        MOVX    @DPTR,A
//  896 
//  897       // Trust Center significance is always true
//  898       ZDP_MgmtPermitJoinReq( &tmpAddr, gPermitDuration, TRUE, FALSE );
        ; Setup parameters for call to function ZDP_MgmtPermitJoinReq
        MOV     R5,#0x0
        MOV     R4,#0x1
        MOVX    A,@DPTR
        MOV     R1,A
        MOV     R2,?XSP + 0
        MOV     R3,?XSP + 1
        LCALL   `??ZDP_MgmtPermitJoinReq::?relay`; Banked call to: ZDP_MgmtPermitJoinReq
//  899     }
//  900   }
//  901 
//  902   // Shift F5 does a Basic Reset (factory defaults)
//  903   if ( shift && ( keys & HAL_KEY_SW_5 ) )
??zha_project_HandleKeys_8:
        MOV     A,R6
        JZ      ??zha_project_HandleKeys_12
        MOV     A,R7
        MOV     C,0xE0 /* A   */.2
        JNC     ??zha_project_HandleKeys_13
//  904   {
//  905     zha_project_BasicResetCB();
        ; Setup parameters for call to function zha_project_BasicResetCB
        LCALL   `??zha_project_BasicResetCB::?relay`; Banked call to: zha_project_BasicResetCB
        SJMP    ??zha_project_HandleKeys_13
//  906   }
//  907   else if ( keys & HAL_KEY_SW_5 )
??zha_project_HandleKeys_12:
        MOV     A,R7
        MOV     C,0xE0 /* A   */.2
        JNC     ??zha_project_HandleKeys_13
//  908   {
//  909     giLightScreenMode = giLightScreenMode ? LIGHT_MAINMODE : LIGHT_HELPMODE;
        MOV     DPTR,#giLightScreenMode
        MOVX    A,@DPTR
        JZ      ??zha_project_HandleKeys_14
        CLR     A
        SJMP    ??zha_project_HandleKeys_15
??zha_project_HandleKeys_14:
        MOV     A,#0x1
??zha_project_HandleKeys_15:
        MOVX    @DPTR,A
//  910   }
//  911 
//  912   // update the display, including the light
//  913   //zha_project_LcdDisplayUpdate();
//  914 }
??zha_project_HandleKeys_13:
        MOV     A,#0x9
        LCALL   ?DEALLOC_XSTACK8
          CFI EndBlock cfiBlock21
        REQUIRE ?Subroutine0
        ; // Fall through to label ?Subroutine0

        RSEG BANKED_CODE:CODE:NOROOT(0)
?Subroutine0:
          CFI Block cfiBlock22 Using cfiCommon0
          CFI NoFunction
          CFI CFA_SP SP+0
          CFI CFA_XSP16 add(XSP16, 10)
          CFI VB load(1, XDATA, add(CFA_XSP16, literal(-9)))
          CFI DPL0 load(1, XDATA, add(CFA_XSP16, literal(-2)))
          CFI DPH0 load(1, XDATA, add(CFA_XSP16, literal(-1)))
          CFI R6 load(1, XDATA, add(CFA_XSP16, literal(-10)))
          CFI R7 load(1, XDATA, add(CFA_XSP16, literal(-6)))
          CFI V0 load(1, XDATA, add(CFA_XSP16, literal(-8)))
          CFI V1 load(1, XDATA, add(CFA_XSP16, literal(-7)))
          CFI ?BRET_EXT load(1, XDATA, add(CFA_XSP16, literal(-3)))
          CFI ?RET_HIGH load(1, XDATA, add(CFA_XSP16, literal(-4)))
          CFI ?RET_LOW load(1, XDATA, add(CFA_XSP16, literal(-5)))
        MOV     R7,#0x2
        LJMP    ?BANKED_LEAVE_XDATA
          CFI EndBlock cfiBlock22
//  915 
//  916 
//  917 /*********************************************************************
//  918  * @fn      zha_project_DisplayLight
//  919  *
//  920  * @brief   Displays current state of light on LED and also on main display if supported.
//  921  *
//  922  * @param   none
//  923  *
//  924  * @return  none
//  925  */
//  926 static void zha_project_DisplayLight( void )
//  927 {
//  928   // set the LED1 based on light (on or off)
//  929   if ( zha_project_OnOff == LIGHT_ON )
//  930   {
//  931     HalLedSet ( HAL_LED_1, HAL_LED_MODE_ON );
//  932   }
//  933   else
//  934   {
//  935     HalLedSet ( HAL_LED_1, HAL_LED_MODE_OFF );
//  936   }
//  937 
//  938 #ifdef LCD_SUPPORTED
//  939   if (giLightScreenMode == LIGHT_MAINMODE)
//  940   {
//  941 #ifdef ZCL_LEVEL_CTRL
//  942     // display current light level
//  943     if ( ( zha_project_LevelCurrentLevel == ATTR_LEVEL_MIN_LEVEL ) &&
//  944          ( zha_project_OnOff == LIGHT_OFF ) )
//  945     {
//  946       HalLcdWriteString( (char *)sLightOff, HAL_LCD_LINE_2 );
//  947     }
//  948     else if ( ( zha_project_LevelCurrentLevel >= ATTR_LEVEL_MAX_LEVEL ) ||
//  949               ( zha_project_LevelCurrentLevel == zha_project_LevelOnLevel ) ||
//  950                ( ( zha_project_LevelOnLevel == ATTR_LEVEL_ON_LEVEL_NO_EFFECT ) &&
//  951                  ( zha_project_LevelCurrentLevel == zha_project_LevelLastLevel ) ) )
//  952     {
//  953       HalLcdWriteString( (char *)sLightOn, HAL_LCD_LINE_2 );
//  954     }
//  955     else    // "    LEVEL ###"
//  956     {
//  957       zclHA_uint8toa( zha_project_LevelCurrentLevel, &sLightLevel[10] );
//  958       HalLcdWriteString( (char *)sLightLevel, HAL_LCD_LINE_2 );
//  959     }
//  960 #else
//  961     if ( zha_project_OnOff )
//  962     {
//  963       HalLcdWriteString( (char *)sLightOn, HAL_LCD_LINE_2 );
//  964     }
//  965     else
//  966     {
//  967       HalLcdWriteString( (char *)sLightOff, HAL_LCD_LINE_2 );
//  968     }
//  969 #endif // ZCL_LEVEL_CTRL
//  970   }
//  971 #endif // LCD_SUPPORTED
//  972 }
//  973 
//  974 /*********************************************************************
//  975  * @fn      zha_project_BasicResetCB
//  976  *
//  977  * @brief   Callback from the ZCL General Cluster Library
//  978  *          to set all the Basic Cluster attributes to default values.
//  979  *
//  980  * @param   none
//  981  *
//  982  * @return  none
//  983  */

        RSEG BANKED_CODE:CODE:NOROOT(0)
//  984 static void zha_project_BasicResetCB( void )
zha_project_BasicResetCB:
          CFI Block cfiBlock23 Using cfiCommon0
          CFI Function zha_project_BasicResetCB
        CODE
//  985 {
        FUNCALL zha_project_BasicResetCB, osal_memset
        LOCFRAME ISTACK, 2, STACK
        LOCFRAME PSTACK, 0, STACK
        LOCFRAME XSTACK, 5, STACK
        LOCFRAME IOVERLAY, 0, STATIC
        LOCFRAME DOVERLAY, 0, STATIC
        ARGFRAME ISTACK, 2, STACK
        ARGFRAME PSTACK, 0, STACK
        ARGFRAME XSTACK, 5, STACK
        ARGFRAME IOVERLAY, 0, STATIC
        ARGFRAME DOVERLAY, 0, STATIC
        FUNCALL zha_project_BasicResetCB, zgWriteStartupOptions
        LOCFRAME ISTACK, 2, STACK
        LOCFRAME PSTACK, 0, STACK
        LOCFRAME XSTACK, 5, STACK
        LOCFRAME IOVERLAY, 0, STATIC
        LOCFRAME DOVERLAY, 0, STATIC
        ARGFRAME ISTACK, 2, STACK
        ARGFRAME PSTACK, 0, STACK
        ARGFRAME XSTACK, 5, STACK
        ARGFRAME IOVERLAY, 0, STATIC
        ARGFRAME DOVERLAY, 0, STATIC
        FUNCALL zha_project_BasicResetCB, NLME_LeaveReq
        LOCFRAME ISTACK, 2, STACK
        LOCFRAME PSTACK, 0, STACK
        LOCFRAME XSTACK, 5, STACK
        LOCFRAME IOVERLAY, 0, STATIC
        LOCFRAME DOVERLAY, 0, STATIC
        ARGFRAME ISTACK, 2, STACK
        ARGFRAME PSTACK, 0, STACK
        ARGFRAME XSTACK, 5, STACK
        ARGFRAME IOVERLAY, 0, STATIC
        ARGFRAME DOVERLAY, 0, STATIC
        FUNCALL zha_project_BasicResetCB, ZDApp_LeaveReset
        LOCFRAME ISTACK, 2, STACK
        LOCFRAME PSTACK, 0, STACK
        LOCFRAME XSTACK, 5, STACK
        LOCFRAME IOVERLAY, 0, STATIC
        LOCFRAME DOVERLAY, 0, STATIC
        ARGFRAME ISTACK, 2, STACK
        ARGFRAME PSTACK, 0, STACK
        ARGFRAME XSTACK, 5, STACK
        ARGFRAME IOVERLAY, 0, STATIC
        ARGFRAME DOVERLAY, 0, STATIC
        PUSH    DPL
          CFI DPL0 Frame(CFA_SP, 4)
          CFI CFA_SP SP+-4
        PUSH    DPH
          CFI DPH0 Frame(CFA_SP, 5)
          CFI CFA_SP SP+-5
        ; Saved register size: 2
        ; Auto size: 5
        MOV     A,#-0x5
        LCALL   ?ALLOC_XSTACK8
          CFI CFA_XSP16 add(XSP16, 5)
//  986   NLME_LeaveReq_t leaveReq;
//  987   // Set every field to 0
//  988   osal_memset( &leaveReq, 0, sizeof( NLME_LeaveReq_t ) );
        ; Setup parameters for call to function osal_memset
        MOV     R4,#0x5
        MOV     R5,#0x0
        MOV     R1,#0x0
        MOV     R2,?XSP + 0
        MOV     R3,?XSP + 1
        LCALL   `??osal_memset::?relay`; Banked call to: osal_memset
//  989 
//  990   // This will enable the device to rejoin the network after reset.
//  991   leaveReq.rejoin = TRUE;
        MOV     A,#0x3
        LCALL   ?XSTACK_DISP0_8
        MOV     A,#0x1
        MOVX    @DPTR,A
//  992 
//  993   // Set the NV startup option to force a "new" join.
//  994   zgWriteStartupOptions( ZG_STARTUP_SET, ZCD_STARTOPT_DEFAULT_NETWORK_STATE );
        ; Setup parameters for call to function zgWriteStartupOptions
        MOV     R2,#0x2
        MOV     R1,#-0x1
        LCALL   `??zgWriteStartupOptions::?relay`; Banked call to: zgWriteStartupOptions
//  995 
//  996   // Leave the network, and reset afterwards
//  997   if ( NLME_LeaveReq( &leaveReq ) != ZSuccess )
        ; Setup parameters for call to function NLME_LeaveReq
        MOV     R2,?XSP + 0
        MOV     R3,?XSP + 1
        LCALL   `??NLME_LeaveReq::?relay`; Banked call to: NLME_LeaveReq
        MOV     A,R1
        JZ      ??zha_project_BasicResetCB_0
//  998   {
//  999     // Couldn't send out leave; prepare to reset anyway
// 1000     ZDApp_LeaveReset( FALSE );
        ; Setup parameters for call to function ZDApp_LeaveReset
        MOV     R1,#0x0
        LCALL   `??ZDApp_LeaveReset::?relay`; Banked call to: ZDApp_LeaveReset
// 1001   }
// 1002 }
??zha_project_BasicResetCB_0:
        MOV     A,#0x5
        SJMP    ?Subroutine1
          CFI EndBlock cfiBlock23
// 1003 
// 1004 /*********************************************************************
// 1005  * @fn      zha_project_IdentifyCB
// 1006  *
// 1007  * @brief   Callback from the ZCL General Cluster Library when
// 1008  *          it received an Identity Command for this application.
// 1009  *
// 1010  * @param   srcAddr - source address and endpoint of the response message
// 1011  * @param   identifyTime - the number of seconds to identify yourself
// 1012  *
// 1013  * @return  none
// 1014  */

        RSEG BANKED_CODE:CODE:NOROOT(0)
// 1015 static void zha_project_IdentifyCB( zclIdentify_t *pCmd )
zha_project_IdentifyCB:
          CFI Block cfiBlock24 Using cfiCommon0
          CFI Function zha_project_IdentifyCB
        CODE
// 1016 {
        PUSH    DPL
          CFI DPL0 Frame(CFA_SP, 4)
          CFI CFA_SP SP+-4
        PUSH    DPH
          CFI DPH0 Frame(CFA_SP, 5)
          CFI CFA_SP SP+-5
        ; Saved register size: 2
        ; Auto size: 0
// 1017   zha_project_IdentifyTime = pCmd->identifyTime;
        MOV     DPL,R2
        MOV     DPH,R3
        INC     DPTR
        INC     DPTR
        LCALL   ??Subroutine46_0 & 0xFFFF
??CrossCallReturnLabel_131:
        MOV     DPTR,#zha_project_IdentifyTime
        MOV     A,R0
        MOVX    @DPTR,A
        INC     DPTR
        MOV     A,R1
        MOVX    @DPTR,A
// 1018 //zha_project_ProcessIdentifyTimeChange();
// 1019 }
        SJMP    ??Subroutine36_0
          CFI EndBlock cfiBlock24

        RSEG BANKED_CODE:CODE:NOROOT(0)
?Subroutine1:
          CFI Block cfiBlock25 Using cfiCommon0
          CFI NoFunction
          CFI CFA_SP SP+-5
          CFI CFA_XSP16 add(XSP16, 5)
          CFI DPL0 Frame(CFA_SP, 4)
          CFI DPH0 Frame(CFA_SP, 5)
          CFI Invalid
        LCALL   ?DEALLOC_XSTACK8
          CFI EndBlock cfiBlock25
        REQUIRE ??Subroutine36_0
        ; // Fall through to label ??Subroutine36_0

        RSEG BANKED_CODE:CODE:NOROOT(0)
??Subroutine36_0:
          CFI Block cfiBlock26 Using cfiCommon0
          CFI NoFunction
          CFI CFA_SP SP+-5
          CFI DPL0 Frame(CFA_SP, 4)
          CFI DPH0 Frame(CFA_SP, 5)
        POP     DPH
          CFI CFA_SP SP+-4
          CFI DPH0 SameValue
        POP     DPL
          CFI CFA_SP SP+-3
          CFI DPL0 SameValue
        LJMP    ?BRET
          CFI EndBlock cfiBlock26
// 1020 
// 1021 /*********************************************************************
// 1022  * @fn      zha_project_IdentifyQueryRspCB
// 1023  *
// 1024  * @brief   Callback from the ZCL General Cluster Library when
// 1025  *          it received an Identity Query Response Command for this application.
// 1026  *
// 1027  * @param   srcAddr - requestor's address
// 1028  * @param   timeout - number of seconds to identify yourself (valid for query response)
// 1029  *
// 1030  * @return  none
// 1031  */

        RSEG BANKED_CODE:CODE:NOROOT(0)
// 1032 static void zha_project_IdentifyQueryRspCB(  zclIdentifyQueryRsp_t *pRsp )
zha_project_IdentifyQueryRspCB:
          CFI Block cfiBlock27 Using cfiCommon0
          CFI Function zha_project_IdentifyQueryRspCB
        CODE
// 1033 {
        FUNCALL zha_project_IdentifyQueryRspCB, zcl_EZModeAction
        LOCFRAME ISTACK, 2, STACK
        LOCFRAME PSTACK, 0, STACK
        LOCFRAME XSTACK, 2, STACK
        LOCFRAME IOVERLAY, 0, STATIC
        LOCFRAME DOVERLAY, 0, STATIC
        ARGFRAME ISTACK, 2, STACK
        ARGFRAME PSTACK, 0, STACK
        ARGFRAME XSTACK, 2, STACK
        ARGFRAME IOVERLAY, 0, STATIC
        ARGFRAME DOVERLAY, 0, STATIC
        PUSH    DPL
          CFI DPL0 Frame(CFA_SP, 4)
          CFI CFA_SP SP+-4
        PUSH    DPH
          CFI DPH0 Frame(CFA_SP, 5)
          CFI CFA_SP SP+-5
        ; Saved register size: 2
        ; Auto size: 2
        MOV     A,#-0x2
        LCALL   ?ALLOC_XSTACK8
          CFI CFA_XSP16 add(XSP16, 2)
// 1034   (void)pRsp;
// 1035 #ifdef ZCL_EZMODE
// 1036   {
// 1037     zclEZMode_ActionData_t data;
// 1038     data.pIdentifyQueryRsp = pRsp;
        MOV     DPL,?XSP + 0
        MOV     DPH,?XSP + 1
        MOV     A,R2
        MOVX    @DPTR,A
        INC     DPTR
        MOV     A,R3
        MOVX    @DPTR,A
// 1039     zcl_EZModeAction ( EZMODE_ACTION_IDENTIFY_QUERY_RSP, &data );
        ; Setup parameters for call to function zcl_EZModeAction
        MOV     R2,?XSP + 0
        MOV     R3,?XSP + 1
        MOV     R1,#0x4
        LCALL   `??zcl_EZModeAction::?relay`; Banked call to: zcl_EZModeAction
// 1040   }
// 1041 #endif
// 1042 }
        MOV     A,#0x2
        SJMP    ?Subroutine1
          CFI EndBlock cfiBlock27
// 1043 
// 1044 /*********************************************************************
// 1045  * @fn      zha_project_OnOffCB
// 1046  *
// 1047  * @brief   Callback from the ZCL General Cluster Library when
// 1048  *          it received an On/Off Command for this application.
// 1049  *
// 1050  * @param   cmd - COMMAND_ON, COMMAND_OFF or COMMAND_TOGGLE
// 1051  *
// 1052  * @return  none
// 1053  */

        RSEG BANKED_CODE:CODE:NOROOT(0)
// 1054 static void zha_project_OnOffCB( uint8 cmd )
zha_project_OnOffCB:
          CFI Block cfiBlock28 Using cfiCommon0
          CFI Function zha_project_OnOffCB
        CODE
// 1055 {
        FUNCALL zha_project_OnOffCB, zcl_getRawAFMsg
        LOCFRAME ISTACK, 0, STACK
        LOCFRAME PSTACK, 0, STACK
        LOCFRAME XSTACK, 10, STACK
        LOCFRAME IOVERLAY, 0, STATIC
        LOCFRAME DOVERLAY, 0, STATIC
        ARGFRAME ISTACK, 0, STACK
        ARGFRAME PSTACK, 0, STACK
        ARGFRAME XSTACK, 10, STACK
        ARGFRAME IOVERLAY, 0, STATIC
        ARGFRAME DOVERLAY, 0, STATIC
        REQUIRE ?V0
        REQUIRE ?V1
        MOV     A,#-0xa
        LCALL   ?BANKED_ENTER_XDATA
          CFI DPH0 load(1, XDATA, add(CFA_XSP16, literal(-1)))
          CFI DPL0 load(1, XDATA, add(CFA_XSP16, literal(-2)))
          CFI ?BRET_EXT load(1, XDATA, add(CFA_XSP16, literal(-3)))
          CFI ?RET_HIGH load(1, XDATA, add(CFA_XSP16, literal(-4)))
          CFI ?RET_LOW load(1, XDATA, add(CFA_XSP16, literal(-5)))
          CFI R7 load(1, XDATA, add(CFA_XSP16, literal(-6)))
          CFI V1 load(1, XDATA, add(CFA_XSP16, literal(-7)))
          CFI V0 load(1, XDATA, add(CFA_XSP16, literal(-8)))
          CFI VB load(1, XDATA, add(CFA_XSP16, literal(-9)))
          CFI R6 load(1, XDATA, add(CFA_XSP16, literal(-10)))
          CFI CFA_SP SP+0
          CFI CFA_XSP16 add(XSP16, 10)
        ; Saved register size: 10
        ; Auto size: 0
        MOV     A,R1
        MOV     R6,A
// 1056   afIncomingMSGPacket_t *pPtr = zcl_getRawAFMsg();
        ; Setup parameters for call to function zcl_getRawAFMsg
        LCALL   `??zcl_getRawAFMsg::?relay`; Banked call to: zcl_getRawAFMsg
        MOV     DPL,R2
        MOV     DPH,R3
// 1057 
// 1058   zha_project_DstAddr.addr.shortAddr = pPtr->srcAddr.addr.shortAddr;
        INC     DPTR
        INC     DPTR
        INC     DPTR
        INC     DPTR
        INC     DPTR
        INC     DPTR
        LCALL   ?Subroutine16 & 0xFFFF
??CrossCallReturnLabel_39:
        MOVX    @DPTR,A
// 1059 
// 1060 
// 1061   // Turn on the light
// 1062   if ( cmd == COMMAND_ON )
        MOV     A,#0x1
        XRL     A,R6
        JZ      ??zha_project_OnOffCB_0
// 1063   {
// 1064     zha_project_OnOff = LIGHT_ON;
// 1065   }
// 1066   // Turn off the light
// 1067   else if ( cmd == COMMAND_OFF )
        MOV     A,R6
        JZ      ??zha_project_OnOffCB_1
// 1068   {
// 1069     zha_project_OnOff = LIGHT_OFF;
// 1070   }
// 1071   // Toggle the light
// 1072   else if ( cmd == COMMAND_TOGGLE )
        MOV     A,#0x2
        XRL     A,R6
        JNZ     ??zha_project_OnOffCB_2
// 1073   {
// 1074     if ( zha_project_OnOff == LIGHT_OFF )
        MOV     DPTR,#zha_project_OnOff
        MOVX    A,@DPTR
        JNZ     ??zha_project_OnOffCB_1
// 1075     {
// 1076       zha_project_OnOff = LIGHT_ON;
??zha_project_OnOffCB_0:
        MOV     DPTR,#zha_project_OnOff
        MOV     A,#0x1
        SJMP    ??zha_project_OnOffCB_3
// 1077     }
// 1078     else
// 1079     {
// 1080       zha_project_OnOff = LIGHT_OFF;
??zha_project_OnOffCB_1:
        MOV     DPTR,#zha_project_OnOff
        CLR     A
??zha_project_OnOffCB_3:
        MOVX    @DPTR,A
// 1081     }
// 1082   }
// 1083 
// 1084 #if ZCL_LEVEL_CTRL
// 1085   //zha_project_DefaultMove( );
// 1086 #endif
// 1087 
// 1088   // update the display
// 1089   //zha_project_LcdDisplayUpdate( );
// 1090 }
??zha_project_OnOffCB_2:
        LJMP    ?Subroutine0 & 0xFFFF
          CFI EndBlock cfiBlock28
// 1091 
// 1092 
// 1093 /******************************************************************************
// 1094  *
// 1095  *  Functions for processing ZCL Foundation incoming Command/Response messages
// 1096  *
// 1097  *****************************************************************************/
// 1098 
// 1099 /*********************************************************************
// 1100  * @fn      zha_project_ProcessIncomingMsg
// 1101  *
// 1102  * @brief   Process ZCL Foundation incoming message
// 1103  *
// 1104  * @param   pInMsg - pointer to the received message
// 1105  *
// 1106  * @return  none
// 1107  */
// 1108 static void zha_project_ProcessIncomingMsg( zclIncomingMsg_t *pInMsg )
// 1109 {
// 1110   switch ( pInMsg->zclHdr.commandID )
// 1111   {
// 1112 #ifdef ZCL_READ
// 1113     case ZCL_CMD_READ_RSP:
// 1114       zha_project_ProcessInReadRspCmd( pInMsg );
// 1115       break;
// 1116 #endif
// 1117 #ifdef ZCL_WRITE
// 1118     case ZCL_CMD_WRITE_RSP:
// 1119       zha_project_ProcessInWriteRspCmd( pInMsg );
// 1120       break;
// 1121 #endif
// 1122 #ifdef ZCL_REPORT
// 1123     // Attribute Reporting implementation should be added here
// 1124     case ZCL_CMD_CONFIG_REPORT:
// 1125       // zha_project_ProcessInConfigReportCmd( pInMsg );
// 1126       break;
// 1127 
// 1128     case ZCL_CMD_CONFIG_REPORT_RSP:
// 1129       // zha_project_ProcessInConfigReportRspCmd( pInMsg );
// 1130       break;
// 1131 
// 1132     case ZCL_CMD_READ_REPORT_CFG:
// 1133       // zha_project_ProcessInReadReportCfgCmd( pInMsg );
// 1134       break;
// 1135 
// 1136     case ZCL_CMD_READ_REPORT_CFG_RSP:
// 1137       // zha_project_ProcessInReadReportCfgRspCmd( pInMsg );
// 1138       break;
// 1139 
// 1140     case ZCL_CMD_REPORT:
// 1141       zha_project_ProcessInReportCmd( pInMsg );
// 1142       break;
// 1143 #endif
// 1144     case ZCL_CMD_DEFAULT_RSP:
// 1145       zha_project_ProcessInDefaultRspCmd( pInMsg );
// 1146       break;
// 1147 #ifdef ZCL_DISCOVER
// 1148     case ZCL_CMD_DISCOVER_CMDS_RECEIVED_RSP:
// 1149       zha_project_ProcessInDiscCmdsRspCmd( pInMsg );
// 1150       break;
// 1151 
// 1152     case ZCL_CMD_DISCOVER_CMDS_GEN_RSP:
// 1153       zha_project_ProcessInDiscCmdsRspCmd( pInMsg );
// 1154       break;
// 1155 
// 1156     case ZCL_CMD_DISCOVER_ATTRS_RSP:
// 1157       zha_project_ProcessInDiscAttrsRspCmd( pInMsg );
// 1158       break;
// 1159 
// 1160     case ZCL_CMD_DISCOVER_ATTRS_EXT_RSP:
// 1161       zha_project_ProcessInDiscAttrsExtRspCmd( pInMsg );
// 1162       break;
// 1163 #endif
// 1164     default:
// 1165       break;
// 1166   }
// 1167 
// 1168   if ( pInMsg->attrCmd )
// 1169     osal_mem_free( pInMsg->attrCmd );
// 1170 }
// 1171 
// 1172 #ifdef ZCL_READ
// 1173 /*********************************************************************
// 1174  * @fn      zha_project_ProcessInReadRspCmd
// 1175  *
// 1176  * @brief   Process the "Profile" Read Response Command
// 1177  *
// 1178  * @param   pInMsg - incoming message to process
// 1179  *
// 1180  * @return  none
// 1181  */

        RSEG BANKED_CODE:CODE:NOROOT(0)
// 1182 static uint8 zha_project_ProcessInReadRspCmd( zclIncomingMsg_t *pInMsg )
zha_project_ProcessInReadRspCmd:
          CFI Block cfiBlock29 Using cfiCommon0
          CFI Function zha_project_ProcessInReadRspCmd
        CODE
// 1183 {
        FUNCALL zha_project_ProcessInReadRspCmd, SetTempDeviceHW
        LOCFRAME ISTACK, 0, STACK
        LOCFRAME PSTACK, 0, STACK
        LOCFRAME XSTACK, 63, STACK
        LOCFRAME IOVERLAY, 0, STATIC
        LOCFRAME DOVERLAY, 0, STATIC
        ARGFRAME ISTACK, 0, STACK
        ARGFRAME PSTACK, 0, STACK
        ARGFRAME XSTACK, 63, STACK
        ARGFRAME IOVERLAY, 0, STATIC
        ARGFRAME DOVERLAY, 0, STATIC
        FUNCALL zha_project_ProcessInReadRspCmd, SetTempDeviceManuName
        LOCFRAME ISTACK, 0, STACK
        LOCFRAME PSTACK, 0, STACK
        LOCFRAME XSTACK, 63, STACK
        LOCFRAME IOVERLAY, 0, STATIC
        LOCFRAME DOVERLAY, 0, STATIC
        ARGFRAME ISTACK, 0, STACK
        ARGFRAME PSTACK, 0, STACK
        ARGFRAME XSTACK, 63, STACK
        ARGFRAME IOVERLAY, 0, STATIC
        ARGFRAME DOVERLAY, 0, STATIC
        FUNCALL zha_project_ProcessInReadRspCmd, osal_set_event
        LOCFRAME ISTACK, 0, STACK
        LOCFRAME PSTACK, 0, STACK
        LOCFRAME XSTACK, 63, STACK
        LOCFRAME IOVERLAY, 0, STATIC
        LOCFRAME DOVERLAY, 0, STATIC
        ARGFRAME ISTACK, 0, STACK
        ARGFRAME PSTACK, 0, STACK
        ARGFRAME XSTACK, 63, STACK
        ARGFRAME IOVERLAY, 0, STATIC
        ARGFRAME DOVERLAY, 0, STATIC
        FUNCALL zha_project_ProcessInReadRspCmd, SetTempDeviceBAT
        LOCFRAME ISTACK, 0, STACK
        LOCFRAME PSTACK, 0, STACK
        LOCFRAME XSTACK, 63, STACK
        LOCFRAME IOVERLAY, 0, STATIC
        LOCFRAME DOVERLAY, 0, STATIC
        ARGFRAME ISTACK, 0, STACK
        ARGFRAME PSTACK, 0, STACK
        ARGFRAME XSTACK, 63, STACK
        ARGFRAME IOVERLAY, 0, STATIC
        ARGFRAME DOVERLAY, 0, STATIC
        FUNCALL zha_project_ProcessInReadRspCmd, osal_set_event
        LOCFRAME ISTACK, 0, STACK
        LOCFRAME PSTACK, 0, STACK
        LOCFRAME XSTACK, 63, STACK
        LOCFRAME IOVERLAY, 0, STATIC
        LOCFRAME DOVERLAY, 0, STATIC
        ARGFRAME ISTACK, 0, STACK
        ARGFRAME PSTACK, 0, STACK
        ARGFRAME XSTACK, 63, STACK
        ARGFRAME IOVERLAY, 0, STATIC
        ARGFRAME DOVERLAY, 0, STATIC
        FUNCALL zha_project_ProcessInReadRspCmd, osal_memset
        LOCFRAME ISTACK, 0, STACK
        LOCFRAME PSTACK, 0, STACK
        LOCFRAME XSTACK, 63, STACK
        LOCFRAME IOVERLAY, 0, STATIC
        LOCFRAME DOVERLAY, 0, STATIC
        ARGFRAME ISTACK, 0, STACK
        ARGFRAME PSTACK, 0, STACK
        ARGFRAME XSTACK, 63, STACK
        ARGFRAME IOVERLAY, 0, STATIC
        ARGFRAME DOVERLAY, 0, STATIC
        FUNCALL zha_project_ProcessInReadRspCmd, UpdateDeviceStatus1
        LOCFRAME ISTACK, 0, STACK
        LOCFRAME PSTACK, 0, STACK
        LOCFRAME XSTACK, 63, STACK
        LOCFRAME IOVERLAY, 0, STATIC
        LOCFRAME DOVERLAY, 0, STATIC
        ARGFRAME ISTACK, 0, STACK
        ARGFRAME PSTACK, 0, STACK
        ARGFRAME XSTACK, 63, STACK
        ARGFRAME IOVERLAY, 0, STATIC
        ARGFRAME DOVERLAY, 0, STATIC
        FUNCALL zha_project_ProcessInReadRspCmd, osal_memset
        LOCFRAME ISTACK, 0, STACK
        LOCFRAME PSTACK, 0, STACK
        LOCFRAME XSTACK, 63, STACK
        LOCFRAME IOVERLAY, 0, STATIC
        LOCFRAME DOVERLAY, 0, STATIC
        ARGFRAME ISTACK, 0, STACK
        ARGFRAME PSTACK, 0, STACK
        ARGFRAME XSTACK, 63, STACK
        ARGFRAME IOVERLAY, 0, STATIC
        ARGFRAME DOVERLAY, 0, STATIC
        FUNCALL zha_project_ProcessInReadRspCmd, UpdateDeviceStatus3
        LOCFRAME ISTACK, 0, STACK
        LOCFRAME PSTACK, 0, STACK
        LOCFRAME XSTACK, 63, STACK
        LOCFRAME IOVERLAY, 0, STATIC
        LOCFRAME DOVERLAY, 0, STATIC
        ARGFRAME ISTACK, 0, STACK
        ARGFRAME PSTACK, 0, STACK
        ARGFRAME XSTACK, 63, STACK
        ARGFRAME IOVERLAY, 0, STATIC
        ARGFRAME DOVERLAY, 0, STATIC
        FUNCALL zha_project_ProcessInReadRspCmd, osal_nv_read
        LOCFRAME ISTACK, 0, STACK
        LOCFRAME PSTACK, 0, STACK
        LOCFRAME XSTACK, 67, STACK
        LOCFRAME IOVERLAY, 0, STATIC
        LOCFRAME DOVERLAY, 0, STATIC
        ARGFRAME ISTACK, 0, STACK
        ARGFRAME PSTACK, 0, STACK
        ARGFRAME XSTACK, 67, STACK
        ARGFRAME IOVERLAY, 0, STATIC
        ARGFRAME DOVERLAY, 0, STATIC
        FUNCALL zha_project_ProcessInReadRspCmd, osal_memcpy
        LOCFRAME ISTACK, 0, STACK
        LOCFRAME PSTACK, 0, STACK
        LOCFRAME XSTACK, 66, STACK
        LOCFRAME IOVERLAY, 0, STATIC
        LOCFRAME DOVERLAY, 0, STATIC
        ARGFRAME ISTACK, 0, STACK
        ARGFRAME PSTACK, 0, STACK
        ARGFRAME XSTACK, 66, STACK
        ARGFRAME IOVERLAY, 0, STATIC
        ARGFRAME DOVERLAY, 0, STATIC
        FUNCALL zha_project_ProcessInReadRspCmd, APSME_LookupExtAddr
        LOCFRAME ISTACK, 0, STACK
        LOCFRAME PSTACK, 0, STACK
        LOCFRAME XSTACK, 63, STACK
        LOCFRAME IOVERLAY, 0, STATIC
        LOCFRAME DOVERLAY, 0, STATIC
        ARGFRAME ISTACK, 0, STACK
        ARGFRAME PSTACK, 0, STACK
        ARGFRAME XSTACK, 63, STACK
        ARGFRAME IOVERLAY, 0, STATIC
        ARGFRAME DOVERLAY, 0, STATIC
        FUNCALL zha_project_ProcessInReadRspCmd, ZDP_BindUnbindReq
        LOCFRAME ISTACK, 0, STACK
        LOCFRAME PSTACK, 0, STACK
        LOCFRAME XSTACK, 71, STACK
        LOCFRAME IOVERLAY, 0, STATIC
        LOCFRAME DOVERLAY, 0, STATIC
        ARGFRAME ISTACK, 0, STACK
        ARGFRAME PSTACK, 0, STACK
        ARGFRAME XSTACK, 71, STACK
        ARGFRAME IOVERLAY, 0, STATIC
        ARGFRAME DOVERLAY, 0, STATIC
        FUNCALL zha_project_ProcessInReadRspCmd, osal_memset
        LOCFRAME ISTACK, 0, STACK
        LOCFRAME PSTACK, 0, STACK
        LOCFRAME XSTACK, 63, STACK
        LOCFRAME IOVERLAY, 0, STATIC
        LOCFRAME DOVERLAY, 0, STATIC
        ARGFRAME ISTACK, 0, STACK
        ARGFRAME PSTACK, 0, STACK
        ARGFRAME XSTACK, 63, STACK
        ARGFRAME IOVERLAY, 0, STATIC
        ARGFRAME DOVERLAY, 0, STATIC
        FUNCALL zha_project_ProcessInReadRspCmd, UpdateDeviceStatus2
        LOCFRAME ISTACK, 0, STACK
        LOCFRAME PSTACK, 0, STACK
        LOCFRAME XSTACK, 63, STACK
        LOCFRAME IOVERLAY, 0, STATIC
        LOCFRAME DOVERLAY, 0, STATIC
        ARGFRAME ISTACK, 0, STACK
        ARGFRAME PSTACK, 0, STACK
        ARGFRAME XSTACK, 63, STACK
        ARGFRAME IOVERLAY, 0, STATIC
        ARGFRAME DOVERLAY, 0, STATIC
        FUNCALL zha_project_ProcessInReadRspCmd, SetTempDeviceType
        LOCFRAME ISTACK, 0, STACK
        LOCFRAME PSTACK, 0, STACK
        LOCFRAME XSTACK, 63, STACK
        LOCFRAME IOVERLAY, 0, STATIC
        LOCFRAME DOVERLAY, 0, STATIC
        ARGFRAME ISTACK, 0, STACK
        ARGFRAME PSTACK, 0, STACK
        ARGFRAME XSTACK, 63, STACK
        ARGFRAME IOVERLAY, 0, STATIC
        ARGFRAME DOVERLAY, 0, STATIC
        FUNCALL zha_project_ProcessInReadRspCmd, osal_memset
        LOCFRAME ISTACK, 0, STACK
        LOCFRAME PSTACK, 0, STACK
        LOCFRAME XSTACK, 63, STACK
        LOCFRAME IOVERLAY, 0, STATIC
        LOCFRAME DOVERLAY, 0, STATIC
        ARGFRAME ISTACK, 0, STACK
        ARGFRAME PSTACK, 0, STACK
        ARGFRAME XSTACK, 63, STACK
        ARGFRAME IOVERLAY, 0, STATIC
        ARGFRAME DOVERLAY, 0, STATIC
        FUNCALL zha_project_ProcessInReadRspCmd, UpdateDeviceStatus1
        LOCFRAME ISTACK, 0, STACK
        LOCFRAME PSTACK, 0, STACK
        LOCFRAME XSTACK, 63, STACK
        LOCFRAME IOVERLAY, 0, STATIC
        LOCFRAME DOVERLAY, 0, STATIC
        ARGFRAME ISTACK, 0, STACK
        ARGFRAME PSTACK, 0, STACK
        ARGFRAME XSTACK, 63, STACK
        ARGFRAME IOVERLAY, 0, STATIC
        ARGFRAME DOVERLAY, 0, STATIC
        FUNCALL zha_project_ProcessInReadRspCmd, osal_memset
        LOCFRAME ISTACK, 0, STACK
        LOCFRAME PSTACK, 0, STACK
        LOCFRAME XSTACK, 63, STACK
        LOCFRAME IOVERLAY, 0, STATIC
        LOCFRAME DOVERLAY, 0, STATIC
        ARGFRAME ISTACK, 0, STACK
        ARGFRAME PSTACK, 0, STACK
        ARGFRAME XSTACK, 63, STACK
        ARGFRAME IOVERLAY, 0, STATIC
        ARGFRAME DOVERLAY, 0, STATIC
        FUNCALL zha_project_ProcessInReadRspCmd, osal_memset
        LOCFRAME ISTACK, 0, STACK
        LOCFRAME PSTACK, 0, STACK
        LOCFRAME XSTACK, 63, STACK
        LOCFRAME IOVERLAY, 0, STATIC
        LOCFRAME DOVERLAY, 0, STATIC
        ARGFRAME ISTACK, 0, STACK
        ARGFRAME PSTACK, 0, STACK
        ARGFRAME XSTACK, 63, STACK
        ARGFRAME IOVERLAY, 0, STATIC
        ARGFRAME DOVERLAY, 0, STATIC
        FUNCALL zha_project_ProcessInReadRspCmd, osal_memset
        LOCFRAME ISTACK, 0, STACK
        LOCFRAME PSTACK, 0, STACK
        LOCFRAME XSTACK, 63, STACK
        LOCFRAME IOVERLAY, 0, STATIC
        LOCFRAME DOVERLAY, 0, STATIC
        ARGFRAME ISTACK, 0, STACK
        ARGFRAME PSTACK, 0, STACK
        ARGFRAME XSTACK, 63, STACK
        ARGFRAME IOVERLAY, 0, STATIC
        ARGFRAME DOVERLAY, 0, STATIC
        FUNCALL zha_project_ProcessInReadRspCmd, UpdateDeviceStatus1
        LOCFRAME ISTACK, 0, STACK
        LOCFRAME PSTACK, 0, STACK
        LOCFRAME XSTACK, 63, STACK
        LOCFRAME IOVERLAY, 0, STATIC
        LOCFRAME DOVERLAY, 0, STATIC
        ARGFRAME ISTACK, 0, STACK
        ARGFRAME PSTACK, 0, STACK
        ARGFRAME XSTACK, 63, STACK
        ARGFRAME IOVERLAY, 0, STATIC
        ARGFRAME DOVERLAY, 0, STATIC
        FUNCALL zha_project_ProcessInReadRspCmd, osal_memset
        LOCFRAME ISTACK, 0, STACK
        LOCFRAME PSTACK, 0, STACK
        LOCFRAME XSTACK, 63, STACK
        LOCFRAME IOVERLAY, 0, STATIC
        LOCFRAME DOVERLAY, 0, STATIC
        ARGFRAME ISTACK, 0, STACK
        ARGFRAME PSTACK, 0, STACK
        ARGFRAME XSTACK, 63, STACK
        ARGFRAME IOVERLAY, 0, STATIC
        ARGFRAME DOVERLAY, 0, STATIC
        FUNCALL zha_project_ProcessInReadRspCmd, UpdateDeviceStatus2
        LOCFRAME ISTACK, 0, STACK
        LOCFRAME PSTACK, 0, STACK
        LOCFRAME XSTACK, 63, STACK
        LOCFRAME IOVERLAY, 0, STATIC
        LOCFRAME DOVERLAY, 0, STATIC
        ARGFRAME ISTACK, 0, STACK
        ARGFRAME PSTACK, 0, STACK
        ARGFRAME XSTACK, 63, STACK
        ARGFRAME IOVERLAY, 0, STATIC
        ARGFRAME DOVERLAY, 0, STATIC
        FUNCALL zha_project_ProcessInReadRspCmd, osal_memset
        LOCFRAME ISTACK, 0, STACK
        LOCFRAME PSTACK, 0, STACK
        LOCFRAME XSTACK, 63, STACK
        LOCFRAME IOVERLAY, 0, STATIC
        LOCFRAME DOVERLAY, 0, STATIC
        ARGFRAME ISTACK, 0, STACK
        ARGFRAME PSTACK, 0, STACK
        ARGFRAME XSTACK, 63, STACK
        ARGFRAME IOVERLAY, 0, STATIC
        ARGFRAME DOVERLAY, 0, STATIC
        FUNCALL zha_project_ProcessInReadRspCmd, UpdateDeviceStatus1
        LOCFRAME ISTACK, 0, STACK
        LOCFRAME PSTACK, 0, STACK
        LOCFRAME XSTACK, 63, STACK
        LOCFRAME IOVERLAY, 0, STATIC
        LOCFRAME DOVERLAY, 0, STATIC
        ARGFRAME ISTACK, 0, STACK
        ARGFRAME PSTACK, 0, STACK
        ARGFRAME XSTACK, 63, STACK
        ARGFRAME IOVERLAY, 0, STATIC
        ARGFRAME DOVERLAY, 0, STATIC
        FUNCALL zha_project_ProcessInReadRspCmd, osal_memset
        LOCFRAME ISTACK, 0, STACK
        LOCFRAME PSTACK, 0, STACK
        LOCFRAME XSTACK, 63, STACK
        LOCFRAME IOVERLAY, 0, STATIC
        LOCFRAME DOVERLAY, 0, STATIC
        ARGFRAME ISTACK, 0, STACK
        ARGFRAME PSTACK, 0, STACK
        ARGFRAME XSTACK, 63, STACK
        ARGFRAME IOVERLAY, 0, STATIC
        ARGFRAME DOVERLAY, 0, STATIC
        FUNCALL zha_project_ProcessInReadRspCmd, UpdateDeviceStatus1
        LOCFRAME ISTACK, 0, STACK
        LOCFRAME PSTACK, 0, STACK
        LOCFRAME XSTACK, 63, STACK
        LOCFRAME IOVERLAY, 0, STATIC
        LOCFRAME DOVERLAY, 0, STATIC
        ARGFRAME ISTACK, 0, STACK
        ARGFRAME PSTACK, 0, STACK
        ARGFRAME XSTACK, 63, STACK
        ARGFRAME IOVERLAY, 0, STATIC
        ARGFRAME DOVERLAY, 0, STATIC
        REQUIRE ?V0
        REQUIRE ?V1
        REQUIRE ?V2
        REQUIRE ?V3
        REQUIRE ?V4
        REQUIRE ?V5
        REQUIRE ?V6
        REQUIRE ?V8
        REQUIRE ?V9
        REQUIRE ?V10
        REQUIRE ?V11
        MOV     A,#-0x14
        LCALL   ?BANKED_ENTER_XDATA
          CFI DPH0 load(1, XDATA, add(CFA_XSP16, literal(-1)))
          CFI DPL0 load(1, XDATA, add(CFA_XSP16, literal(-2)))
          CFI ?BRET_EXT load(1, XDATA, add(CFA_XSP16, literal(-3)))
          CFI ?RET_HIGH load(1, XDATA, add(CFA_XSP16, literal(-4)))
          CFI ?RET_LOW load(1, XDATA, add(CFA_XSP16, literal(-5)))
          CFI R7 load(1, XDATA, add(CFA_XSP16, literal(-6)))
          CFI V11 load(1, XDATA, add(CFA_XSP16, literal(-7)))
          CFI V10 load(1, XDATA, add(CFA_XSP16, literal(-8)))
          CFI V9 load(1, XDATA, add(CFA_XSP16, literal(-9)))
          CFI V8 load(1, XDATA, add(CFA_XSP16, literal(-10)))
          CFI V7 load(1, XDATA, add(CFA_XSP16, literal(-11)))
          CFI V6 load(1, XDATA, add(CFA_XSP16, literal(-12)))
          CFI V5 load(1, XDATA, add(CFA_XSP16, literal(-13)))
          CFI V4 load(1, XDATA, add(CFA_XSP16, literal(-14)))
          CFI V3 load(1, XDATA, add(CFA_XSP16, literal(-15)))
          CFI V2 load(1, XDATA, add(CFA_XSP16, literal(-16)))
          CFI V1 load(1, XDATA, add(CFA_XSP16, literal(-17)))
          CFI V0 load(1, XDATA, add(CFA_XSP16, literal(-18)))
          CFI VB load(1, XDATA, add(CFA_XSP16, literal(-19)))
          CFI R6 load(1, XDATA, add(CFA_XSP16, literal(-20)))
          CFI CFA_SP SP+0
          CFI CFA_XSP16 add(XSP16, 20)
        ; Saved register size: 20
        ; Auto size: 43
        MOV     A,#-0x2b
        LCALL   ?ALLOC_XSTACK8
          CFI CFA_XSP16 add(XSP16, 63)
        LCALL   ?Subroutine12 & 0xFFFF
// 1184   zclReadRspCmd_t *readRspCmd;
// 1185     uint8 i,k;
// 1186     uint8 *j;
// 1187     uint16 *p;
// 1188     readRspCmd = (zclReadRspCmd_t *)pInMsg->attrCmd; 
// 1189     switch(pInMsg->clusterId)
??CrossCallReturnLabel_30:
        LCALL   ?US_SWITCH_SPARSE
`?<Jumptable for zha_project_ProcessInReadRspCm_0`:
        DATA
        DATA16
        DATA
        DATA16
        DATA
        DATA16
        DW        0
        DATA
        DATA16
        DATA
        DATA16
        DATA
        DATA16
        DW        10
        DATA
        DATA16
        DATA
        DATA16
        DATA
        DATA16
        DW        0
        DATA
        DATA16
        DATA
        DATA16
        DATA
        DATA16
        DW        ??zha_project_ProcessInReadRspCmd_0
        DATA
        DATA16
        DATA
        DATA16
        DATA
        DATA16
        DW        1
        DATA
        DATA16
        DATA
        DATA16
        DATA
        DATA16
        DW        ??zha_project_ProcessInReadRspCmd_1
        DATA
        DATA16
        DATA
        DATA16
        DATA
        DATA16
        DW        6
        DATA
        DATA16
        DATA
        DATA16
        DATA
        DATA16
        DW        ??zha_project_ProcessInReadRspCmd_2
        DATA
        DATA16
        DATA
        DATA16
        DATA
        DATA16
        DW        8
        DATA
        DATA16
        DATA
        DATA16
        DATA
        DATA16
        DW        ??zha_project_ProcessInReadRspCmd_3
        DATA
        DATA16
        DATA
        DATA16
        DATA
        DATA16
        DW        768
        DATA
        DATA16
        DATA
        DATA16
        DATA
        DATA16
        DW        ??zha_project_ProcessInReadRspCmd_4
        DATA
        DATA16
        DATA
        DATA16
        DATA
        DATA16
        DW        1024
        DATA
        DATA16
        DATA
        DATA16
        DATA
        DATA16
        DW        ??zha_project_ProcessInReadRspCmd_5
        DATA
        DATA16
        DATA
        DATA16
        DATA
        DATA16
        DW        1026
        DATA
        DATA16
        DATA
        DATA16
        DATA
        DATA16
        DW        ??zha_project_ProcessInReadRspCmd_6
        DATA
        DATA16
        DATA
        DATA16
        DATA
        DATA16
        DW        1029
        DATA
        DATA16
        DATA
        DATA16
        DATA
        DATA16
        DW        ??zha_project_ProcessInReadRspCmd_7
        DATA
        DATA16
        DATA
        DATA16
        DATA
        DATA16
        DW        1280
        DATA
        DATA16
        DATA
        DATA16
        DATA
        DATA16
        DW        ??zha_project_ProcessInReadRspCmd_8
        DATA
        DATA16
        DATA
        DATA16
        DATA
        DATA16
        DW        1282
        DATA
        DATA16
        DATA
        DATA16
        DATA
        DATA16
        DW        ??zha_project_ProcessInReadRspCmd_9
        DATA
        DATA16
        DATA
        DATA16
        DW        ??zha_project_ProcessInReadRspCmd_10
        CODE
// 1190     {
// 1191 #if ZG_BUILD_COORDINATOR_TYPE      
// 1192       case ZCL_CLUSTER_ID_GEN_BASIC:
// 1193         {
// 1194           for (i = 0; i < readRspCmd->numAttr; i++)
??zha_project_ProcessInReadRspCmd_0:
        MOV     R6,#0x0
        SJMP    ??zha_project_ProcessInReadRspCmd_11
// 1195           {
// 1196                 zclReadRspStatus_t *statusRec = &(readRspCmd->attrList[i]);
// 1197                 j=statusRec->data;
// 1198                 switch(statusRec->attrID)
// 1199                 {
// 1200                     case ATTRID_BASIC_POWER_SOURCE:
// 1201                         uint8 zha_project_PowerSource=*j;
// 1202                         break;
// 1203 //                    case ATTRID_POWER_CFG_BATTERY_VOLTAGE:
// 1204 //                        zha_project_BatteryVoltage=*j;
// 1205 //                        SetTempDeviceBAT(pInMsg->srcAddr.addr.shortAddr,zha_project_BatteryVoltage);
// 1206 //                        break;
// 1207                     case ATTRID_BASIC_ZCL_VERSION:
// 1208                         break;
// 1209                     case ATTRID_BASIC_MODEL_ID:
// 1210                         break;
// 1211                     case ATTRID_BASIC_MANUFACTURER_NAME:
// 1212                         SetTempDeviceManuName(pInMsg->srcAddr.addr.shortAddr,j);
// 1213                         break;
// 1214                     case ATTRID_BASIC_HW_VERSION:
// 1215                         uint8 zha_project_HWRevision = *j;
// 1216                         SetTempDeviceHW(pInMsg->srcAddr.addr.shortAddr,zha_project_HWRevision);
??zha_project_ProcessInReadRspCmd_12:
        ; Setup parameters for call to function SetTempDeviceHW
        MOV     DPL,?V2
        MOV     DPH,?V3
        LCALL   ??Subroutine42_0 & 0xFFFF
??CrossCallReturnLabel_109:
        LCALL   `??SetTempDeviceHW::?relay`; Banked call to: SetTempDeviceHW
// 1217                         break;                        
??zha_project_ProcessInReadRspCmd_13:
        INC     R6
??zha_project_ProcessInReadRspCmd_11:
        LCALL   ?Subroutine10 & 0xFFFF
??CrossCallReturnLabel_10:
        JNC     ??zha_project_ProcessInReadRspCmd_14
        LCALL   ?Subroutine9 & 0xFFFF
??CrossCallReturnLabel_77:
        LCALL   ?US_SWITCH_DENSE
`?<Jumptable for zha_project_ProcessInReadRspCm_1`:
        DATA
        DATA16
        DATA
        DATA16
        DW        3
        DATA
        DATA8
        DATA
        DATA8
        DB        1
        DATA
        DATA16
        DATA
        DATA16
        DW        ??zha_project_ProcessInReadRspCmd_13
        DATA
        DATA16
        DATA
        DATA16
        DW        ??zha_project_ProcessInReadRspCmd_12
        DATA
        DATA16
        DATA
        DATA16
        DW        ??zha_project_ProcessInReadRspCmd_15
        CODE
??zha_project_ProcessInReadRspCmd_15:
        ; Setup parameters for call to function SetTempDeviceManuName
        LCALL   ?Subroutine19 & 0xFFFF
??CrossCallReturnLabel_75:
        LCALL   `??SetTempDeviceManuName::?relay`; Banked call to: SetTempDeviceManuName
        SJMP    ??zha_project_ProcessInReadRspCmd_13
// 1218                     default:
// 1219                       break;
// 1220                 
// 1221                 }
// 1222 
// 1223           }
// 1224         }
// 1225         osal_set_event( zha_project_TaskID,ZHA_ATTRIBUTE_POWER_EVT);
??zha_project_ProcessInReadRspCmd_14:
        ; Setup parameters for call to function osal_set_event
        MOV     R2,#-0x80
        SJMP    ??zha_project_ProcessInReadRspCmd_16
// 1226         
// 1227         break;
// 1228         
// 1229       case ZCL_CLUSTER_ID_GEN_POWER_CFG:
// 1230         {
// 1231           for (i = 0; i < readRspCmd->numAttr; i++)
??zha_project_ProcessInReadRspCmd_1:
        MOV     R6,#0x0
        SJMP    ??zha_project_ProcessInReadRspCmd_17
// 1232           {
// 1233                 zclReadRspStatus_t *statusRec = &(readRspCmd->attrList[i]);
??zha_project_ProcessInReadRspCmd_18:
        MOV     A,R6
        MOV     B,#0x6
        LCALL   ?Subroutine23 & 0xFFFF
// 1234                 j=statusRec->data;
// 1235                 switch(statusRec->attrID)
??CrossCallReturnLabel_47:
        JNZ     ??zha_project_ProcessInReadRspCmd_19
        INC     DPTR
        MOVX    A,@DPTR
??zha_project_ProcessInReadRspCmd_19:
        JNZ     ??zha_project_ProcessInReadRspCmd_20
// 1236                 {
// 1237                     case ATTRID_POWER_CFG_BATTERY_VOLTAGE:
// 1238                         uint8 zha_project_BatteryVoltage=*j;
// 1239                         SetTempDeviceBAT(pInMsg->srcAddr.addr.shortAddr,zha_project_BatteryVoltage);
        ; Setup parameters for call to function SetTempDeviceBAT
        MOV     DPL,R0
        MOV     DPH,R1
        INC     DPTR
        LCALL   ?Subroutine11 & 0xFFFF
??CrossCallReturnLabel_111:
        LCALL   `??SetTempDeviceBAT::?relay`; Banked call to: SetTempDeviceBAT
// 1240                         break;
// 1241                     default:
// 1242                       break;
// 1243                 
// 1244                 }
// 1245 
// 1246           }
??zha_project_ProcessInReadRspCmd_20:
        INC     R6
??zha_project_ProcessInReadRspCmd_17:
        LCALL   ?Subroutine10 & 0xFFFF
// 1247       
// 1248         }        
??CrossCallReturnLabel_11:
        JC      ??zha_project_ProcessInReadRspCmd_18
// 1249         
// 1250         
// 1251         osal_set_event( zha_project_TaskID, ZHA_ACTIVE_EP_EVT );
        ; Setup parameters for call to function osal_set_event
        MOV     R2,#0x8
??zha_project_ProcessInReadRspCmd_16:
        MOV     R3,#0x0
        MOV     DPTR,#zha_project_TaskID
        MOVX    A,@DPTR
        MOV     R1,A
        LCALL   `??osal_set_event::?relay`; Banked call to: osal_set_event
// 1252         break;
        LJMP    ??zha_project_ProcessInReadRspCmd_10 & 0xFFFF
// 1253       case ZCL_CLUSTER_ID_GEN_ON_OFF:
// 1254         {
// 1255           for (i = 0; i < readRspCmd->numAttr; i++)
??zha_project_ProcessInReadRspCmd_2:
        MOV     R6,#0x0
??zha_project_ProcessInReadRspCmd_21:
        LCALL   ?Subroutine10 & 0xFFFF
??CrossCallReturnLabel_12:
        JC      $+5
        LJMP    ??zha_project_ProcessInReadRspCmd_10 & 0xFFFF
// 1256           {
// 1257             zclReadRspStatus_t *statusRec = &(readRspCmd->attrList[i]);
        LCALL   ?Subroutine8 & 0xFFFF
// 1258             j=statusRec->data;
// 1259             switch(statusRec->attrID)
??CrossCallReturnLabel_81:
        JNZ     ??zha_project_ProcessInReadRspCmd_22
// 1260             {
// 1261                 case ATTRID_ON_OFF:
// 1262                     uint16 buf[3];
// 1263                     osal_memset(buf,0,sizeof(buf));
        ; Setup parameters for call to function osal_memset
        MOV     R4,#0x6
        MOV     R5,#0x0
        MOV     R1,#0x0
        MOV     R2,?XSP + 0
        MOV     R3,?XSP + 1
        LCALL   `??osal_memset::?relay`; Banked call to: osal_memset
// 1264                     buf[0] = *j;
        LCALL   ?Subroutine20 & 0xFFFF
??CrossCallReturnLabel_41:
        LCALL   ??Subroutine45_0 & 0xFFFF
// 1265                     UpdateDeviceStatus1(pInMsg->srcAddr.addr.shortAddr,buf);
??CrossCallReturnLabel_121:
        LCALL   `??UpdateDeviceStatus1::?relay`; Banked call to: UpdateDeviceStatus1
// 1266                   break;
// 1267                 default:
// 1268                   break;
// 1269             }
// 1270 
// 1271           }
??zha_project_ProcessInReadRspCmd_22:
        INC     R6
        SJMP    ??zha_project_ProcessInReadRspCmd_21
// 1272       
// 1273         }
// 1274         break;
// 1275         case ZCL_CLUSTER_ID_LIGHTING_COLOR_CONTROL:
// 1276             {
// 1277                 for (i = 0; i < readRspCmd->numAttr; i++)
??zha_project_ProcessInReadRspCmd_4:
        MOV     R6,#0x0
??zha_project_ProcessInReadRspCmd_23:
        LCALL   ?Subroutine10 & 0xFFFF
??CrossCallReturnLabel_13:
        JC      $+5
        LJMP    ??zha_project_ProcessInReadRspCmd_10 & 0xFFFF
// 1278                 {
// 1279                     zclReadRspStatus_t *statusRec = &(readRspCmd->attrList[i]);
        MOV     A,R6
        MOV     B,#0x6
        LCALL   ??Subroutine41_0 & 0xFFFF
// 1280                     p=(uint16 *)statusRec->data;
??CrossCallReturnLabel_94:
        INC     DPTR
        LCALL   ?Subroutine15 & 0xFFFF
// 1281                     //j = zclSerializeData( statusRec->dataType, statusRec->data, j );
// 1282                     switch(statusRec->attrID)
??CrossCallReturnLabel_37:
        JNZ     ??zha_project_ProcessInReadRspCmd_24
        INC     DPTR
        MOVX    A,@DPTR
??zha_project_ProcessInReadRspCmd_24:
        JNZ     ??zha_project_ProcessInReadRspCmd_25
// 1283                     {
// 1284                         case ATTRID_LIGHTING_COLOR_CONTROL_COLOR_TEMPERATURE:
// 1285                             uint16 buf[3];
// 1286                             osal_memset(buf,0,sizeof(buf));
        ; Setup parameters for call to function osal_memset
        MOV     R4,#0x6
        MOV     R5,#0x0
        MOV     R1,#0x0
        MOV     R2,?XSP + 0
        MOV     R3,?XSP + 1
        LCALL   `??osal_memset::?relay`; Banked call to: osal_memset
// 1287                             buf[2] = *p;
        LCALL   ?Subroutine17 & 0xFFFF
??CrossCallReturnLabel_134:
        MOV     A,#0x4
        LCALL   ?XSTACK_DISP0_8
        LCALL   ??Subroutine44_0 & 0xFFFF
// 1288                             UpdateDeviceStatus3(pInMsg->srcAddr.addr.shortAddr,buf);
??CrossCallReturnLabel_119:
        LCALL   `??UpdateDeviceStatus3::?relay`; Banked call to: UpdateDeviceStatus3
// 1289                         break;
// 1290                         case ATTRID_LIGHTING_COLOR_CONTROL_CURRENT_HUE:
// 1291                             //zha_project_HUE_Status = *p;
// 1292                           break;
// 1293                         case ATTRID_LIGHTING_COLOR_CONTROL_CURRENT_SATURATION:
// 1294                             //zha_project_Saturation = *p;                        
// 1295                           break;
// 1296                         default:
// 1297                         break;
// 1298 
// 1299                     }
// 1300 
// 1301                 }
??zha_project_ProcessInReadRspCmd_25:
        INC     R6
        SJMP    ??zha_project_ProcessInReadRspCmd_23
// 1302 
// 1303              }
// 1304     
// 1305         break;
// 1306         case ZCL_CLUSTER_ID_SS_IAS_ZONE:
// 1307        {        uint16 supportOD = 0;
// 1308                 uint8 sensorType = 0;
// 1309                 for (i = 0; i < readRspCmd->numAttr; i++)
??zha_project_ProcessInReadRspCmd_8:
        MOV     R6,#0x0
        LJMP    ??zha_project_ProcessInReadRspCmd_26 & 0xFFFF
// 1310                 {
// 1311                     zclReadRspStatus_t *statusRec = &(readRspCmd->attrList[i]);
// 1312                     p=(uint16 *)statusRec->data;
// 1313                     //j = zclSerializeData( statusRec->dataType, statusRec->data, j );
// 1314                     switch(statusRec->attrID)
// 1315                     {
// 1316                         case ATTRID_SS_IAS_ZONE_STATUS:
// 1317                             uint16 buf[3];
// 1318                             osal_memset(buf,0,sizeof(buf));
// 1319                             buf[0] = *p;
// 1320                             UpdateDeviceStatus1(pInMsg->srcAddr.addr.shortAddr,buf);
// 1321                         break;
// 1322                         case ATTRID_SS_IAS_ZONE_TYPE:
// 1323                             zAddrType_t addr;
// 1324                             uint8 address[8];
// 1325                             uint8 pValue[Z_EXTADDR_LEN];
// 1326                             addr.addrMode = Addr64Bit;
??zha_project_ProcessInReadRspCmd_27:
        MOV     A,#0x2a
        LCALL   ?XSTACK_DISP0_8
        MOV     A,#0x3
        MOVX    @DPTR,A
// 1327                             osal_nv_read(ZCD_NV_EXTADDR ,0, Z_EXTADDR_LEN, pValue);
        ; Setup parameters for call to function osal_nv_read
        MOV     A,#0x12
        LCALL   ?XSTACK_DISP100_8
        MOV     ?V4,R0
        MOV     ?V5,R1
        MOV     R0,#?V4
        LCALL   ?PUSH_XSTACK_I_TWO
          CFI CFA_XSP16 add(XSP16, 65)
        MOV     ?V4,#0x8
        MOV     ?V5,#0x0
        MOV     R0,#?V4
        LCALL   ?PUSH_XSTACK_I_TWO
          CFI CFA_XSP16 add(XSP16, 67)
        MOV     R4,#0x0
        MOV     R5,#0x0
        MOV     R2,#0x1
        MOV     R3,#0x0
        LCALL   `??osal_nv_read::?relay`; Banked call to: osal_nv_read
        MOV     A,#0x4
        LCALL   ?DEALLOC_XSTACK8
          CFI CFA_XSP16 add(XSP16, 63)
// 1328                             //osal_memcpy(pValue,addr.addr.extAddr,8);
// 1329                             osal_memcpy(addr.addr.extAddr,pValue,8);
        ; Setup parameters for call to function osal_memcpy
        MOV     A,#0x12
        LCALL   ?XSTACK_DISP100_8
        MOV     ?V4,R0
        MOV     ?V5,R1
        MOV     ?V6,#0x0
        MOV     R0,#?V4
        LCALL   ?PUSH_XSTACK_I_THREE
          CFI CFA_XSP16 add(XSP16, 66)
        MOV     R4,#0x8
        MOV     R5,#0x0
        MOV     A,#0x25
        LCALL   ?XSTACK_DISP101_8
        LCALL   `??osal_memcpy::?relay`; Banked call to: osal_memcpy
        MOV     A,#0x3
        LCALL   ?DEALLOC_XSTACK8
          CFI CFA_XSP16 add(XSP16, 63)
// 1330                             //addr.addr.shortAddr=pSimpleDescRsp->nwkAddr;
// 1331                             APSME_LookupExtAddr(pInMsg->srcAddr.addr.shortAddr,address);
        ; Setup parameters for call to function APSME_LookupExtAddr
        MOV     A,#0x1a
        LCALL   ?XSTACK_DISP102_8
        LCALL   ??Subroutine37_0 & 0xFFFF
??CrossCallReturnLabel_69:
        LCALL   `??APSME_LookupExtAddr::?relay`; Banked call to: APSME_LookupExtAddr
// 1332                             ZDP_BindUnbindReq(Bind_req, &dstAddr, address,
// 1333                                                    1,
// 1334                                                    0x0020,
// 1335                                                    &addr,  pInMsg->endPoint,
// 1336                                                     FALSE );
        ; Setup parameters for call to function ZDP_BindUnbindReq
        MOV     ?V4,#0x0
        MOV     R0,#?V4
        LCALL   ?PUSH_XSTACK_I_ONE
          CFI CFA_XSP16 add(XSP16, 64)
        LCALL   ?Subroutine25 & 0xFFFF
??CrossCallReturnLabel_49:
        LCALL   ?PUSH_XSTACK_I_ONE
          CFI CFA_XSP16 add(XSP16, 65)
        MOV     A,#0x24
        LCALL   ?XSTACK_DISP100_8
        MOV     ?V4,R0
        MOV     ?V5,R1
        MOV     R0,#?V4
        LCALL   ?PUSH_XSTACK_I_TWO
          CFI CFA_XSP16 add(XSP16, 67)
        MOV     ?V4,#0x20
        MOV     ?V5,#0x0
        MOV     R0,#?V4
        LCALL   ?PUSH_XSTACK_I_TWO
          CFI CFA_XSP16 add(XSP16, 69)
        MOV     A,#0x20
        LCALL   ?XSTACK_DISP100_8
        MOV     ?V4,R0
        MOV     ?V5,R1
        MOV     R0,#?V4
        LCALL   ?PUSH_XSTACK_I_TWO
          CFI CFA_XSP16 add(XSP16, 71)
        MOV     R1,#0x1
        MOV     R4,#dstAddr & 0xff
        MOV     R5,#(dstAddr >> 8) & 0xff
        MOV     R2,#0x21
        MOV     R3,#0x0
        LCALL   `??ZDP_BindUnbindReq::?relay`; Banked call to: ZDP_BindUnbindReq
        MOV     A,#0x8
        LCALL   ?DEALLOC_XSTACK8
          CFI CFA_XSP16 add(XSP16, 63)
// 1337                             //zha_project_Smoke_Type = *p;
// 1338                             //uint16 buf[3];
// 1339                             osal_memset(buf,0,sizeof(buf));
        ; Setup parameters for call to function osal_memset
        MOV     R4,#0x6
        MOV     R5,#0x0
        MOV     R1,#0x0
        MOV     A,R4
        LCALL   ?XSTACK_DISP101_8
        LCALL   `??osal_memset::?relay`; Banked call to: osal_memset
// 1340                             buf[1] = *p;
        LCALL   ?Subroutine17 & 0xFFFF
??CrossCallReturnLabel_135:
        MOV     A,#0x8
        LCALL   ?XSTACK_DISP0_8
        LCALL   ?Subroutine6 & 0xFFFF
// 1341                             UpdateDeviceStatus2(pInMsg->srcAddr.addr.shortAddr,buf);
??CrossCallReturnLabel_6:
        LCALL   ?XSTACK_DISP102_8
        LCALL   ??Subroutine37_0 & 0xFFFF
??CrossCallReturnLabel_70:
        LCALL   `??UpdateDeviceStatus2::?relay`; Banked call to: UpdateDeviceStatus2
// 1342                             //zclSS_IAS_Send_ZoneStatusEnrollRequestCmd(0x01,&destAddr,zha_project_Smoke_Type,0,false,0);
// 1343                             SetTempDeviceType(pInMsg->srcAddr.addr.shortAddr,*p);
        ; Setup parameters for call to function SetTempDeviceType
        LCALL   ?Subroutine13 & 0xFFFF
??CrossCallReturnLabel_32:
        LCALL   `??SetTempDeviceType::?relay`; Banked call to: SetTempDeviceType
// 1344                          break;
??zha_project_ProcessInReadRspCmd_28:
        INC     R6
??zha_project_ProcessInReadRspCmd_26:
        LCALL   ?Subroutine10 & 0xFFFF
??CrossCallReturnLabel_14:
        JC      $+5
        LJMP    ??zha_project_ProcessInReadRspCmd_10 & 0xFFFF
        LCALL   ?Subroutine9 & 0xFFFF
??CrossCallReturnLabel_78:
        LCALL   ?US_SWITCH_DENSE
`?<Jumptable for zha_project_ProcessInReadRspCm_2`:
        DATA
        DATA16
        DATA
        DATA16
        DW        1
        DATA
        DATA8
        DATA
        DATA8
        DB        1
        DATA
        DATA16
        DATA
        DATA16
        DW        ??zha_project_ProcessInReadRspCmd_28
        DATA
        DATA16
        DATA
        DATA16
        DW        ??zha_project_ProcessInReadRspCmd_27
        DATA
        DATA16
        DATA
        DATA16
        DW        ??zha_project_ProcessInReadRspCmd_29
        CODE
??zha_project_ProcessInReadRspCmd_29:
        ; Setup parameters for call to function osal_memset
        MOV     R4,#0x6
        MOV     R5,#0x0
        MOV     R1,#0x0
        MOV     A,R4
        LCALL   ?XSTACK_DISP101_8
        LCALL   `??osal_memset::?relay`; Banked call to: osal_memset
        LCALL   ?Subroutine17 & 0xFFFF
??CrossCallReturnLabel_136:
        MOV     A,#0x6
        LCALL   ?XSTACK_DISP0_8
        LCALL   ?Subroutine6 & 0xFFFF
??CrossCallReturnLabel_7:
        LCALL   ?XSTACK_DISP102_8
        LCALL   ??Subroutine37_0 & 0xFFFF
??CrossCallReturnLabel_71:
        LCALL   `??UpdateDeviceStatus1::?relay`; Banked call to: UpdateDeviceStatus1
        SJMP    ??zha_project_ProcessInReadRspCmd_28
// 1345                       
// 1346                         default:
// 1347                         break;
// 1348 
// 1349                     }
// 1350 
// 1351                 }
// 1352 
// 1353              }
// 1354       
// 1355       break;
// 1356       case ZCL_CLUSTER_ID_SS_IAS_WD:
// 1357             {
// 1358                 for (i = 0; i < readRspCmd->numAttr; i++)
??zha_project_ProcessInReadRspCmd_9:
        MOV     R6,#0x0
        SJMP    ??zha_project_ProcessInReadRspCmd_30
// 1359                 {
// 1360                     zclReadRspStatus_t *statusRec = &(readRspCmd->attrList[i]);
// 1361                     j=statusRec->data;
// 1362                     switch(statusRec->attrID)
// 1363                     {
// 1364                         case COMMAND_SS_IAS_WD_START_WARNING:
// 1365                             //zha_project_Warning = *j;
// 1366                             uint16 buf[3];
// 1367                             osal_memset(buf,0,sizeof(buf));
// 1368                             //buf[0] = zha_project_Warning;
// 1369                             //UpdateDeviceStatus1(pInMsg->srcAddr.addr.shortAddr,buf);
// 1370                             break;
// 1371                         case COMMAND_SS_IAS_WD_SQUAWK:
// 1372                             //zha_project_WD_SQUAWK = *j;
// 1373                             //uint16 buf[3];
// 1374                             osal_memset(buf,0,sizeof(buf));
??zha_project_ProcessInReadRspCmd_31:
        ; Setup parameters for call to function osal_memset
        MOV     R4,#0x6
        MOV     R5,#0x0
        MOV     R1,#0x0
        MOV     A,#0xc
        LCALL   ?XSTACK_DISP101_8
        LCALL   `??osal_memset::?relay`; Banked call to: osal_memset
// 1375                            // buf[1] = zha_project_WD_SQUAWK;
// 1376                             //UpdateDeviceStatus2(pInMsg->srcAddr.addr.shortAddr,buf);
// 1377                             break;
// 1378 
// 1379                         default:
// 1380                             break;
// 1381 
// 1382                     }
??zha_project_ProcessInReadRspCmd_32:
        INC     R6
??zha_project_ProcessInReadRspCmd_30:
        LCALL   ?Subroutine10 & 0xFFFF
??CrossCallReturnLabel_15:
        JC      $+5
        LJMP    ??zha_project_ProcessInReadRspCmd_10 & 0xFFFF
        MOV     A,R6
        MOV     B,#0x6
        LCALL   ?Subroutine21 & 0xFFFF
// 1383 
// 1384                 }
// 1385 
// 1386              }        
??CrossCallReturnLabel_43:
        LCALL   ?US_SWITCH_DENSE
`?<Jumptable for zha_project_ProcessInReadRspCm_3`:
        DATA
        DATA16
        DATA
        DATA16
        DW        0
        DATA
        DATA8
        DATA
        DATA8
        DB        1
        DATA
        DATA16
        DATA
        DATA16
        DW        ??zha_project_ProcessInReadRspCmd_32
        DATA
        DATA16
        DATA
        DATA16
        DW        ??zha_project_ProcessInReadRspCmd_31
        DATA
        DATA16
        DATA
        DATA16
        DW        ??zha_project_ProcessInReadRspCmd_31
        CODE
// 1387         
// 1388         break;
// 1389       
// 1390       case ZCL_CLUSTER_ID_MS_TEMPERATURE_MEASUREMENT:
// 1391        {
// 1392                 for (i = 0; i < readRspCmd->numAttr; i++)
??zha_project_ProcessInReadRspCmd_6:
        MOV     R6,#0x0
??zha_project_ProcessInReadRspCmd_33:
        LCALL   ?Subroutine10 & 0xFFFF
??CrossCallReturnLabel_16:
        JC      $+5
        LJMP    ??zha_project_ProcessInReadRspCmd_10 & 0xFFFF
// 1393                 {
// 1394                     zclReadRspStatus_t *statusRec = &(readRspCmd->attrList[i]);
        LCALL   ?Subroutine8 & 0xFFFF
// 1395                     p=(uint16 *)statusRec->data;
// 1396                     switch(statusRec->attrID)
??CrossCallReturnLabel_82:
        JNZ     ??zha_project_ProcessInReadRspCmd_34
// 1397                     {
// 1398                         case ATTRID_MS_TEMPERATURE_MEASURED_VALUE:
// 1399                             //zha_project_Temperature_Value = *p;
// 1400                             uint16 buf[3];
// 1401                             osal_memset(buf,0,sizeof(buf));
        ; Setup parameters for call to function osal_memset
        MOV     R4,#0x6
        MOV     R5,#0x0
        MOV     R1,#0x0
        MOV     R2,?XSP + 0
        MOV     R3,?XSP + 1
        LCALL   `??osal_memset::?relay`; Banked call to: osal_memset
// 1402                             buf[0] = *p;
        LCALL   ?Subroutine3 & 0xFFFF
// 1403                             UpdateDeviceStatus1(pInMsg->srcAddr.addr.shortAddr,buf);
??CrossCallReturnLabel_113:
        LCALL   `??UpdateDeviceStatus1::?relay`; Banked call to: UpdateDeviceStatus1
// 1404                             
// 1405                         break;
// 1406                         default:
// 1407                         break;
// 1408 
// 1409                     }
// 1410 
// 1411                 }
??zha_project_ProcessInReadRspCmd_34:
        INC     R6
        SJMP    ??zha_project_ProcessInReadRspCmd_33
// 1412 
// 1413              }
// 1414          break;
// 1415         case ZCL_CLUSTER_ID_GEN_LEVEL_CONTROL:
// 1416            {
// 1417                 for (i = 0; i < readRspCmd->numAttr; i++)
??zha_project_ProcessInReadRspCmd_3:
        MOV     R6,#0x0
??zha_project_ProcessInReadRspCmd_35:
        LCALL   ?Subroutine10 & 0xFFFF
??CrossCallReturnLabel_17:
        JNC     ??zha_project_ProcessInReadRspCmd_10
// 1418                 {
// 1419                     zclReadRspStatus_t *statusRec = &(readRspCmd->attrList[i]);
        LCALL   ?Subroutine8 & 0xFFFF
// 1420                     j=statusRec->data;
// 1421                     //j = zclSerializeData( statusRec->dataType, statusRec->data, j );
// 1422                     switch(statusRec->attrID)
??CrossCallReturnLabel_83:
        JNZ     ??zha_project_ProcessInReadRspCmd_36
// 1423                     {
// 1424                         case ATTRID_MS_TEMPERATURE_MEASURED_VALUE:
// 1425                             uint16 buf[3];
// 1426                             osal_memset(buf,0,sizeof(buf));
        ; Setup parameters for call to function osal_memset
        MOV     R4,#0x6
        MOV     R5,#0x0
        MOV     R1,#0x0
        MOV     R2,?XSP + 0
        MOV     R3,?XSP + 1
        LCALL   `??osal_memset::?relay`; Banked call to: osal_memset
// 1427                             //zha_project_Level_to_Level = *j;
// 1428                             buf[1] = *j;
        MOV     DPL,?V2
        MOV     DPH,?V3
        MOVX    A,@DPTR
        MOV     R0,A
        MOV     A,#0x2
        LCALL   ?XSTACK_DISP0_8
        MOV     A,R0
        MOVX    @DPTR,A
        INC     DPTR
        CLR     A
        LCALL   ??Subroutine45_0 & 0xFFFF
// 1429                             UpdateDeviceStatus2(pInMsg->srcAddr.addr.shortAddr,buf); 
??CrossCallReturnLabel_122:
        LCALL   `??UpdateDeviceStatus2::?relay`; Banked call to: UpdateDeviceStatus2
// 1430                         break;
// 1431                         default:
// 1432                         break;
// 1433 
// 1434                     }
// 1435 
// 1436                 }
??zha_project_ProcessInReadRspCmd_36:
        INC     R6
        SJMP    ??zha_project_ProcessInReadRspCmd_35
// 1437 
// 1438              }
// 1439     
// 1440         break;
// 1441       case ZCL_CLUSTER_ID_MS_RELATIVE_HUMIDITY:
// 1442            {
// 1443                 for (i = 0; i < readRspCmd->numAttr; i++)
??zha_project_ProcessInReadRspCmd_7:
        MOV     R6,#0x0
??zha_project_ProcessInReadRspCmd_37:
        LCALL   ?Subroutine10 & 0xFFFF
??CrossCallReturnLabel_18:
        JNC     ??zha_project_ProcessInReadRspCmd_10
// 1444                 {
// 1445                     zclReadRspStatus_t *statusRec = &(readRspCmd->attrList[i]);
        LCALL   ?Subroutine8 & 0xFFFF
// 1446                     p=(uint16 *)statusRec->data;
// 1447                     //j = zclSerializeData( statusRec->dataType, statusRec->data, j );
// 1448                     switch(statusRec->attrID)
??CrossCallReturnLabel_84:
        JNZ     ??zha_project_ProcessInReadRspCmd_38
// 1449                     {
// 1450                         case ATTRID_MS_RELATIVE_HUMIDITY_MEASURED_VALUE:
// 1451                             //zha_project_Humidity_Value = *p;
// 1452                             uint16 buf[3];
// 1453                             osal_memset(buf,0,sizeof(buf));
        ; Setup parameters for call to function osal_memset
        MOV     R4,#0x6
        MOV     R5,#0x0
        MOV     R1,#0x0
        MOV     R2,?XSP + 0
        MOV     R3,?XSP + 1
        LCALL   `??osal_memset::?relay`; Banked call to: osal_memset
// 1454                             buf[0] = *p;
        LCALL   ?Subroutine3 & 0xFFFF
// 1455                             UpdateDeviceStatus1(pInMsg->srcAddr.addr.shortAddr,buf);
??CrossCallReturnLabel_114:
        LCALL   `??UpdateDeviceStatus1::?relay`; Banked call to: UpdateDeviceStatus1
// 1456                             
// 1457                         break;
// 1458                         default:
// 1459                         break;
// 1460 
// 1461                     }
// 1462 
// 1463                 }
??zha_project_ProcessInReadRspCmd_38:
        INC     R6
        SJMP    ??zha_project_ProcessInReadRspCmd_37
// 1464 
// 1465              }     
// 1466         
// 1467         
// 1468         break;   
// 1469       case ZCL_CLUSTER_ID_MS_ILLUMINANCE_MEASUREMENT:
// 1470            {
// 1471                 for (i = 0; i < readRspCmd->numAttr; i++)
??zha_project_ProcessInReadRspCmd_5:
        MOV     R6,#0x0
        SJMP    ??zha_project_ProcessInReadRspCmd_39
// 1472                 {
// 1473                     zclReadRspStatus_t *statusRec = &(readRspCmd->attrList[i]);
??zha_project_ProcessInReadRspCmd_40:
        LCALL   ?Subroutine8 & 0xFFFF
// 1474                     p=(uint16 *)statusRec->data;
// 1475                     //j = zclSerializeData( statusRec->dataType, statusRec->data, j );
// 1476                     switch(statusRec->attrID)
??CrossCallReturnLabel_85:
        JNZ     ??zha_project_ProcessInReadRspCmd_41
// 1477                     {
// 1478                         case ATTRID_MS_ILLUMINANCE_MEASURED_VALUE:
// 1479                             //zha_project_Illumiance_Value = *p;
// 1480                             uint16 buf[3];
// 1481                             osal_memset(buf,0,sizeof(buf));
        ; Setup parameters for call to function osal_memset
        MOV     R4,#0x6
        MOV     R5,#0x0
        MOV     R1,#0x0
        MOV     R2,?XSP + 0
        MOV     R3,?XSP + 1
        LCALL   `??osal_memset::?relay`; Banked call to: osal_memset
// 1482                             buf[0] = *p;
        LCALL   ?Subroutine3 & 0xFFFF
// 1483                             UpdateDeviceStatus1(pInMsg->srcAddr.addr.shortAddr,buf);
??CrossCallReturnLabel_115:
        LCALL   `??UpdateDeviceStatus1::?relay`; Banked call to: UpdateDeviceStatus1
// 1484                             
// 1485                         break;
// 1486                         default:
// 1487                         break;
// 1488 
// 1489                     }
// 1490 
// 1491                 }
??zha_project_ProcessInReadRspCmd_41:
        INC     R6
??zha_project_ProcessInReadRspCmd_39:
        LCALL   ?Subroutine10 & 0xFFFF
// 1492 
// 1493              }          
// 1494         
// 1495         
// 1496         break;
// 1497       default:
// 1498         break;
// 1499     //ReadRspStatus.attrID = readRspCmd->attrList;
// 1500     // Notify the originator of the results of the original read attributes 
// 1501     // attempt and, for each successfull request, the value of the requested 
// 1502     // attribute
// 1503 #endif
// 1504   }
??CrossCallReturnLabel_19:
        JC      ??zha_project_ProcessInReadRspCmd_40
// 1505 
// 1506   
// 1507   
// 1508   return TRUE; 
??zha_project_ProcessInReadRspCmd_10:
          CFI EndBlock cfiBlock29
        REQUIRE ?Subroutine2
        ; // Fall through to label ?Subroutine2
// 1509 }

        RSEG BANKED_CODE:CODE:NOROOT(0)
?Subroutine2:
          CFI Block cfiBlock30 Using cfiCommon0
          CFI NoFunction
          CFI CFA_SP SP+0
          CFI CFA_XSP16 add(XSP16, 63)
          CFI VB load(1, XDATA, add(CFA_XSP16, literal(-19)))
          CFI DPL0 load(1, XDATA, add(CFA_XSP16, literal(-2)))
          CFI DPH0 load(1, XDATA, add(CFA_XSP16, literal(-1)))
          CFI R6 load(1, XDATA, add(CFA_XSP16, literal(-20)))
          CFI R7 load(1, XDATA, add(CFA_XSP16, literal(-6)))
          CFI V0 load(1, XDATA, add(CFA_XSP16, literal(-18)))
          CFI V1 load(1, XDATA, add(CFA_XSP16, literal(-17)))
          CFI V2 load(1, XDATA, add(CFA_XSP16, literal(-16)))
          CFI V3 load(1, XDATA, add(CFA_XSP16, literal(-15)))
          CFI V4 load(1, XDATA, add(CFA_XSP16, literal(-14)))
          CFI V5 load(1, XDATA, add(CFA_XSP16, literal(-13)))
          CFI V6 load(1, XDATA, add(CFA_XSP16, literal(-12)))
          CFI V7 load(1, XDATA, add(CFA_XSP16, literal(-11)))
          CFI V8 load(1, XDATA, add(CFA_XSP16, literal(-10)))
          CFI V9 load(1, XDATA, add(CFA_XSP16, literal(-9)))
          CFI V10 load(1, XDATA, add(CFA_XSP16, literal(-8)))
          CFI V11 load(1, XDATA, add(CFA_XSP16, literal(-7)))
          CFI ?BRET_EXT load(1, XDATA, add(CFA_XSP16, literal(-3)))
          CFI ?RET_HIGH load(1, XDATA, add(CFA_XSP16, literal(-4)))
          CFI ?RET_LOW load(1, XDATA, add(CFA_XSP16, literal(-5)))
        MOV     R1,#0x1
        MOV     A,#0x2b
        LCALL   ?DEALLOC_XSTACK8
          CFI CFA_XSP16 add(XSP16, 20)
        MOV     R7,#0xc
        LJMP    ?BANKED_LEAVE_XDATA
          CFI EndBlock cfiBlock30

        RSEG BANKED_CODE:CODE:NOROOT(0)
?Subroutine19:
          CFI Block cfiCond31 Using cfiCommon0
          CFI Function zha_project_ProcessInReadRspCmd
          CFI Conditional ??CrossCallReturnLabel_75
          CFI R6 load(1, XDATA, add(CFA_XSP16, literal(-20)))
          CFI VB load(1, XDATA, add(CFA_XSP16, literal(-19)))
          CFI V0 load(1, XDATA, add(CFA_XSP16, literal(-18)))
          CFI V1 load(1, XDATA, add(CFA_XSP16, literal(-17)))
          CFI V2 load(1, XDATA, add(CFA_XSP16, literal(-16)))
          CFI V3 load(1, XDATA, add(CFA_XSP16, literal(-15)))
          CFI V4 load(1, XDATA, add(CFA_XSP16, literal(-14)))
          CFI V5 load(1, XDATA, add(CFA_XSP16, literal(-13)))
          CFI V6 load(1, XDATA, add(CFA_XSP16, literal(-12)))
          CFI V7 load(1, XDATA, add(CFA_XSP16, literal(-11)))
          CFI V8 load(1, XDATA, add(CFA_XSP16, literal(-10)))
          CFI V9 load(1, XDATA, add(CFA_XSP16, literal(-9)))
          CFI V10 load(1, XDATA, add(CFA_XSP16, literal(-8)))
          CFI V11 load(1, XDATA, add(CFA_XSP16, literal(-7)))
          CFI R7 load(1, XDATA, add(CFA_XSP16, literal(-6)))
          CFI ?RET_LOW load(1, XDATA, add(CFA_XSP16, literal(-5)))
          CFI ?RET_HIGH load(1, XDATA, add(CFA_XSP16, literal(-4)))
          CFI ?BRET_EXT load(1, XDATA, add(CFA_XSP16, literal(-3)))
          CFI DPL0 load(1, XDATA, add(CFA_XSP16, literal(-2)))
          CFI DPH0 load(1, XDATA, add(CFA_XSP16, literal(-1)))
          CFI CFA_SP SP+-2
          CFI CFA_XSP16 add(XSP16, 63)
          CFI Block cfiCond32 Using cfiCommon0
          CFI (cfiCond32) Function zha_project_ProcessInReportCmd
          CFI (cfiCond32) Conditional ??CrossCallReturnLabel_76
          CFI (cfiCond32) R6 load(1, XDATA, add(CFA_XSP16, literal(-20)))
          CFI (cfiCond32) VB load(1, XDATA, add(CFA_XSP16, literal(-19)))
          CFI (cfiCond32) V0 load(1, XDATA, add(CFA_XSP16, literal(-18)))
          CFI (cfiCond32) V1 load(1, XDATA, add(CFA_XSP16, literal(-17)))
          CFI (cfiCond32) V2 load(1, XDATA, add(CFA_XSP16, literal(-16)))
          CFI (cfiCond32) V3 load(1, XDATA, add(CFA_XSP16, literal(-15)))
          CFI (cfiCond32) V4 load(1, XDATA, add(CFA_XSP16, literal(-14)))
          CFI (cfiCond32) V5 load(1, XDATA, add(CFA_XSP16, literal(-13)))
          CFI (cfiCond32) V6 load(1, XDATA, add(CFA_XSP16, literal(-12)))
          CFI (cfiCond32) V7 load(1, XDATA, add(CFA_XSP16, literal(-11)))
          CFI (cfiCond32) V8 load(1, XDATA, add(CFA_XSP16, literal(-10)))
          CFI (cfiCond32) V9 load(1, XDATA, add(CFA_XSP16, literal(-9)))
          CFI (cfiCond32) V10 load(1, XDATA, add(CFA_XSP16, literal(-8)))
          CFI (cfiCond32) V11 load(1, XDATA, add(CFA_XSP16, literal(-7)))
          CFI (cfiCond32) R7 load(1, XDATA, add(CFA_XSP16, literal(-6)))
          CFI (cfiCond32) ?RET_LOW load(1, XDATA, add(CFA_XSP16, literal(-5)))
          CFI (cfiCond32) ?RET_HIGH load(1, XDATA, add(CFA_XSP16, literal(-4)))
          CFI (cfiCond32) ?BRET_EXT load(1, XDATA, add(CFA_XSP16, literal(-3)))
          CFI (cfiCond32) DPL0 load(1, XDATA, add(CFA_XSP16, literal(-2)))
          CFI (cfiCond32) DPH0 load(1, XDATA, add(CFA_XSP16, literal(-1)))
          CFI (cfiCond32) CFA_SP SP+-2
          CFI (cfiCond32) CFA_XSP16 add(XSP16, 63)
          CFI Block cfiPicker33 Using cfiCommon1
          CFI (cfiPicker33) NoFunction
          CFI (cfiPicker33) Picker
        MOV     R4,?V2
        MOV     R5,?V3
          CFI EndBlock cfiCond31
          CFI EndBlock cfiCond32
          CFI EndBlock cfiPicker33
        REQUIRE ??Subroutine37_0
        ; // Fall through to label ??Subroutine37_0

        RSEG BANKED_CODE:CODE:NOROOT(0)
??Subroutine37_0:
          CFI Block cfiCond34 Using cfiCommon0
          CFI Function zha_project_ProcessInReadRspCmd
          CFI Conditional ??CrossCallReturnLabel_69
          CFI R6 load(1, XDATA, add(CFA_XSP16, literal(-20)))
          CFI VB load(1, XDATA, add(CFA_XSP16, literal(-19)))
          CFI V0 load(1, XDATA, add(CFA_XSP16, literal(-18)))
          CFI V1 load(1, XDATA, add(CFA_XSP16, literal(-17)))
          CFI V2 load(1, XDATA, add(CFA_XSP16, literal(-16)))
          CFI V3 load(1, XDATA, add(CFA_XSP16, literal(-15)))
          CFI V4 load(1, XDATA, add(CFA_XSP16, literal(-14)))
          CFI V5 load(1, XDATA, add(CFA_XSP16, literal(-13)))
          CFI V6 load(1, XDATA, add(CFA_XSP16, literal(-12)))
          CFI V7 load(1, XDATA, add(CFA_XSP16, literal(-11)))
          CFI V8 load(1, XDATA, add(CFA_XSP16, literal(-10)))
          CFI V9 load(1, XDATA, add(CFA_XSP16, literal(-9)))
          CFI V10 load(1, XDATA, add(CFA_XSP16, literal(-8)))
          CFI V11 load(1, XDATA, add(CFA_XSP16, literal(-7)))
          CFI R7 load(1, XDATA, add(CFA_XSP16, literal(-6)))
          CFI ?RET_LOW load(1, XDATA, add(CFA_XSP16, literal(-5)))
          CFI ?RET_HIGH load(1, XDATA, add(CFA_XSP16, literal(-4)))
          CFI ?BRET_EXT load(1, XDATA, add(CFA_XSP16, literal(-3)))
          CFI DPL0 load(1, XDATA, add(CFA_XSP16, literal(-2)))
          CFI DPH0 load(1, XDATA, add(CFA_XSP16, literal(-1)))
          CFI CFA_SP SP+-2
          CFI CFA_XSP16 add(XSP16, 63)
          CFI Block cfiCond35 Using cfiCommon0
          CFI (cfiCond35) Function zha_project_ProcessInReadRspCmd
          CFI (cfiCond35) Conditional ??CrossCallReturnLabel_70
          CFI (cfiCond35) R6 load(1, XDATA, add(CFA_XSP16, literal(-20)))
          CFI (cfiCond35) VB load(1, XDATA, add(CFA_XSP16, literal(-19)))
          CFI (cfiCond35) V0 load(1, XDATA, add(CFA_XSP16, literal(-18)))
          CFI (cfiCond35) V1 load(1, XDATA, add(CFA_XSP16, literal(-17)))
          CFI (cfiCond35) V2 load(1, XDATA, add(CFA_XSP16, literal(-16)))
          CFI (cfiCond35) V3 load(1, XDATA, add(CFA_XSP16, literal(-15)))
          CFI (cfiCond35) V4 load(1, XDATA, add(CFA_XSP16, literal(-14)))
          CFI (cfiCond35) V5 load(1, XDATA, add(CFA_XSP16, literal(-13)))
          CFI (cfiCond35) V6 load(1, XDATA, add(CFA_XSP16, literal(-12)))
          CFI (cfiCond35) V7 load(1, XDATA, add(CFA_XSP16, literal(-11)))
          CFI (cfiCond35) V8 load(1, XDATA, add(CFA_XSP16, literal(-10)))
          CFI (cfiCond35) V9 load(1, XDATA, add(CFA_XSP16, literal(-9)))
          CFI (cfiCond35) V10 load(1, XDATA, add(CFA_XSP16, literal(-8)))
          CFI (cfiCond35) V11 load(1, XDATA, add(CFA_XSP16, literal(-7)))
          CFI (cfiCond35) R7 load(1, XDATA, add(CFA_XSP16, literal(-6)))
          CFI (cfiCond35) ?RET_LOW load(1, XDATA, add(CFA_XSP16, literal(-5)))
          CFI (cfiCond35) ?RET_HIGH load(1, XDATA, add(CFA_XSP16, literal(-4)))
          CFI (cfiCond35) ?BRET_EXT load(1, XDATA, add(CFA_XSP16, literal(-3)))
          CFI (cfiCond35) DPL0 load(1, XDATA, add(CFA_XSP16, literal(-2)))
          CFI (cfiCond35) DPH0 load(1, XDATA, add(CFA_XSP16, literal(-1)))
          CFI (cfiCond35) CFA_SP SP+-2
          CFI (cfiCond35) CFA_XSP16 add(XSP16, 63)
          CFI Block cfiCond36 Using cfiCommon0
          CFI (cfiCond36) Function zha_project_ProcessInReadRspCmd
          CFI (cfiCond36) Conditional ??CrossCallReturnLabel_71
          CFI (cfiCond36) R6 load(1, XDATA, add(CFA_XSP16, literal(-20)))
          CFI (cfiCond36) VB load(1, XDATA, add(CFA_XSP16, literal(-19)))
          CFI (cfiCond36) V0 load(1, XDATA, add(CFA_XSP16, literal(-18)))
          CFI (cfiCond36) V1 load(1, XDATA, add(CFA_XSP16, literal(-17)))
          CFI (cfiCond36) V2 load(1, XDATA, add(CFA_XSP16, literal(-16)))
          CFI (cfiCond36) V3 load(1, XDATA, add(CFA_XSP16, literal(-15)))
          CFI (cfiCond36) V4 load(1, XDATA, add(CFA_XSP16, literal(-14)))
          CFI (cfiCond36) V5 load(1, XDATA, add(CFA_XSP16, literal(-13)))
          CFI (cfiCond36) V6 load(1, XDATA, add(CFA_XSP16, literal(-12)))
          CFI (cfiCond36) V7 load(1, XDATA, add(CFA_XSP16, literal(-11)))
          CFI (cfiCond36) V8 load(1, XDATA, add(CFA_XSP16, literal(-10)))
          CFI (cfiCond36) V9 load(1, XDATA, add(CFA_XSP16, literal(-9)))
          CFI (cfiCond36) V10 load(1, XDATA, add(CFA_XSP16, literal(-8)))
          CFI (cfiCond36) V11 load(1, XDATA, add(CFA_XSP16, literal(-7)))
          CFI (cfiCond36) R7 load(1, XDATA, add(CFA_XSP16, literal(-6)))
          CFI (cfiCond36) ?RET_LOW load(1, XDATA, add(CFA_XSP16, literal(-5)))
          CFI (cfiCond36) ?RET_HIGH load(1, XDATA, add(CFA_XSP16, literal(-4)))
          CFI (cfiCond36) ?BRET_EXT load(1, XDATA, add(CFA_XSP16, literal(-3)))
          CFI (cfiCond36) DPL0 load(1, XDATA, add(CFA_XSP16, literal(-2)))
          CFI (cfiCond36) DPH0 load(1, XDATA, add(CFA_XSP16, literal(-1)))
          CFI (cfiCond36) CFA_SP SP+-2
          CFI (cfiCond36) CFA_XSP16 add(XSP16, 63)
          CFI Block cfiCond37 Using cfiCommon0
          CFI (cfiCond37) Function zha_project_ProcessInReportCmd
          CFI (cfiCond37) Conditional ??CrossCallReturnLabel_72
          CFI (cfiCond37) R6 load(1, XDATA, add(CFA_XSP16, literal(-20)))
          CFI (cfiCond37) VB load(1, XDATA, add(CFA_XSP16, literal(-19)))
          CFI (cfiCond37) V0 load(1, XDATA, add(CFA_XSP16, literal(-18)))
          CFI (cfiCond37) V1 load(1, XDATA, add(CFA_XSP16, literal(-17)))
          CFI (cfiCond37) V2 load(1, XDATA, add(CFA_XSP16, literal(-16)))
          CFI (cfiCond37) V3 load(1, XDATA, add(CFA_XSP16, literal(-15)))
          CFI (cfiCond37) V4 load(1, XDATA, add(CFA_XSP16, literal(-14)))
          CFI (cfiCond37) V5 load(1, XDATA, add(CFA_XSP16, literal(-13)))
          CFI (cfiCond37) V6 load(1, XDATA, add(CFA_XSP16, literal(-12)))
          CFI (cfiCond37) V7 load(1, XDATA, add(CFA_XSP16, literal(-11)))
          CFI (cfiCond37) V8 load(1, XDATA, add(CFA_XSP16, literal(-10)))
          CFI (cfiCond37) V9 load(1, XDATA, add(CFA_XSP16, literal(-9)))
          CFI (cfiCond37) V10 load(1, XDATA, add(CFA_XSP16, literal(-8)))
          CFI (cfiCond37) V11 load(1, XDATA, add(CFA_XSP16, literal(-7)))
          CFI (cfiCond37) R7 load(1, XDATA, add(CFA_XSP16, literal(-6)))
          CFI (cfiCond37) ?RET_LOW load(1, XDATA, add(CFA_XSP16, literal(-5)))
          CFI (cfiCond37) ?RET_HIGH load(1, XDATA, add(CFA_XSP16, literal(-4)))
          CFI (cfiCond37) ?BRET_EXT load(1, XDATA, add(CFA_XSP16, literal(-3)))
          CFI (cfiCond37) DPL0 load(1, XDATA, add(CFA_XSP16, literal(-2)))
          CFI (cfiCond37) DPH0 load(1, XDATA, add(CFA_XSP16, literal(-1)))
          CFI (cfiCond37) CFA_SP SP+-2
          CFI (cfiCond37) CFA_XSP16 add(XSP16, 63)
          CFI Block cfiCond38 Using cfiCommon0
          CFI (cfiCond38) Function zha_project_ProcessInReportCmd
          CFI (cfiCond38) Conditional ??CrossCallReturnLabel_73
          CFI (cfiCond38) R6 load(1, XDATA, add(CFA_XSP16, literal(-20)))
          CFI (cfiCond38) VB load(1, XDATA, add(CFA_XSP16, literal(-19)))
          CFI (cfiCond38) V0 load(1, XDATA, add(CFA_XSP16, literal(-18)))
          CFI (cfiCond38) V1 load(1, XDATA, add(CFA_XSP16, literal(-17)))
          CFI (cfiCond38) V2 load(1, XDATA, add(CFA_XSP16, literal(-16)))
          CFI (cfiCond38) V3 load(1, XDATA, add(CFA_XSP16, literal(-15)))
          CFI (cfiCond38) V4 load(1, XDATA, add(CFA_XSP16, literal(-14)))
          CFI (cfiCond38) V5 load(1, XDATA, add(CFA_XSP16, literal(-13)))
          CFI (cfiCond38) V6 load(1, XDATA, add(CFA_XSP16, literal(-12)))
          CFI (cfiCond38) V7 load(1, XDATA, add(CFA_XSP16, literal(-11)))
          CFI (cfiCond38) V8 load(1, XDATA, add(CFA_XSP16, literal(-10)))
          CFI (cfiCond38) V9 load(1, XDATA, add(CFA_XSP16, literal(-9)))
          CFI (cfiCond38) V10 load(1, XDATA, add(CFA_XSP16, literal(-8)))
          CFI (cfiCond38) V11 load(1, XDATA, add(CFA_XSP16, literal(-7)))
          CFI (cfiCond38) R7 load(1, XDATA, add(CFA_XSP16, literal(-6)))
          CFI (cfiCond38) ?RET_LOW load(1, XDATA, add(CFA_XSP16, literal(-5)))
          CFI (cfiCond38) ?RET_HIGH load(1, XDATA, add(CFA_XSP16, literal(-4)))
          CFI (cfiCond38) ?BRET_EXT load(1, XDATA, add(CFA_XSP16, literal(-3)))
          CFI (cfiCond38) DPL0 load(1, XDATA, add(CFA_XSP16, literal(-2)))
          CFI (cfiCond38) DPH0 load(1, XDATA, add(CFA_XSP16, literal(-1)))
          CFI (cfiCond38) CFA_SP SP+-2
          CFI (cfiCond38) CFA_XSP16 add(XSP16, 63)
          CFI Block cfiCond39 Using cfiCommon0
          CFI (cfiCond39) Function zha_project_ProcessInReportCmd
          CFI (cfiCond39) Conditional ??CrossCallReturnLabel_74
          CFI (cfiCond39) R6 load(1, XDATA, add(CFA_XSP16, literal(-20)))
          CFI (cfiCond39) VB load(1, XDATA, add(CFA_XSP16, literal(-19)))
          CFI (cfiCond39) V0 load(1, XDATA, add(CFA_XSP16, literal(-18)))
          CFI (cfiCond39) V1 load(1, XDATA, add(CFA_XSP16, literal(-17)))
          CFI (cfiCond39) V2 load(1, XDATA, add(CFA_XSP16, literal(-16)))
          CFI (cfiCond39) V3 load(1, XDATA, add(CFA_XSP16, literal(-15)))
          CFI (cfiCond39) V4 load(1, XDATA, add(CFA_XSP16, literal(-14)))
          CFI (cfiCond39) V5 load(1, XDATA, add(CFA_XSP16, literal(-13)))
          CFI (cfiCond39) V6 load(1, XDATA, add(CFA_XSP16, literal(-12)))
          CFI (cfiCond39) V7 load(1, XDATA, add(CFA_XSP16, literal(-11)))
          CFI (cfiCond39) V8 load(1, XDATA, add(CFA_XSP16, literal(-10)))
          CFI (cfiCond39) V9 load(1, XDATA, add(CFA_XSP16, literal(-9)))
          CFI (cfiCond39) V10 load(1, XDATA, add(CFA_XSP16, literal(-8)))
          CFI (cfiCond39) V11 load(1, XDATA, add(CFA_XSP16, literal(-7)))
          CFI (cfiCond39) R7 load(1, XDATA, add(CFA_XSP16, literal(-6)))
          CFI (cfiCond39) ?RET_LOW load(1, XDATA, add(CFA_XSP16, literal(-5)))
          CFI (cfiCond39) ?RET_HIGH load(1, XDATA, add(CFA_XSP16, literal(-4)))
          CFI (cfiCond39) ?BRET_EXT load(1, XDATA, add(CFA_XSP16, literal(-3)))
          CFI (cfiCond39) DPL0 load(1, XDATA, add(CFA_XSP16, literal(-2)))
          CFI (cfiCond39) DPH0 load(1, XDATA, add(CFA_XSP16, literal(-1)))
          CFI (cfiCond39) CFA_SP SP+-2
          CFI (cfiCond39) CFA_XSP16 add(XSP16, 63)
          CFI Block cfiCond40 Using cfiCommon0
          CFI (cfiCond40) Function zha_project_ProcessInReadRspCmd
          CFI (cfiCond40) Conditional ??CrossCallReturnLabel_75
          CFI (cfiCond40) R6 load(1, XDATA, add(CFA_XSP16, literal(-20)))
          CFI (cfiCond40) VB load(1, XDATA, add(CFA_XSP16, literal(-19)))
          CFI (cfiCond40) V0 load(1, XDATA, add(CFA_XSP16, literal(-18)))
          CFI (cfiCond40) V1 load(1, XDATA, add(CFA_XSP16, literal(-17)))
          CFI (cfiCond40) V2 load(1, XDATA, add(CFA_XSP16, literal(-16)))
          CFI (cfiCond40) V3 load(1, XDATA, add(CFA_XSP16, literal(-15)))
          CFI (cfiCond40) V4 load(1, XDATA, add(CFA_XSP16, literal(-14)))
          CFI (cfiCond40) V5 load(1, XDATA, add(CFA_XSP16, literal(-13)))
          CFI (cfiCond40) V6 load(1, XDATA, add(CFA_XSP16, literal(-12)))
          CFI (cfiCond40) V7 load(1, XDATA, add(CFA_XSP16, literal(-11)))
          CFI (cfiCond40) V8 load(1, XDATA, add(CFA_XSP16, literal(-10)))
          CFI (cfiCond40) V9 load(1, XDATA, add(CFA_XSP16, literal(-9)))
          CFI (cfiCond40) V10 load(1, XDATA, add(CFA_XSP16, literal(-8)))
          CFI (cfiCond40) V11 load(1, XDATA, add(CFA_XSP16, literal(-7)))
          CFI (cfiCond40) R7 load(1, XDATA, add(CFA_XSP16, literal(-6)))
          CFI (cfiCond40) ?RET_LOW load(1, XDATA, add(CFA_XSP16, literal(-5)))
          CFI (cfiCond40) ?RET_HIGH load(1, XDATA, add(CFA_XSP16, literal(-4)))
          CFI (cfiCond40) ?BRET_EXT load(1, XDATA, add(CFA_XSP16, literal(-3)))
          CFI (cfiCond40) DPL0 load(1, XDATA, add(CFA_XSP16, literal(-2)))
          CFI (cfiCond40) DPH0 load(1, XDATA, add(CFA_XSP16, literal(-1)))
          CFI (cfiCond40) CFA_SP SP+-2
          CFI (cfiCond40) CFA_XSP16 add(XSP16, 63)
          CFI Block cfiCond41 Using cfiCommon0
          CFI (cfiCond41) Function zha_project_ProcessInReportCmd
          CFI (cfiCond41) Conditional ??CrossCallReturnLabel_76
          CFI (cfiCond41) R6 load(1, XDATA, add(CFA_XSP16, literal(-20)))
          CFI (cfiCond41) VB load(1, XDATA, add(CFA_XSP16, literal(-19)))
          CFI (cfiCond41) V0 load(1, XDATA, add(CFA_XSP16, literal(-18)))
          CFI (cfiCond41) V1 load(1, XDATA, add(CFA_XSP16, literal(-17)))
          CFI (cfiCond41) V2 load(1, XDATA, add(CFA_XSP16, literal(-16)))
          CFI (cfiCond41) V3 load(1, XDATA, add(CFA_XSP16, literal(-15)))
          CFI (cfiCond41) V4 load(1, XDATA, add(CFA_XSP16, literal(-14)))
          CFI (cfiCond41) V5 load(1, XDATA, add(CFA_XSP16, literal(-13)))
          CFI (cfiCond41) V6 load(1, XDATA, add(CFA_XSP16, literal(-12)))
          CFI (cfiCond41) V7 load(1, XDATA, add(CFA_XSP16, literal(-11)))
          CFI (cfiCond41) V8 load(1, XDATA, add(CFA_XSP16, literal(-10)))
          CFI (cfiCond41) V9 load(1, XDATA, add(CFA_XSP16, literal(-9)))
          CFI (cfiCond41) V10 load(1, XDATA, add(CFA_XSP16, literal(-8)))
          CFI (cfiCond41) V11 load(1, XDATA, add(CFA_XSP16, literal(-7)))
          CFI (cfiCond41) R7 load(1, XDATA, add(CFA_XSP16, literal(-6)))
          CFI (cfiCond41) ?RET_LOW load(1, XDATA, add(CFA_XSP16, literal(-5)))
          CFI (cfiCond41) ?RET_HIGH load(1, XDATA, add(CFA_XSP16, literal(-4)))
          CFI (cfiCond41) ?BRET_EXT load(1, XDATA, add(CFA_XSP16, literal(-3)))
          CFI (cfiCond41) DPL0 load(1, XDATA, add(CFA_XSP16, literal(-2)))
          CFI (cfiCond41) DPH0 load(1, XDATA, add(CFA_XSP16, literal(-1)))
          CFI (cfiCond41) CFA_SP SP+-2
          CFI (cfiCond41) CFA_XSP16 add(XSP16, 63)
          CFI Block cfiPicker42 Using cfiCommon1
          CFI (cfiPicker42) NoFunction
          CFI (cfiPicker42) Picker
        MOV     DPL,?V8
        MOV     DPH,?V9
          CFI EndBlock cfiCond34
          CFI EndBlock cfiCond35
          CFI EndBlock cfiCond36
          CFI EndBlock cfiCond37
          CFI EndBlock cfiCond38
          CFI EndBlock cfiCond39
          CFI EndBlock cfiCond40
          CFI EndBlock cfiCond41
          CFI EndBlock cfiPicker42
        REQUIRE ??Subroutine38_0
        ; // Fall through to label ??Subroutine38_0

        RSEG BANKED_CODE:CODE:NOROOT(0)
??Subroutine38_0:
          CFI Block cfiCond43 Using cfiCommon0
          CFI Function zha_project_HandleKeys
          CFI Conditional ??CrossCallReturnLabel_64
          CFI R6 load(1, XDATA, add(CFA_XSP16, literal(-10)))
          CFI VB load(1, XDATA, add(CFA_XSP16, literal(-9)))
          CFI V0 load(1, XDATA, add(CFA_XSP16, literal(-8)))
          CFI V1 load(1, XDATA, add(CFA_XSP16, literal(-7)))
          CFI R7 load(1, XDATA, add(CFA_XSP16, literal(-6)))
          CFI ?RET_LOW load(1, XDATA, add(CFA_XSP16, literal(-5)))
          CFI ?RET_HIGH load(1, XDATA, add(CFA_XSP16, literal(-4)))
          CFI ?BRET_EXT load(1, XDATA, add(CFA_XSP16, literal(-3)))
          CFI DPL0 load(1, XDATA, add(CFA_XSP16, literal(-2)))
          CFI DPH0 load(1, XDATA, add(CFA_XSP16, literal(-1)))
          CFI CFA_SP SP+-2
          CFI CFA_XSP16 add(XSP16, 20)
          CFI Block cfiCond44 Using cfiCommon0
          CFI (cfiCond44) Function zha_project_ProcessZDOMsgs
          CFI (cfiCond44) Conditional ??CrossCallReturnLabel_65
          CFI (cfiCond44) R6 load(1, XDATA, add(CFA_XSP16, literal(-14)))
          CFI (cfiCond44) VB load(1, XDATA, add(CFA_XSP16, literal(-13)))
          CFI (cfiCond44) V0 load(1, XDATA, add(CFA_XSP16, literal(-12)))
          CFI (cfiCond44) V1 load(1, XDATA, add(CFA_XSP16, literal(-11)))
          CFI (cfiCond44) V2 load(1, XDATA, add(CFA_XSP16, literal(-10)))
          CFI (cfiCond44) V3 load(1, XDATA, add(CFA_XSP16, literal(-9)))
          CFI (cfiCond44) V4 load(1, XDATA, add(CFA_XSP16, literal(-8)))
          CFI (cfiCond44) V5 load(1, XDATA, add(CFA_XSP16, literal(-7)))
          CFI (cfiCond44) R7 load(1, XDATA, add(CFA_XSP16, literal(-6)))
          CFI (cfiCond44) ?RET_LOW load(1, XDATA, add(CFA_XSP16, literal(-5)))
          CFI (cfiCond44) ?RET_HIGH load(1, XDATA, add(CFA_XSP16, literal(-4)))
          CFI (cfiCond44) ?BRET_EXT load(1, XDATA, add(CFA_XSP16, literal(-3)))
          CFI (cfiCond44) DPL0 load(1, XDATA, add(CFA_XSP16, literal(-2)))
          CFI (cfiCond44) DPH0 load(1, XDATA, add(CFA_XSP16, literal(-1)))
          CFI (cfiCond44) CFA_SP SP+-2
          CFI (cfiCond44) CFA_XSP16 add(XSP16, 25)
          CFI Block cfiCond45 Using cfiCommon0
          CFI (cfiCond45) Function zha_project_ProcessZDOMsgs
          CFI (cfiCond45) Conditional ??CrossCallReturnLabel_66
          CFI (cfiCond45) R6 load(1, XDATA, add(CFA_XSP16, literal(-14)))
          CFI (cfiCond45) VB load(1, XDATA, add(CFA_XSP16, literal(-13)))
          CFI (cfiCond45) V0 load(1, XDATA, add(CFA_XSP16, literal(-12)))
          CFI (cfiCond45) V1 load(1, XDATA, add(CFA_XSP16, literal(-11)))
          CFI (cfiCond45) V2 load(1, XDATA, add(CFA_XSP16, literal(-10)))
          CFI (cfiCond45) V3 load(1, XDATA, add(CFA_XSP16, literal(-9)))
          CFI (cfiCond45) V4 load(1, XDATA, add(CFA_XSP16, literal(-8)))
          CFI (cfiCond45) V5 load(1, XDATA, add(CFA_XSP16, literal(-7)))
          CFI (cfiCond45) R7 load(1, XDATA, add(CFA_XSP16, literal(-6)))
          CFI (cfiCond45) ?RET_LOW load(1, XDATA, add(CFA_XSP16, literal(-5)))
          CFI (cfiCond45) ?RET_HIGH load(1, XDATA, add(CFA_XSP16, literal(-4)))
          CFI (cfiCond45) ?BRET_EXT load(1, XDATA, add(CFA_XSP16, literal(-3)))
          CFI (cfiCond45) DPL0 load(1, XDATA, add(CFA_XSP16, literal(-2)))
          CFI (cfiCond45) DPH0 load(1, XDATA, add(CFA_XSP16, literal(-1)))
          CFI (cfiCond45) CFA_SP SP+-2
          CFI (cfiCond45) CFA_XSP16 add(XSP16, 25)
          CFI Block cfiCond46 Using cfiCommon0
          CFI (cfiCond46) Function zha_project_ProcessZDOMsgs
          CFI (cfiCond46) Conditional ??CrossCallReturnLabel_67
          CFI (cfiCond46) R6 load(1, XDATA, add(CFA_XSP16, literal(-14)))
          CFI (cfiCond46) VB load(1, XDATA, add(CFA_XSP16, literal(-13)))
          CFI (cfiCond46) V0 load(1, XDATA, add(CFA_XSP16, literal(-12)))
          CFI (cfiCond46) V1 load(1, XDATA, add(CFA_XSP16, literal(-11)))
          CFI (cfiCond46) V2 load(1, XDATA, add(CFA_XSP16, literal(-10)))
          CFI (cfiCond46) V3 load(1, XDATA, add(CFA_XSP16, literal(-9)))
          CFI (cfiCond46) V4 load(1, XDATA, add(CFA_XSP16, literal(-8)))
          CFI (cfiCond46) V5 load(1, XDATA, add(CFA_XSP16, literal(-7)))
          CFI (cfiCond46) R7 load(1, XDATA, add(CFA_XSP16, literal(-6)))
          CFI (cfiCond46) ?RET_LOW load(1, XDATA, add(CFA_XSP16, literal(-5)))
          CFI (cfiCond46) ?RET_HIGH load(1, XDATA, add(CFA_XSP16, literal(-4)))
          CFI (cfiCond46) ?BRET_EXT load(1, XDATA, add(CFA_XSP16, literal(-3)))
          CFI (cfiCond46) DPL0 load(1, XDATA, add(CFA_XSP16, literal(-2)))
          CFI (cfiCond46) DPH0 load(1, XDATA, add(CFA_XSP16, literal(-1)))
          CFI (cfiCond46) CFA_SP SP+-2
          CFI (cfiCond46) CFA_XSP16 add(XSP16, 25)
          CFI Block cfiCond47 Using cfiCommon0
          CFI (cfiCond47) Function zha_project_ProcessZDOMsgs
          CFI (cfiCond47) Conditional ??CrossCallReturnLabel_68
          CFI (cfiCond47) R6 load(1, XDATA, add(CFA_XSP16, literal(-14)))
          CFI (cfiCond47) VB load(1, XDATA, add(CFA_XSP16, literal(-13)))
          CFI (cfiCond47) V0 load(1, XDATA, add(CFA_XSP16, literal(-12)))
          CFI (cfiCond47) V1 load(1, XDATA, add(CFA_XSP16, literal(-11)))
          CFI (cfiCond47) V2 load(1, XDATA, add(CFA_XSP16, literal(-10)))
          CFI (cfiCond47) V3 load(1, XDATA, add(CFA_XSP16, literal(-9)))
          CFI (cfiCond47) V4 load(1, XDATA, add(CFA_XSP16, literal(-8)))
          CFI (cfiCond47) V5 load(1, XDATA, add(CFA_XSP16, literal(-7)))
          CFI (cfiCond47) R7 load(1, XDATA, add(CFA_XSP16, literal(-6)))
          CFI (cfiCond47) ?RET_LOW load(1, XDATA, add(CFA_XSP16, literal(-5)))
          CFI (cfiCond47) ?RET_HIGH load(1, XDATA, add(CFA_XSP16, literal(-4)))
          CFI (cfiCond47) ?BRET_EXT load(1, XDATA, add(CFA_XSP16, literal(-3)))
          CFI (cfiCond47) DPL0 load(1, XDATA, add(CFA_XSP16, literal(-2)))
          CFI (cfiCond47) DPH0 load(1, XDATA, add(CFA_XSP16, literal(-1)))
          CFI (cfiCond47) CFA_SP SP+-2
          CFI (cfiCond47) CFA_XSP16 add(XSP16, 25)
          CFI Block cfiCond48 Using cfiCommon0
          CFI (cfiCond48) Function zha_project_ProcessInReadRspCmd
          CFI (cfiCond48) Conditional ??CrossCallReturnLabel_69
          CFI (cfiCond48) R6 load(1, XDATA, add(CFA_XSP16, literal(-20)))
          CFI (cfiCond48) VB load(1, XDATA, add(CFA_XSP16, literal(-19)))
          CFI (cfiCond48) V0 load(1, XDATA, add(CFA_XSP16, literal(-18)))
          CFI (cfiCond48) V1 load(1, XDATA, add(CFA_XSP16, literal(-17)))
          CFI (cfiCond48) V2 load(1, XDATA, add(CFA_XSP16, literal(-16)))
          CFI (cfiCond48) V3 load(1, XDATA, add(CFA_XSP16, literal(-15)))
          CFI (cfiCond48) V4 load(1, XDATA, add(CFA_XSP16, literal(-14)))
          CFI (cfiCond48) V5 load(1, XDATA, add(CFA_XSP16, literal(-13)))
          CFI (cfiCond48) V6 load(1, XDATA, add(CFA_XSP16, literal(-12)))
          CFI (cfiCond48) V7 load(1, XDATA, add(CFA_XSP16, literal(-11)))
          CFI (cfiCond48) V8 load(1, XDATA, add(CFA_XSP16, literal(-10)))
          CFI (cfiCond48) V9 load(1, XDATA, add(CFA_XSP16, literal(-9)))
          CFI (cfiCond48) V10 load(1, XDATA, add(CFA_XSP16, literal(-8)))
          CFI (cfiCond48) V11 load(1, XDATA, add(CFA_XSP16, literal(-7)))
          CFI (cfiCond48) R7 load(1, XDATA, add(CFA_XSP16, literal(-6)))
          CFI (cfiCond48) ?RET_LOW load(1, XDATA, add(CFA_XSP16, literal(-5)))
          CFI (cfiCond48) ?RET_HIGH load(1, XDATA, add(CFA_XSP16, literal(-4)))
          CFI (cfiCond48) ?BRET_EXT load(1, XDATA, add(CFA_XSP16, literal(-3)))
          CFI (cfiCond48) DPL0 load(1, XDATA, add(CFA_XSP16, literal(-2)))
          CFI (cfiCond48) DPH0 load(1, XDATA, add(CFA_XSP16, literal(-1)))
          CFI (cfiCond48) CFA_SP SP+-2
          CFI (cfiCond48) CFA_XSP16 add(XSP16, 63)
          CFI Block cfiCond49 Using cfiCommon0
          CFI (cfiCond49) Function zha_project_ProcessInReadRspCmd
          CFI (cfiCond49) Conditional ??CrossCallReturnLabel_70
          CFI (cfiCond49) R6 load(1, XDATA, add(CFA_XSP16, literal(-20)))
          CFI (cfiCond49) VB load(1, XDATA, add(CFA_XSP16, literal(-19)))
          CFI (cfiCond49) V0 load(1, XDATA, add(CFA_XSP16, literal(-18)))
          CFI (cfiCond49) V1 load(1, XDATA, add(CFA_XSP16, literal(-17)))
          CFI (cfiCond49) V2 load(1, XDATA, add(CFA_XSP16, literal(-16)))
          CFI (cfiCond49) V3 load(1, XDATA, add(CFA_XSP16, literal(-15)))
          CFI (cfiCond49) V4 load(1, XDATA, add(CFA_XSP16, literal(-14)))
          CFI (cfiCond49) V5 load(1, XDATA, add(CFA_XSP16, literal(-13)))
          CFI (cfiCond49) V6 load(1, XDATA, add(CFA_XSP16, literal(-12)))
          CFI (cfiCond49) V7 load(1, XDATA, add(CFA_XSP16, literal(-11)))
          CFI (cfiCond49) V8 load(1, XDATA, add(CFA_XSP16, literal(-10)))
          CFI (cfiCond49) V9 load(1, XDATA, add(CFA_XSP16, literal(-9)))
          CFI (cfiCond49) V10 load(1, XDATA, add(CFA_XSP16, literal(-8)))
          CFI (cfiCond49) V11 load(1, XDATA, add(CFA_XSP16, literal(-7)))
          CFI (cfiCond49) R7 load(1, XDATA, add(CFA_XSP16, literal(-6)))
          CFI (cfiCond49) ?RET_LOW load(1, XDATA, add(CFA_XSP16, literal(-5)))
          CFI (cfiCond49) ?RET_HIGH load(1, XDATA, add(CFA_XSP16, literal(-4)))
          CFI (cfiCond49) ?BRET_EXT load(1, XDATA, add(CFA_XSP16, literal(-3)))
          CFI (cfiCond49) DPL0 load(1, XDATA, add(CFA_XSP16, literal(-2)))
          CFI (cfiCond49) DPH0 load(1, XDATA, add(CFA_XSP16, literal(-1)))
          CFI (cfiCond49) CFA_SP SP+-2
          CFI (cfiCond49) CFA_XSP16 add(XSP16, 63)
          CFI Block cfiCond50 Using cfiCommon0
          CFI (cfiCond50) Function zha_project_ProcessInReadRspCmd
          CFI (cfiCond50) Conditional ??CrossCallReturnLabel_71
          CFI (cfiCond50) R6 load(1, XDATA, add(CFA_XSP16, literal(-20)))
          CFI (cfiCond50) VB load(1, XDATA, add(CFA_XSP16, literal(-19)))
          CFI (cfiCond50) V0 load(1, XDATA, add(CFA_XSP16, literal(-18)))
          CFI (cfiCond50) V1 load(1, XDATA, add(CFA_XSP16, literal(-17)))
          CFI (cfiCond50) V2 load(1, XDATA, add(CFA_XSP16, literal(-16)))
          CFI (cfiCond50) V3 load(1, XDATA, add(CFA_XSP16, literal(-15)))
          CFI (cfiCond50) V4 load(1, XDATA, add(CFA_XSP16, literal(-14)))
          CFI (cfiCond50) V5 load(1, XDATA, add(CFA_XSP16, literal(-13)))
          CFI (cfiCond50) V6 load(1, XDATA, add(CFA_XSP16, literal(-12)))
          CFI (cfiCond50) V7 load(1, XDATA, add(CFA_XSP16, literal(-11)))
          CFI (cfiCond50) V8 load(1, XDATA, add(CFA_XSP16, literal(-10)))
          CFI (cfiCond50) V9 load(1, XDATA, add(CFA_XSP16, literal(-9)))
          CFI (cfiCond50) V10 load(1, XDATA, add(CFA_XSP16, literal(-8)))
          CFI (cfiCond50) V11 load(1, XDATA, add(CFA_XSP16, literal(-7)))
          CFI (cfiCond50) R7 load(1, XDATA, add(CFA_XSP16, literal(-6)))
          CFI (cfiCond50) ?RET_LOW load(1, XDATA, add(CFA_XSP16, literal(-5)))
          CFI (cfiCond50) ?RET_HIGH load(1, XDATA, add(CFA_XSP16, literal(-4)))
          CFI (cfiCond50) ?BRET_EXT load(1, XDATA, add(CFA_XSP16, literal(-3)))
          CFI (cfiCond50) DPL0 load(1, XDATA, add(CFA_XSP16, literal(-2)))
          CFI (cfiCond50) DPH0 load(1, XDATA, add(CFA_XSP16, literal(-1)))
          CFI (cfiCond50) CFA_SP SP+-2
          CFI (cfiCond50) CFA_XSP16 add(XSP16, 63)
          CFI Block cfiCond51 Using cfiCommon0
          CFI (cfiCond51) Function zha_project_ProcessInReportCmd
          CFI (cfiCond51) Conditional ??CrossCallReturnLabel_72
          CFI (cfiCond51) R6 load(1, XDATA, add(CFA_XSP16, literal(-20)))
          CFI (cfiCond51) VB load(1, XDATA, add(CFA_XSP16, literal(-19)))
          CFI (cfiCond51) V0 load(1, XDATA, add(CFA_XSP16, literal(-18)))
          CFI (cfiCond51) V1 load(1, XDATA, add(CFA_XSP16, literal(-17)))
          CFI (cfiCond51) V2 load(1, XDATA, add(CFA_XSP16, literal(-16)))
          CFI (cfiCond51) V3 load(1, XDATA, add(CFA_XSP16, literal(-15)))
          CFI (cfiCond51) V4 load(1, XDATA, add(CFA_XSP16, literal(-14)))
          CFI (cfiCond51) V5 load(1, XDATA, add(CFA_XSP16, literal(-13)))
          CFI (cfiCond51) V6 load(1, XDATA, add(CFA_XSP16, literal(-12)))
          CFI (cfiCond51) V7 load(1, XDATA, add(CFA_XSP16, literal(-11)))
          CFI (cfiCond51) V8 load(1, XDATA, add(CFA_XSP16, literal(-10)))
          CFI (cfiCond51) V9 load(1, XDATA, add(CFA_XSP16, literal(-9)))
          CFI (cfiCond51) V10 load(1, XDATA, add(CFA_XSP16, literal(-8)))
          CFI (cfiCond51) V11 load(1, XDATA, add(CFA_XSP16, literal(-7)))
          CFI (cfiCond51) R7 load(1, XDATA, add(CFA_XSP16, literal(-6)))
          CFI (cfiCond51) ?RET_LOW load(1, XDATA, add(CFA_XSP16, literal(-5)))
          CFI (cfiCond51) ?RET_HIGH load(1, XDATA, add(CFA_XSP16, literal(-4)))
          CFI (cfiCond51) ?BRET_EXT load(1, XDATA, add(CFA_XSP16, literal(-3)))
          CFI (cfiCond51) DPL0 load(1, XDATA, add(CFA_XSP16, literal(-2)))
          CFI (cfiCond51) DPH0 load(1, XDATA, add(CFA_XSP16, literal(-1)))
          CFI (cfiCond51) CFA_SP SP+-2
          CFI (cfiCond51) CFA_XSP16 add(XSP16, 63)
          CFI Block cfiCond52 Using cfiCommon0
          CFI (cfiCond52) Function zha_project_ProcessInReportCmd
          CFI (cfiCond52) Conditional ??CrossCallReturnLabel_73
          CFI (cfiCond52) R6 load(1, XDATA, add(CFA_XSP16, literal(-20)))
          CFI (cfiCond52) VB load(1, XDATA, add(CFA_XSP16, literal(-19)))
          CFI (cfiCond52) V0 load(1, XDATA, add(CFA_XSP16, literal(-18)))
          CFI (cfiCond52) V1 load(1, XDATA, add(CFA_XSP16, literal(-17)))
          CFI (cfiCond52) V2 load(1, XDATA, add(CFA_XSP16, literal(-16)))
          CFI (cfiCond52) V3 load(1, XDATA, add(CFA_XSP16, literal(-15)))
          CFI (cfiCond52) V4 load(1, XDATA, add(CFA_XSP16, literal(-14)))
          CFI (cfiCond52) V5 load(1, XDATA, add(CFA_XSP16, literal(-13)))
          CFI (cfiCond52) V6 load(1, XDATA, add(CFA_XSP16, literal(-12)))
          CFI (cfiCond52) V7 load(1, XDATA, add(CFA_XSP16, literal(-11)))
          CFI (cfiCond52) V8 load(1, XDATA, add(CFA_XSP16, literal(-10)))
          CFI (cfiCond52) V9 load(1, XDATA, add(CFA_XSP16, literal(-9)))
          CFI (cfiCond52) V10 load(1, XDATA, add(CFA_XSP16, literal(-8)))
          CFI (cfiCond52) V11 load(1, XDATA, add(CFA_XSP16, literal(-7)))
          CFI (cfiCond52) R7 load(1, XDATA, add(CFA_XSP16, literal(-6)))
          CFI (cfiCond52) ?RET_LOW load(1, XDATA, add(CFA_XSP16, literal(-5)))
          CFI (cfiCond52) ?RET_HIGH load(1, XDATA, add(CFA_XSP16, literal(-4)))
          CFI (cfiCond52) ?BRET_EXT load(1, XDATA, add(CFA_XSP16, literal(-3)))
          CFI (cfiCond52) DPL0 load(1, XDATA, add(CFA_XSP16, literal(-2)))
          CFI (cfiCond52) DPH0 load(1, XDATA, add(CFA_XSP16, literal(-1)))
          CFI (cfiCond52) CFA_SP SP+-2
          CFI (cfiCond52) CFA_XSP16 add(XSP16, 63)
          CFI Block cfiCond53 Using cfiCommon0
          CFI (cfiCond53) Function zha_project_ProcessInReportCmd
          CFI (cfiCond53) Conditional ??CrossCallReturnLabel_74
          CFI (cfiCond53) R6 load(1, XDATA, add(CFA_XSP16, literal(-20)))
          CFI (cfiCond53) VB load(1, XDATA, add(CFA_XSP16, literal(-19)))
          CFI (cfiCond53) V0 load(1, XDATA, add(CFA_XSP16, literal(-18)))
          CFI (cfiCond53) V1 load(1, XDATA, add(CFA_XSP16, literal(-17)))
          CFI (cfiCond53) V2 load(1, XDATA, add(CFA_XSP16, literal(-16)))
          CFI (cfiCond53) V3 load(1, XDATA, add(CFA_XSP16, literal(-15)))
          CFI (cfiCond53) V4 load(1, XDATA, add(CFA_XSP16, literal(-14)))
          CFI (cfiCond53) V5 load(1, XDATA, add(CFA_XSP16, literal(-13)))
          CFI (cfiCond53) V6 load(1, XDATA, add(CFA_XSP16, literal(-12)))
          CFI (cfiCond53) V7 load(1, XDATA, add(CFA_XSP16, literal(-11)))
          CFI (cfiCond53) V8 load(1, XDATA, add(CFA_XSP16, literal(-10)))
          CFI (cfiCond53) V9 load(1, XDATA, add(CFA_XSP16, literal(-9)))
          CFI (cfiCond53) V10 load(1, XDATA, add(CFA_XSP16, literal(-8)))
          CFI (cfiCond53) V11 load(1, XDATA, add(CFA_XSP16, literal(-7)))
          CFI (cfiCond53) R7 load(1, XDATA, add(CFA_XSP16, literal(-6)))
          CFI (cfiCond53) ?RET_LOW load(1, XDATA, add(CFA_XSP16, literal(-5)))
          CFI (cfiCond53) ?RET_HIGH load(1, XDATA, add(CFA_XSP16, literal(-4)))
          CFI (cfiCond53) ?BRET_EXT load(1, XDATA, add(CFA_XSP16, literal(-3)))
          CFI (cfiCond53) DPL0 load(1, XDATA, add(CFA_XSP16, literal(-2)))
          CFI (cfiCond53) DPH0 load(1, XDATA, add(CFA_XSP16, literal(-1)))
          CFI (cfiCond53) CFA_SP SP+-2
          CFI (cfiCond53) CFA_XSP16 add(XSP16, 63)
          CFI Block cfiCond54 Using cfiCommon0
          CFI (cfiCond54) Function zha_project_ProcessInReadRspCmd
          CFI (cfiCond54) Conditional ??CrossCallReturnLabel_75
          CFI (cfiCond54) R6 load(1, XDATA, add(CFA_XSP16, literal(-20)))
          CFI (cfiCond54) VB load(1, XDATA, add(CFA_XSP16, literal(-19)))
          CFI (cfiCond54) V0 load(1, XDATA, add(CFA_XSP16, literal(-18)))
          CFI (cfiCond54) V1 load(1, XDATA, add(CFA_XSP16, literal(-17)))
          CFI (cfiCond54) V2 load(1, XDATA, add(CFA_XSP16, literal(-16)))
          CFI (cfiCond54) V3 load(1, XDATA, add(CFA_XSP16, literal(-15)))
          CFI (cfiCond54) V4 load(1, XDATA, add(CFA_XSP16, literal(-14)))
          CFI (cfiCond54) V5 load(1, XDATA, add(CFA_XSP16, literal(-13)))
          CFI (cfiCond54) V6 load(1, XDATA, add(CFA_XSP16, literal(-12)))
          CFI (cfiCond54) V7 load(1, XDATA, add(CFA_XSP16, literal(-11)))
          CFI (cfiCond54) V8 load(1, XDATA, add(CFA_XSP16, literal(-10)))
          CFI (cfiCond54) V9 load(1, XDATA, add(CFA_XSP16, literal(-9)))
          CFI (cfiCond54) V10 load(1, XDATA, add(CFA_XSP16, literal(-8)))
          CFI (cfiCond54) V11 load(1, XDATA, add(CFA_XSP16, literal(-7)))
          CFI (cfiCond54) R7 load(1, XDATA, add(CFA_XSP16, literal(-6)))
          CFI (cfiCond54) ?RET_LOW load(1, XDATA, add(CFA_XSP16, literal(-5)))
          CFI (cfiCond54) ?RET_HIGH load(1, XDATA, add(CFA_XSP16, literal(-4)))
          CFI (cfiCond54) ?BRET_EXT load(1, XDATA, add(CFA_XSP16, literal(-3)))
          CFI (cfiCond54) DPL0 load(1, XDATA, add(CFA_XSP16, literal(-2)))
          CFI (cfiCond54) DPH0 load(1, XDATA, add(CFA_XSP16, literal(-1)))
          CFI (cfiCond54) CFA_SP SP+-2
          CFI (cfiCond54) CFA_XSP16 add(XSP16, 63)
          CFI Block cfiCond55 Using cfiCommon0
          CFI (cfiCond55) Function zha_project_ProcessInReportCmd
          CFI (cfiCond55) Conditional ??CrossCallReturnLabel_76
          CFI (cfiCond55) R6 load(1, XDATA, add(CFA_XSP16, literal(-20)))
          CFI (cfiCond55) VB load(1, XDATA, add(CFA_XSP16, literal(-19)))
          CFI (cfiCond55) V0 load(1, XDATA, add(CFA_XSP16, literal(-18)))
          CFI (cfiCond55) V1 load(1, XDATA, add(CFA_XSP16, literal(-17)))
          CFI (cfiCond55) V2 load(1, XDATA, add(CFA_XSP16, literal(-16)))
          CFI (cfiCond55) V3 load(1, XDATA, add(CFA_XSP16, literal(-15)))
          CFI (cfiCond55) V4 load(1, XDATA, add(CFA_XSP16, literal(-14)))
          CFI (cfiCond55) V5 load(1, XDATA, add(CFA_XSP16, literal(-13)))
          CFI (cfiCond55) V6 load(1, XDATA, add(CFA_XSP16, literal(-12)))
          CFI (cfiCond55) V7 load(1, XDATA, add(CFA_XSP16, literal(-11)))
          CFI (cfiCond55) V8 load(1, XDATA, add(CFA_XSP16, literal(-10)))
          CFI (cfiCond55) V9 load(1, XDATA, add(CFA_XSP16, literal(-9)))
          CFI (cfiCond55) V10 load(1, XDATA, add(CFA_XSP16, literal(-8)))
          CFI (cfiCond55) V11 load(1, XDATA, add(CFA_XSP16, literal(-7)))
          CFI (cfiCond55) R7 load(1, XDATA, add(CFA_XSP16, literal(-6)))
          CFI (cfiCond55) ?RET_LOW load(1, XDATA, add(CFA_XSP16, literal(-5)))
          CFI (cfiCond55) ?RET_HIGH load(1, XDATA, add(CFA_XSP16, literal(-4)))
          CFI (cfiCond55) ?BRET_EXT load(1, XDATA, add(CFA_XSP16, literal(-3)))
          CFI (cfiCond55) DPL0 load(1, XDATA, add(CFA_XSP16, literal(-2)))
          CFI (cfiCond55) DPH0 load(1, XDATA, add(CFA_XSP16, literal(-1)))
          CFI (cfiCond55) CFA_SP SP+-2
          CFI (cfiCond55) CFA_XSP16 add(XSP16, 63)
          CFI Block cfiPicker56 Using cfiCommon1
          CFI (cfiPicker56) NoFunction
          CFI (cfiPicker56) Picker
        LCALL   ??Subroutine43_0 & 0xFFFF
??CrossCallReturnLabel_126:
        RET
          CFI EndBlock cfiCond43
          CFI EndBlock cfiCond44
          CFI EndBlock cfiCond45
          CFI EndBlock cfiCond46
          CFI EndBlock cfiCond47
          CFI EndBlock cfiCond48
          CFI EndBlock cfiCond49
          CFI EndBlock cfiCond50
          CFI EndBlock cfiCond51
          CFI EndBlock cfiCond52
          CFI EndBlock cfiCond53
          CFI EndBlock cfiCond54
          CFI EndBlock cfiCond55
          CFI EndBlock cfiPicker56

        RSEG BANKED_CODE:CODE:NOROOT(0)
?Subroutine9:
          CFI Block cfiCond57 Using cfiCommon0
          CFI Function zha_project_ProcessInReadRspCmd
          CFI Conditional ??CrossCallReturnLabel_77
          CFI R6 load(1, XDATA, add(CFA_XSP16, literal(-20)))
          CFI VB load(1, XDATA, add(CFA_XSP16, literal(-19)))
          CFI V0 load(1, XDATA, add(CFA_XSP16, literal(-18)))
          CFI V1 load(1, XDATA, add(CFA_XSP16, literal(-17)))
          CFI V2 load(1, XDATA, add(CFA_XSP16, literal(-16)))
          CFI V3 load(1, XDATA, add(CFA_XSP16, literal(-15)))
          CFI V4 load(1, XDATA, add(CFA_XSP16, literal(-14)))
          CFI V5 load(1, XDATA, add(CFA_XSP16, literal(-13)))
          CFI V6 load(1, XDATA, add(CFA_XSP16, literal(-12)))
          CFI V7 load(1, XDATA, add(CFA_XSP16, literal(-11)))
          CFI V8 load(1, XDATA, add(CFA_XSP16, literal(-10)))
          CFI V9 load(1, XDATA, add(CFA_XSP16, literal(-9)))
          CFI V10 load(1, XDATA, add(CFA_XSP16, literal(-8)))
          CFI V11 load(1, XDATA, add(CFA_XSP16, literal(-7)))
          CFI R7 load(1, XDATA, add(CFA_XSP16, literal(-6)))
          CFI ?RET_LOW load(1, XDATA, add(CFA_XSP16, literal(-5)))
          CFI ?RET_HIGH load(1, XDATA, add(CFA_XSP16, literal(-4)))
          CFI ?BRET_EXT load(1, XDATA, add(CFA_XSP16, literal(-3)))
          CFI DPL0 load(1, XDATA, add(CFA_XSP16, literal(-2)))
          CFI DPH0 load(1, XDATA, add(CFA_XSP16, literal(-1)))
          CFI CFA_SP SP+-2
          CFI CFA_XSP16 add(XSP16, 63)
          CFI Block cfiCond58 Using cfiCommon0
          CFI (cfiCond58) Function zha_project_ProcessInReadRspCmd
          CFI (cfiCond58) Conditional ??CrossCallReturnLabel_78
          CFI (cfiCond58) R6 load(1, XDATA, add(CFA_XSP16, literal(-20)))
          CFI (cfiCond58) VB load(1, XDATA, add(CFA_XSP16, literal(-19)))
          CFI (cfiCond58) V0 load(1, XDATA, add(CFA_XSP16, literal(-18)))
          CFI (cfiCond58) V1 load(1, XDATA, add(CFA_XSP16, literal(-17)))
          CFI (cfiCond58) V2 load(1, XDATA, add(CFA_XSP16, literal(-16)))
          CFI (cfiCond58) V3 load(1, XDATA, add(CFA_XSP16, literal(-15)))
          CFI (cfiCond58) V4 load(1, XDATA, add(CFA_XSP16, literal(-14)))
          CFI (cfiCond58) V5 load(1, XDATA, add(CFA_XSP16, literal(-13)))
          CFI (cfiCond58) V6 load(1, XDATA, add(CFA_XSP16, literal(-12)))
          CFI (cfiCond58) V7 load(1, XDATA, add(CFA_XSP16, literal(-11)))
          CFI (cfiCond58) V8 load(1, XDATA, add(CFA_XSP16, literal(-10)))
          CFI (cfiCond58) V9 load(1, XDATA, add(CFA_XSP16, literal(-9)))
          CFI (cfiCond58) V10 load(1, XDATA, add(CFA_XSP16, literal(-8)))
          CFI (cfiCond58) V11 load(1, XDATA, add(CFA_XSP16, literal(-7)))
          CFI (cfiCond58) R7 load(1, XDATA, add(CFA_XSP16, literal(-6)))
          CFI (cfiCond58) ?RET_LOW load(1, XDATA, add(CFA_XSP16, literal(-5)))
          CFI (cfiCond58) ?RET_HIGH load(1, XDATA, add(CFA_XSP16, literal(-4)))
          CFI (cfiCond58) ?BRET_EXT load(1, XDATA, add(CFA_XSP16, literal(-3)))
          CFI (cfiCond58) DPL0 load(1, XDATA, add(CFA_XSP16, literal(-2)))
          CFI (cfiCond58) DPH0 load(1, XDATA, add(CFA_XSP16, literal(-1)))
          CFI (cfiCond58) CFA_SP SP+-2
          CFI (cfiCond58) CFA_XSP16 add(XSP16, 63)
          CFI Block cfiPicker59 Using cfiCommon1
          CFI (cfiPicker59) NoFunction
          CFI (cfiPicker59) Picker
        LCALL   ?Subroutine31 & 0xFFFF
??CrossCallReturnLabel_59:
          CFI EndBlock cfiCond57
          CFI EndBlock cfiCond58
          CFI EndBlock cfiPicker59
        REQUIRE ??Subroutine39_0
        ; // Fall through to label ??Subroutine39_0

        RSEG BANKED_CODE:CODE:NOROOT(0)
??Subroutine39_0:
          CFI Block cfiCond60 Using cfiCommon0
          CFI Function zha_project_ProcessInReportCmd
          CFI Conditional ??CrossCallReturnLabel_79
          CFI R6 load(1, XDATA, add(CFA_XSP16, literal(-20)))
          CFI VB load(1, XDATA, add(CFA_XSP16, literal(-19)))
          CFI V0 load(1, XDATA, add(CFA_XSP16, literal(-18)))
          CFI V1 load(1, XDATA, add(CFA_XSP16, literal(-17)))
          CFI V2 load(1, XDATA, add(CFA_XSP16, literal(-16)))
          CFI V3 load(1, XDATA, add(CFA_XSP16, literal(-15)))
          CFI V4 load(1, XDATA, add(CFA_XSP16, literal(-14)))
          CFI V5 load(1, XDATA, add(CFA_XSP16, literal(-13)))
          CFI V6 load(1, XDATA, add(CFA_XSP16, literal(-12)))
          CFI V7 load(1, XDATA, add(CFA_XSP16, literal(-11)))
          CFI V8 load(1, XDATA, add(CFA_XSP16, literal(-10)))
          CFI V9 load(1, XDATA, add(CFA_XSP16, literal(-9)))
          CFI V10 load(1, XDATA, add(CFA_XSP16, literal(-8)))
          CFI V11 load(1, XDATA, add(CFA_XSP16, literal(-7)))
          CFI R7 load(1, XDATA, add(CFA_XSP16, literal(-6)))
          CFI ?RET_LOW load(1, XDATA, add(CFA_XSP16, literal(-5)))
          CFI ?RET_HIGH load(1, XDATA, add(CFA_XSP16, literal(-4)))
          CFI ?BRET_EXT load(1, XDATA, add(CFA_XSP16, literal(-3)))
          CFI DPL0 load(1, XDATA, add(CFA_XSP16, literal(-2)))
          CFI DPH0 load(1, XDATA, add(CFA_XSP16, literal(-1)))
          CFI CFA_SP SP+-2
          CFI CFA_XSP16 add(XSP16, 63)
          CFI Block cfiCond61 Using cfiCommon0
          CFI (cfiCond61) Function zha_project_ProcessInReportCmd
          CFI (cfiCond61) Conditional ??CrossCallReturnLabel_80
          CFI (cfiCond61) R6 load(1, XDATA, add(CFA_XSP16, literal(-20)))
          CFI (cfiCond61) VB load(1, XDATA, add(CFA_XSP16, literal(-19)))
          CFI (cfiCond61) V0 load(1, XDATA, add(CFA_XSP16, literal(-18)))
          CFI (cfiCond61) V1 load(1, XDATA, add(CFA_XSP16, literal(-17)))
          CFI (cfiCond61) V2 load(1, XDATA, add(CFA_XSP16, literal(-16)))
          CFI (cfiCond61) V3 load(1, XDATA, add(CFA_XSP16, literal(-15)))
          CFI (cfiCond61) V4 load(1, XDATA, add(CFA_XSP16, literal(-14)))
          CFI (cfiCond61) V5 load(1, XDATA, add(CFA_XSP16, literal(-13)))
          CFI (cfiCond61) V6 load(1, XDATA, add(CFA_XSP16, literal(-12)))
          CFI (cfiCond61) V7 load(1, XDATA, add(CFA_XSP16, literal(-11)))
          CFI (cfiCond61) V8 load(1, XDATA, add(CFA_XSP16, literal(-10)))
          CFI (cfiCond61) V9 load(1, XDATA, add(CFA_XSP16, literal(-9)))
          CFI (cfiCond61) V10 load(1, XDATA, add(CFA_XSP16, literal(-8)))
          CFI (cfiCond61) V11 load(1, XDATA, add(CFA_XSP16, literal(-7)))
          CFI (cfiCond61) R7 load(1, XDATA, add(CFA_XSP16, literal(-6)))
          CFI (cfiCond61) ?RET_LOW load(1, XDATA, add(CFA_XSP16, literal(-5)))
          CFI (cfiCond61) ?RET_HIGH load(1, XDATA, add(CFA_XSP16, literal(-4)))
          CFI (cfiCond61) ?BRET_EXT load(1, XDATA, add(CFA_XSP16, literal(-3)))
          CFI (cfiCond61) DPL0 load(1, XDATA, add(CFA_XSP16, literal(-2)))
          CFI (cfiCond61) DPH0 load(1, XDATA, add(CFA_XSP16, literal(-1)))
          CFI (cfiCond61) CFA_SP SP+-2
          CFI (cfiCond61) CFA_XSP16 add(XSP16, 63)
          CFI Block cfiCond62 Using cfiCommon0
          CFI (cfiCond62) Function zha_project_ProcessInReadRspCmd
          CFI (cfiCond62) Conditional ??CrossCallReturnLabel_77
          CFI (cfiCond62) R6 load(1, XDATA, add(CFA_XSP16, literal(-20)))
          CFI (cfiCond62) VB load(1, XDATA, add(CFA_XSP16, literal(-19)))
          CFI (cfiCond62) V0 load(1, XDATA, add(CFA_XSP16, literal(-18)))
          CFI (cfiCond62) V1 load(1, XDATA, add(CFA_XSP16, literal(-17)))
          CFI (cfiCond62) V2 load(1, XDATA, add(CFA_XSP16, literal(-16)))
          CFI (cfiCond62) V3 load(1, XDATA, add(CFA_XSP16, literal(-15)))
          CFI (cfiCond62) V4 load(1, XDATA, add(CFA_XSP16, literal(-14)))
          CFI (cfiCond62) V5 load(1, XDATA, add(CFA_XSP16, literal(-13)))
          CFI (cfiCond62) V6 load(1, XDATA, add(CFA_XSP16, literal(-12)))
          CFI (cfiCond62) V7 load(1, XDATA, add(CFA_XSP16, literal(-11)))
          CFI (cfiCond62) V8 load(1, XDATA, add(CFA_XSP16, literal(-10)))
          CFI (cfiCond62) V9 load(1, XDATA, add(CFA_XSP16, literal(-9)))
          CFI (cfiCond62) V10 load(1, XDATA, add(CFA_XSP16, literal(-8)))
          CFI (cfiCond62) V11 load(1, XDATA, add(CFA_XSP16, literal(-7)))
          CFI (cfiCond62) R7 load(1, XDATA, add(CFA_XSP16, literal(-6)))
          CFI (cfiCond62) ?RET_LOW load(1, XDATA, add(CFA_XSP16, literal(-5)))
          CFI (cfiCond62) ?RET_HIGH load(1, XDATA, add(CFA_XSP16, literal(-4)))
          CFI (cfiCond62) ?BRET_EXT load(1, XDATA, add(CFA_XSP16, literal(-3)))
          CFI (cfiCond62) DPL0 load(1, XDATA, add(CFA_XSP16, literal(-2)))
          CFI (cfiCond62) DPH0 load(1, XDATA, add(CFA_XSP16, literal(-1)))
          CFI (cfiCond62) CFA_SP SP+-2
          CFI (cfiCond62) CFA_XSP16 add(XSP16, 63)
          CFI Block cfiCond63 Using cfiCommon0
          CFI (cfiCond63) Function zha_project_ProcessInReadRspCmd
          CFI (cfiCond63) Conditional ??CrossCallReturnLabel_78
          CFI (cfiCond63) R6 load(1, XDATA, add(CFA_XSP16, literal(-20)))
          CFI (cfiCond63) VB load(1, XDATA, add(CFA_XSP16, literal(-19)))
          CFI (cfiCond63) V0 load(1, XDATA, add(CFA_XSP16, literal(-18)))
          CFI (cfiCond63) V1 load(1, XDATA, add(CFA_XSP16, literal(-17)))
          CFI (cfiCond63) V2 load(1, XDATA, add(CFA_XSP16, literal(-16)))
          CFI (cfiCond63) V3 load(1, XDATA, add(CFA_XSP16, literal(-15)))
          CFI (cfiCond63) V4 load(1, XDATA, add(CFA_XSP16, literal(-14)))
          CFI (cfiCond63) V5 load(1, XDATA, add(CFA_XSP16, literal(-13)))
          CFI (cfiCond63) V6 load(1, XDATA, add(CFA_XSP16, literal(-12)))
          CFI (cfiCond63) V7 load(1, XDATA, add(CFA_XSP16, literal(-11)))
          CFI (cfiCond63) V8 load(1, XDATA, add(CFA_XSP16, literal(-10)))
          CFI (cfiCond63) V9 load(1, XDATA, add(CFA_XSP16, literal(-9)))
          CFI (cfiCond63) V10 load(1, XDATA, add(CFA_XSP16, literal(-8)))
          CFI (cfiCond63) V11 load(1, XDATA, add(CFA_XSP16, literal(-7)))
          CFI (cfiCond63) R7 load(1, XDATA, add(CFA_XSP16, literal(-6)))
          CFI (cfiCond63) ?RET_LOW load(1, XDATA, add(CFA_XSP16, literal(-5)))
          CFI (cfiCond63) ?RET_HIGH load(1, XDATA, add(CFA_XSP16, literal(-4)))
          CFI (cfiCond63) ?BRET_EXT load(1, XDATA, add(CFA_XSP16, literal(-3)))
          CFI (cfiCond63) DPL0 load(1, XDATA, add(CFA_XSP16, literal(-2)))
          CFI (cfiCond63) DPH0 load(1, XDATA, add(CFA_XSP16, literal(-1)))
          CFI (cfiCond63) CFA_SP SP+-2
          CFI (cfiCond63) CFA_XSP16 add(XSP16, 63)
          CFI Block cfiPicker64 Using cfiCommon1
          CFI (cfiPicker64) NoFunction
          CFI (cfiPicker64) Picker
        LCALL   ?Subroutine26 & 0xFFFF
??CrossCallReturnLabel_91:
        MOV     ?V4,A
        INC     DPTR
        MOVX    A,@DPTR
        MOV     ?V5,A
        MOV     R0,#?V4
        RET
          CFI EndBlock cfiCond60
          CFI EndBlock cfiCond61
          CFI EndBlock cfiCond62
          CFI EndBlock cfiCond63
          CFI EndBlock cfiPicker64

        RSEG BANKED_CODE:CODE:NOROOT(0)
?Subroutine8:
          CFI Block cfiCond65 Using cfiCommon0
          CFI Function zha_project_ProcessInReadRspCmd
          CFI Conditional ??CrossCallReturnLabel_81
          CFI R6 load(1, XDATA, add(CFA_XSP16, literal(-20)))
          CFI VB load(1, XDATA, add(CFA_XSP16, literal(-19)))
          CFI V0 load(1, XDATA, add(CFA_XSP16, literal(-18)))
          CFI V1 load(1, XDATA, add(CFA_XSP16, literal(-17)))
          CFI V2 load(1, XDATA, add(CFA_XSP16, literal(-16)))
          CFI V3 load(1, XDATA, add(CFA_XSP16, literal(-15)))
          CFI V4 load(1, XDATA, add(CFA_XSP16, literal(-14)))
          CFI V5 load(1, XDATA, add(CFA_XSP16, literal(-13)))
          CFI V6 load(1, XDATA, add(CFA_XSP16, literal(-12)))
          CFI V7 load(1, XDATA, add(CFA_XSP16, literal(-11)))
          CFI V8 load(1, XDATA, add(CFA_XSP16, literal(-10)))
          CFI V9 load(1, XDATA, add(CFA_XSP16, literal(-9)))
          CFI V10 load(1, XDATA, add(CFA_XSP16, literal(-8)))
          CFI V11 load(1, XDATA, add(CFA_XSP16, literal(-7)))
          CFI R7 load(1, XDATA, add(CFA_XSP16, literal(-6)))
          CFI ?RET_LOW load(1, XDATA, add(CFA_XSP16, literal(-5)))
          CFI ?RET_HIGH load(1, XDATA, add(CFA_XSP16, literal(-4)))
          CFI ?BRET_EXT load(1, XDATA, add(CFA_XSP16, literal(-3)))
          CFI DPL0 load(1, XDATA, add(CFA_XSP16, literal(-2)))
          CFI DPH0 load(1, XDATA, add(CFA_XSP16, literal(-1)))
          CFI CFA_SP SP+-2
          CFI CFA_XSP16 add(XSP16, 63)
          CFI Block cfiCond66 Using cfiCommon0
          CFI (cfiCond66) Function zha_project_ProcessInReadRspCmd
          CFI (cfiCond66) Conditional ??CrossCallReturnLabel_82
          CFI (cfiCond66) R6 load(1, XDATA, add(CFA_XSP16, literal(-20)))
          CFI (cfiCond66) VB load(1, XDATA, add(CFA_XSP16, literal(-19)))
          CFI (cfiCond66) V0 load(1, XDATA, add(CFA_XSP16, literal(-18)))
          CFI (cfiCond66) V1 load(1, XDATA, add(CFA_XSP16, literal(-17)))
          CFI (cfiCond66) V2 load(1, XDATA, add(CFA_XSP16, literal(-16)))
          CFI (cfiCond66) V3 load(1, XDATA, add(CFA_XSP16, literal(-15)))
          CFI (cfiCond66) V4 load(1, XDATA, add(CFA_XSP16, literal(-14)))
          CFI (cfiCond66) V5 load(1, XDATA, add(CFA_XSP16, literal(-13)))
          CFI (cfiCond66) V6 load(1, XDATA, add(CFA_XSP16, literal(-12)))
          CFI (cfiCond66) V7 load(1, XDATA, add(CFA_XSP16, literal(-11)))
          CFI (cfiCond66) V8 load(1, XDATA, add(CFA_XSP16, literal(-10)))
          CFI (cfiCond66) V9 load(1, XDATA, add(CFA_XSP16, literal(-9)))
          CFI (cfiCond66) V10 load(1, XDATA, add(CFA_XSP16, literal(-8)))
          CFI (cfiCond66) V11 load(1, XDATA, add(CFA_XSP16, literal(-7)))
          CFI (cfiCond66) R7 load(1, XDATA, add(CFA_XSP16, literal(-6)))
          CFI (cfiCond66) ?RET_LOW load(1, XDATA, add(CFA_XSP16, literal(-5)))
          CFI (cfiCond66) ?RET_HIGH load(1, XDATA, add(CFA_XSP16, literal(-4)))
          CFI (cfiCond66) ?BRET_EXT load(1, XDATA, add(CFA_XSP16, literal(-3)))
          CFI (cfiCond66) DPL0 load(1, XDATA, add(CFA_XSP16, literal(-2)))
          CFI (cfiCond66) DPH0 load(1, XDATA, add(CFA_XSP16, literal(-1)))
          CFI (cfiCond66) CFA_SP SP+-2
          CFI (cfiCond66) CFA_XSP16 add(XSP16, 63)
          CFI Block cfiCond67 Using cfiCommon0
          CFI (cfiCond67) Function zha_project_ProcessInReadRspCmd
          CFI (cfiCond67) Conditional ??CrossCallReturnLabel_83
          CFI (cfiCond67) R6 load(1, XDATA, add(CFA_XSP16, literal(-20)))
          CFI (cfiCond67) VB load(1, XDATA, add(CFA_XSP16, literal(-19)))
          CFI (cfiCond67) V0 load(1, XDATA, add(CFA_XSP16, literal(-18)))
          CFI (cfiCond67) V1 load(1, XDATA, add(CFA_XSP16, literal(-17)))
          CFI (cfiCond67) V2 load(1, XDATA, add(CFA_XSP16, literal(-16)))
          CFI (cfiCond67) V3 load(1, XDATA, add(CFA_XSP16, literal(-15)))
          CFI (cfiCond67) V4 load(1, XDATA, add(CFA_XSP16, literal(-14)))
          CFI (cfiCond67) V5 load(1, XDATA, add(CFA_XSP16, literal(-13)))
          CFI (cfiCond67) V6 load(1, XDATA, add(CFA_XSP16, literal(-12)))
          CFI (cfiCond67) V7 load(1, XDATA, add(CFA_XSP16, literal(-11)))
          CFI (cfiCond67) V8 load(1, XDATA, add(CFA_XSP16, literal(-10)))
          CFI (cfiCond67) V9 load(1, XDATA, add(CFA_XSP16, literal(-9)))
          CFI (cfiCond67) V10 load(1, XDATA, add(CFA_XSP16, literal(-8)))
          CFI (cfiCond67) V11 load(1, XDATA, add(CFA_XSP16, literal(-7)))
          CFI (cfiCond67) R7 load(1, XDATA, add(CFA_XSP16, literal(-6)))
          CFI (cfiCond67) ?RET_LOW load(1, XDATA, add(CFA_XSP16, literal(-5)))
          CFI (cfiCond67) ?RET_HIGH load(1, XDATA, add(CFA_XSP16, literal(-4)))
          CFI (cfiCond67) ?BRET_EXT load(1, XDATA, add(CFA_XSP16, literal(-3)))
          CFI (cfiCond67) DPL0 load(1, XDATA, add(CFA_XSP16, literal(-2)))
          CFI (cfiCond67) DPH0 load(1, XDATA, add(CFA_XSP16, literal(-1)))
          CFI (cfiCond67) CFA_SP SP+-2
          CFI (cfiCond67) CFA_XSP16 add(XSP16, 63)
          CFI Block cfiCond68 Using cfiCommon0
          CFI (cfiCond68) Function zha_project_ProcessInReadRspCmd
          CFI (cfiCond68) Conditional ??CrossCallReturnLabel_84
          CFI (cfiCond68) R6 load(1, XDATA, add(CFA_XSP16, literal(-20)))
          CFI (cfiCond68) VB load(1, XDATA, add(CFA_XSP16, literal(-19)))
          CFI (cfiCond68) V0 load(1, XDATA, add(CFA_XSP16, literal(-18)))
          CFI (cfiCond68) V1 load(1, XDATA, add(CFA_XSP16, literal(-17)))
          CFI (cfiCond68) V2 load(1, XDATA, add(CFA_XSP16, literal(-16)))
          CFI (cfiCond68) V3 load(1, XDATA, add(CFA_XSP16, literal(-15)))
          CFI (cfiCond68) V4 load(1, XDATA, add(CFA_XSP16, literal(-14)))
          CFI (cfiCond68) V5 load(1, XDATA, add(CFA_XSP16, literal(-13)))
          CFI (cfiCond68) V6 load(1, XDATA, add(CFA_XSP16, literal(-12)))
          CFI (cfiCond68) V7 load(1, XDATA, add(CFA_XSP16, literal(-11)))
          CFI (cfiCond68) V8 load(1, XDATA, add(CFA_XSP16, literal(-10)))
          CFI (cfiCond68) V9 load(1, XDATA, add(CFA_XSP16, literal(-9)))
          CFI (cfiCond68) V10 load(1, XDATA, add(CFA_XSP16, literal(-8)))
          CFI (cfiCond68) V11 load(1, XDATA, add(CFA_XSP16, literal(-7)))
          CFI (cfiCond68) R7 load(1, XDATA, add(CFA_XSP16, literal(-6)))
          CFI (cfiCond68) ?RET_LOW load(1, XDATA, add(CFA_XSP16, literal(-5)))
          CFI (cfiCond68) ?RET_HIGH load(1, XDATA, add(CFA_XSP16, literal(-4)))
          CFI (cfiCond68) ?BRET_EXT load(1, XDATA, add(CFA_XSP16, literal(-3)))
          CFI (cfiCond68) DPL0 load(1, XDATA, add(CFA_XSP16, literal(-2)))
          CFI (cfiCond68) DPH0 load(1, XDATA, add(CFA_XSP16, literal(-1)))
          CFI (cfiCond68) CFA_SP SP+-2
          CFI (cfiCond68) CFA_XSP16 add(XSP16, 63)
          CFI Block cfiCond69 Using cfiCommon0
          CFI (cfiCond69) Function zha_project_ProcessInReadRspCmd
          CFI (cfiCond69) Conditional ??CrossCallReturnLabel_85
          CFI (cfiCond69) R6 load(1, XDATA, add(CFA_XSP16, literal(-20)))
          CFI (cfiCond69) VB load(1, XDATA, add(CFA_XSP16, literal(-19)))
          CFI (cfiCond69) V0 load(1, XDATA, add(CFA_XSP16, literal(-18)))
          CFI (cfiCond69) V1 load(1, XDATA, add(CFA_XSP16, literal(-17)))
          CFI (cfiCond69) V2 load(1, XDATA, add(CFA_XSP16, literal(-16)))
          CFI (cfiCond69) V3 load(1, XDATA, add(CFA_XSP16, literal(-15)))
          CFI (cfiCond69) V4 load(1, XDATA, add(CFA_XSP16, literal(-14)))
          CFI (cfiCond69) V5 load(1, XDATA, add(CFA_XSP16, literal(-13)))
          CFI (cfiCond69) V6 load(1, XDATA, add(CFA_XSP16, literal(-12)))
          CFI (cfiCond69) V7 load(1, XDATA, add(CFA_XSP16, literal(-11)))
          CFI (cfiCond69) V8 load(1, XDATA, add(CFA_XSP16, literal(-10)))
          CFI (cfiCond69) V9 load(1, XDATA, add(CFA_XSP16, literal(-9)))
          CFI (cfiCond69) V10 load(1, XDATA, add(CFA_XSP16, literal(-8)))
          CFI (cfiCond69) V11 load(1, XDATA, add(CFA_XSP16, literal(-7)))
          CFI (cfiCond69) R7 load(1, XDATA, add(CFA_XSP16, literal(-6)))
          CFI (cfiCond69) ?RET_LOW load(1, XDATA, add(CFA_XSP16, literal(-5)))
          CFI (cfiCond69) ?RET_HIGH load(1, XDATA, add(CFA_XSP16, literal(-4)))
          CFI (cfiCond69) ?BRET_EXT load(1, XDATA, add(CFA_XSP16, literal(-3)))
          CFI (cfiCond69) DPL0 load(1, XDATA, add(CFA_XSP16, literal(-2)))
          CFI (cfiCond69) DPH0 load(1, XDATA, add(CFA_XSP16, literal(-1)))
          CFI (cfiCond69) CFA_SP SP+-2
          CFI (cfiCond69) CFA_XSP16 add(XSP16, 63)
          CFI Block cfiPicker70 Using cfiCommon1
          CFI (cfiPicker70) NoFunction
          CFI (cfiPicker70) Picker
        LCALL   ?Subroutine31 & 0xFFFF
??CrossCallReturnLabel_60:
          CFI EndBlock cfiCond65
          CFI EndBlock cfiCond66
          CFI EndBlock cfiCond67
          CFI EndBlock cfiCond68
          CFI EndBlock cfiCond69
          CFI EndBlock cfiPicker70
        REQUIRE ??Subroutine40_0
        ; // Fall through to label ??Subroutine40_0

        RSEG BANKED_CODE:CODE:NOROOT(0)
??Subroutine40_0:
          CFI Block cfiCond71 Using cfiCommon0
          CFI Function zha_project_ProcessInReportCmd
          CFI Conditional ??CrossCallReturnLabel_86
          CFI R6 load(1, XDATA, add(CFA_XSP16, literal(-20)))
          CFI VB load(1, XDATA, add(CFA_XSP16, literal(-19)))
          CFI V0 load(1, XDATA, add(CFA_XSP16, literal(-18)))
          CFI V1 load(1, XDATA, add(CFA_XSP16, literal(-17)))
          CFI V2 load(1, XDATA, add(CFA_XSP16, literal(-16)))
          CFI V3 load(1, XDATA, add(CFA_XSP16, literal(-15)))
          CFI V4 load(1, XDATA, add(CFA_XSP16, literal(-14)))
          CFI V5 load(1, XDATA, add(CFA_XSP16, literal(-13)))
          CFI V6 load(1, XDATA, add(CFA_XSP16, literal(-12)))
          CFI V7 load(1, XDATA, add(CFA_XSP16, literal(-11)))
          CFI V8 load(1, XDATA, add(CFA_XSP16, literal(-10)))
          CFI V9 load(1, XDATA, add(CFA_XSP16, literal(-9)))
          CFI V10 load(1, XDATA, add(CFA_XSP16, literal(-8)))
          CFI V11 load(1, XDATA, add(CFA_XSP16, literal(-7)))
          CFI R7 load(1, XDATA, add(CFA_XSP16, literal(-6)))
          CFI ?RET_LOW load(1, XDATA, add(CFA_XSP16, literal(-5)))
          CFI ?RET_HIGH load(1, XDATA, add(CFA_XSP16, literal(-4)))
          CFI ?BRET_EXT load(1, XDATA, add(CFA_XSP16, literal(-3)))
          CFI DPL0 load(1, XDATA, add(CFA_XSP16, literal(-2)))
          CFI DPH0 load(1, XDATA, add(CFA_XSP16, literal(-1)))
          CFI CFA_SP SP+-2
          CFI CFA_XSP16 add(XSP16, 63)
          CFI Block cfiCond72 Using cfiCommon0
          CFI (cfiCond72) Function zha_project_ProcessInReportCmd
          CFI (cfiCond72) Conditional ??CrossCallReturnLabel_87
          CFI (cfiCond72) R6 load(1, XDATA, add(CFA_XSP16, literal(-20)))
          CFI (cfiCond72) VB load(1, XDATA, add(CFA_XSP16, literal(-19)))
          CFI (cfiCond72) V0 load(1, XDATA, add(CFA_XSP16, literal(-18)))
          CFI (cfiCond72) V1 load(1, XDATA, add(CFA_XSP16, literal(-17)))
          CFI (cfiCond72) V2 load(1, XDATA, add(CFA_XSP16, literal(-16)))
          CFI (cfiCond72) V3 load(1, XDATA, add(CFA_XSP16, literal(-15)))
          CFI (cfiCond72) V4 load(1, XDATA, add(CFA_XSP16, literal(-14)))
          CFI (cfiCond72) V5 load(1, XDATA, add(CFA_XSP16, literal(-13)))
          CFI (cfiCond72) V6 load(1, XDATA, add(CFA_XSP16, literal(-12)))
          CFI (cfiCond72) V7 load(1, XDATA, add(CFA_XSP16, literal(-11)))
          CFI (cfiCond72) V8 load(1, XDATA, add(CFA_XSP16, literal(-10)))
          CFI (cfiCond72) V9 load(1, XDATA, add(CFA_XSP16, literal(-9)))
          CFI (cfiCond72) V10 load(1, XDATA, add(CFA_XSP16, literal(-8)))
          CFI (cfiCond72) V11 load(1, XDATA, add(CFA_XSP16, literal(-7)))
          CFI (cfiCond72) R7 load(1, XDATA, add(CFA_XSP16, literal(-6)))
          CFI (cfiCond72) ?RET_LOW load(1, XDATA, add(CFA_XSP16, literal(-5)))
          CFI (cfiCond72) ?RET_HIGH load(1, XDATA, add(CFA_XSP16, literal(-4)))
          CFI (cfiCond72) ?BRET_EXT load(1, XDATA, add(CFA_XSP16, literal(-3)))
          CFI (cfiCond72) DPL0 load(1, XDATA, add(CFA_XSP16, literal(-2)))
          CFI (cfiCond72) DPH0 load(1, XDATA, add(CFA_XSP16, literal(-1)))
          CFI (cfiCond72) CFA_SP SP+-2
          CFI (cfiCond72) CFA_XSP16 add(XSP16, 63)
          CFI Block cfiCond73 Using cfiCommon0
          CFI (cfiCond73) Function zha_project_ProcessInReportCmd
          CFI (cfiCond73) Conditional ??CrossCallReturnLabel_88
          CFI (cfiCond73) R6 load(1, XDATA, add(CFA_XSP16, literal(-20)))
          CFI (cfiCond73) VB load(1, XDATA, add(CFA_XSP16, literal(-19)))
          CFI (cfiCond73) V0 load(1, XDATA, add(CFA_XSP16, literal(-18)))
          CFI (cfiCond73) V1 load(1, XDATA, add(CFA_XSP16, literal(-17)))
          CFI (cfiCond73) V2 load(1, XDATA, add(CFA_XSP16, literal(-16)))
          CFI (cfiCond73) V3 load(1, XDATA, add(CFA_XSP16, literal(-15)))
          CFI (cfiCond73) V4 load(1, XDATA, add(CFA_XSP16, literal(-14)))
          CFI (cfiCond73) V5 load(1, XDATA, add(CFA_XSP16, literal(-13)))
          CFI (cfiCond73) V6 load(1, XDATA, add(CFA_XSP16, literal(-12)))
          CFI (cfiCond73) V7 load(1, XDATA, add(CFA_XSP16, literal(-11)))
          CFI (cfiCond73) V8 load(1, XDATA, add(CFA_XSP16, literal(-10)))
          CFI (cfiCond73) V9 load(1, XDATA, add(CFA_XSP16, literal(-9)))
          CFI (cfiCond73) V10 load(1, XDATA, add(CFA_XSP16, literal(-8)))
          CFI (cfiCond73) V11 load(1, XDATA, add(CFA_XSP16, literal(-7)))
          CFI (cfiCond73) R7 load(1, XDATA, add(CFA_XSP16, literal(-6)))
          CFI (cfiCond73) ?RET_LOW load(1, XDATA, add(CFA_XSP16, literal(-5)))
          CFI (cfiCond73) ?RET_HIGH load(1, XDATA, add(CFA_XSP16, literal(-4)))
          CFI (cfiCond73) ?BRET_EXT load(1, XDATA, add(CFA_XSP16, literal(-3)))
          CFI (cfiCond73) DPL0 load(1, XDATA, add(CFA_XSP16, literal(-2)))
          CFI (cfiCond73) DPH0 load(1, XDATA, add(CFA_XSP16, literal(-1)))
          CFI (cfiCond73) CFA_SP SP+-2
          CFI (cfiCond73) CFA_XSP16 add(XSP16, 63)
          CFI Block cfiCond74 Using cfiCommon0
          CFI (cfiCond74) Function zha_project_ProcessInReportCmd
          CFI (cfiCond74) Conditional ??CrossCallReturnLabel_89
          CFI (cfiCond74) R6 load(1, XDATA, add(CFA_XSP16, literal(-20)))
          CFI (cfiCond74) VB load(1, XDATA, add(CFA_XSP16, literal(-19)))
          CFI (cfiCond74) V0 load(1, XDATA, add(CFA_XSP16, literal(-18)))
          CFI (cfiCond74) V1 load(1, XDATA, add(CFA_XSP16, literal(-17)))
          CFI (cfiCond74) V2 load(1, XDATA, add(CFA_XSP16, literal(-16)))
          CFI (cfiCond74) V3 load(1, XDATA, add(CFA_XSP16, literal(-15)))
          CFI (cfiCond74) V4 load(1, XDATA, add(CFA_XSP16, literal(-14)))
          CFI (cfiCond74) V5 load(1, XDATA, add(CFA_XSP16, literal(-13)))
          CFI (cfiCond74) V6 load(1, XDATA, add(CFA_XSP16, literal(-12)))
          CFI (cfiCond74) V7 load(1, XDATA, add(CFA_XSP16, literal(-11)))
          CFI (cfiCond74) V8 load(1, XDATA, add(CFA_XSP16, literal(-10)))
          CFI (cfiCond74) V9 load(1, XDATA, add(CFA_XSP16, literal(-9)))
          CFI (cfiCond74) V10 load(1, XDATA, add(CFA_XSP16, literal(-8)))
          CFI (cfiCond74) V11 load(1, XDATA, add(CFA_XSP16, literal(-7)))
          CFI (cfiCond74) R7 load(1, XDATA, add(CFA_XSP16, literal(-6)))
          CFI (cfiCond74) ?RET_LOW load(1, XDATA, add(CFA_XSP16, literal(-5)))
          CFI (cfiCond74) ?RET_HIGH load(1, XDATA, add(CFA_XSP16, literal(-4)))
          CFI (cfiCond74) ?BRET_EXT load(1, XDATA, add(CFA_XSP16, literal(-3)))
          CFI (cfiCond74) DPL0 load(1, XDATA, add(CFA_XSP16, literal(-2)))
          CFI (cfiCond74) DPH0 load(1, XDATA, add(CFA_XSP16, literal(-1)))
          CFI (cfiCond74) CFA_SP SP+-2
          CFI (cfiCond74) CFA_XSP16 add(XSP16, 63)
          CFI Block cfiCond75 Using cfiCommon0
          CFI (cfiCond75) Function zha_project_ProcessInReportCmd
          CFI (cfiCond75) Conditional ??CrossCallReturnLabel_90
          CFI (cfiCond75) R6 load(1, XDATA, add(CFA_XSP16, literal(-20)))
          CFI (cfiCond75) VB load(1, XDATA, add(CFA_XSP16, literal(-19)))
          CFI (cfiCond75) V0 load(1, XDATA, add(CFA_XSP16, literal(-18)))
          CFI (cfiCond75) V1 load(1, XDATA, add(CFA_XSP16, literal(-17)))
          CFI (cfiCond75) V2 load(1, XDATA, add(CFA_XSP16, literal(-16)))
          CFI (cfiCond75) V3 load(1, XDATA, add(CFA_XSP16, literal(-15)))
          CFI (cfiCond75) V4 load(1, XDATA, add(CFA_XSP16, literal(-14)))
          CFI (cfiCond75) V5 load(1, XDATA, add(CFA_XSP16, literal(-13)))
          CFI (cfiCond75) V6 load(1, XDATA, add(CFA_XSP16, literal(-12)))
          CFI (cfiCond75) V7 load(1, XDATA, add(CFA_XSP16, literal(-11)))
          CFI (cfiCond75) V8 load(1, XDATA, add(CFA_XSP16, literal(-10)))
          CFI (cfiCond75) V9 load(1, XDATA, add(CFA_XSP16, literal(-9)))
          CFI (cfiCond75) V10 load(1, XDATA, add(CFA_XSP16, literal(-8)))
          CFI (cfiCond75) V11 load(1, XDATA, add(CFA_XSP16, literal(-7)))
          CFI (cfiCond75) R7 load(1, XDATA, add(CFA_XSP16, literal(-6)))
          CFI (cfiCond75) ?RET_LOW load(1, XDATA, add(CFA_XSP16, literal(-5)))
          CFI (cfiCond75) ?RET_HIGH load(1, XDATA, add(CFA_XSP16, literal(-4)))
          CFI (cfiCond75) ?BRET_EXT load(1, XDATA, add(CFA_XSP16, literal(-3)))
          CFI (cfiCond75) DPL0 load(1, XDATA, add(CFA_XSP16, literal(-2)))
          CFI (cfiCond75) DPH0 load(1, XDATA, add(CFA_XSP16, literal(-1)))
          CFI (cfiCond75) CFA_SP SP+-2
          CFI (cfiCond75) CFA_XSP16 add(XSP16, 63)
          CFI Block cfiCond76 Using cfiCommon0
          CFI (cfiCond76) Function zha_project_ProcessInReadRspCmd
          CFI (cfiCond76) Conditional ??CrossCallReturnLabel_81
          CFI (cfiCond76) R6 load(1, XDATA, add(CFA_XSP16, literal(-20)))
          CFI (cfiCond76) VB load(1, XDATA, add(CFA_XSP16, literal(-19)))
          CFI (cfiCond76) V0 load(1, XDATA, add(CFA_XSP16, literal(-18)))
          CFI (cfiCond76) V1 load(1, XDATA, add(CFA_XSP16, literal(-17)))
          CFI (cfiCond76) V2 load(1, XDATA, add(CFA_XSP16, literal(-16)))
          CFI (cfiCond76) V3 load(1, XDATA, add(CFA_XSP16, literal(-15)))
          CFI (cfiCond76) V4 load(1, XDATA, add(CFA_XSP16, literal(-14)))
          CFI (cfiCond76) V5 load(1, XDATA, add(CFA_XSP16, literal(-13)))
          CFI (cfiCond76) V6 load(1, XDATA, add(CFA_XSP16, literal(-12)))
          CFI (cfiCond76) V7 load(1, XDATA, add(CFA_XSP16, literal(-11)))
          CFI (cfiCond76) V8 load(1, XDATA, add(CFA_XSP16, literal(-10)))
          CFI (cfiCond76) V9 load(1, XDATA, add(CFA_XSP16, literal(-9)))
          CFI (cfiCond76) V10 load(1, XDATA, add(CFA_XSP16, literal(-8)))
          CFI (cfiCond76) V11 load(1, XDATA, add(CFA_XSP16, literal(-7)))
          CFI (cfiCond76) R7 load(1, XDATA, add(CFA_XSP16, literal(-6)))
          CFI (cfiCond76) ?RET_LOW load(1, XDATA, add(CFA_XSP16, literal(-5)))
          CFI (cfiCond76) ?RET_HIGH load(1, XDATA, add(CFA_XSP16, literal(-4)))
          CFI (cfiCond76) ?BRET_EXT load(1, XDATA, add(CFA_XSP16, literal(-3)))
          CFI (cfiCond76) DPL0 load(1, XDATA, add(CFA_XSP16, literal(-2)))
          CFI (cfiCond76) DPH0 load(1, XDATA, add(CFA_XSP16, literal(-1)))
          CFI (cfiCond76) CFA_SP SP+-2
          CFI (cfiCond76) CFA_XSP16 add(XSP16, 63)
          CFI Block cfiCond77 Using cfiCommon0
          CFI (cfiCond77) Function zha_project_ProcessInReadRspCmd
          CFI (cfiCond77) Conditional ??CrossCallReturnLabel_82
          CFI (cfiCond77) R6 load(1, XDATA, add(CFA_XSP16, literal(-20)))
          CFI (cfiCond77) VB load(1, XDATA, add(CFA_XSP16, literal(-19)))
          CFI (cfiCond77) V0 load(1, XDATA, add(CFA_XSP16, literal(-18)))
          CFI (cfiCond77) V1 load(1, XDATA, add(CFA_XSP16, literal(-17)))
          CFI (cfiCond77) V2 load(1, XDATA, add(CFA_XSP16, literal(-16)))
          CFI (cfiCond77) V3 load(1, XDATA, add(CFA_XSP16, literal(-15)))
          CFI (cfiCond77) V4 load(1, XDATA, add(CFA_XSP16, literal(-14)))
          CFI (cfiCond77) V5 load(1, XDATA, add(CFA_XSP16, literal(-13)))
          CFI (cfiCond77) V6 load(1, XDATA, add(CFA_XSP16, literal(-12)))
          CFI (cfiCond77) V7 load(1, XDATA, add(CFA_XSP16, literal(-11)))
          CFI (cfiCond77) V8 load(1, XDATA, add(CFA_XSP16, literal(-10)))
          CFI (cfiCond77) V9 load(1, XDATA, add(CFA_XSP16, literal(-9)))
          CFI (cfiCond77) V10 load(1, XDATA, add(CFA_XSP16, literal(-8)))
          CFI (cfiCond77) V11 load(1, XDATA, add(CFA_XSP16, literal(-7)))
          CFI (cfiCond77) R7 load(1, XDATA, add(CFA_XSP16, literal(-6)))
          CFI (cfiCond77) ?RET_LOW load(1, XDATA, add(CFA_XSP16, literal(-5)))
          CFI (cfiCond77) ?RET_HIGH load(1, XDATA, add(CFA_XSP16, literal(-4)))
          CFI (cfiCond77) ?BRET_EXT load(1, XDATA, add(CFA_XSP16, literal(-3)))
          CFI (cfiCond77) DPL0 load(1, XDATA, add(CFA_XSP16, literal(-2)))
          CFI (cfiCond77) DPH0 load(1, XDATA, add(CFA_XSP16, literal(-1)))
          CFI (cfiCond77) CFA_SP SP+-2
          CFI (cfiCond77) CFA_XSP16 add(XSP16, 63)
          CFI Block cfiCond78 Using cfiCommon0
          CFI (cfiCond78) Function zha_project_ProcessInReadRspCmd
          CFI (cfiCond78) Conditional ??CrossCallReturnLabel_83
          CFI (cfiCond78) R6 load(1, XDATA, add(CFA_XSP16, literal(-20)))
          CFI (cfiCond78) VB load(1, XDATA, add(CFA_XSP16, literal(-19)))
          CFI (cfiCond78) V0 load(1, XDATA, add(CFA_XSP16, literal(-18)))
          CFI (cfiCond78) V1 load(1, XDATA, add(CFA_XSP16, literal(-17)))
          CFI (cfiCond78) V2 load(1, XDATA, add(CFA_XSP16, literal(-16)))
          CFI (cfiCond78) V3 load(1, XDATA, add(CFA_XSP16, literal(-15)))
          CFI (cfiCond78) V4 load(1, XDATA, add(CFA_XSP16, literal(-14)))
          CFI (cfiCond78) V5 load(1, XDATA, add(CFA_XSP16, literal(-13)))
          CFI (cfiCond78) V6 load(1, XDATA, add(CFA_XSP16, literal(-12)))
          CFI (cfiCond78) V7 load(1, XDATA, add(CFA_XSP16, literal(-11)))
          CFI (cfiCond78) V8 load(1, XDATA, add(CFA_XSP16, literal(-10)))
          CFI (cfiCond78) V9 load(1, XDATA, add(CFA_XSP16, literal(-9)))
          CFI (cfiCond78) V10 load(1, XDATA, add(CFA_XSP16, literal(-8)))
          CFI (cfiCond78) V11 load(1, XDATA, add(CFA_XSP16, literal(-7)))
          CFI (cfiCond78) R7 load(1, XDATA, add(CFA_XSP16, literal(-6)))
          CFI (cfiCond78) ?RET_LOW load(1, XDATA, add(CFA_XSP16, literal(-5)))
          CFI (cfiCond78) ?RET_HIGH load(1, XDATA, add(CFA_XSP16, literal(-4)))
          CFI (cfiCond78) ?BRET_EXT load(1, XDATA, add(CFA_XSP16, literal(-3)))
          CFI (cfiCond78) DPL0 load(1, XDATA, add(CFA_XSP16, literal(-2)))
          CFI (cfiCond78) DPH0 load(1, XDATA, add(CFA_XSP16, literal(-1)))
          CFI (cfiCond78) CFA_SP SP+-2
          CFI (cfiCond78) CFA_XSP16 add(XSP16, 63)
          CFI Block cfiCond79 Using cfiCommon0
          CFI (cfiCond79) Function zha_project_ProcessInReadRspCmd
          CFI (cfiCond79) Conditional ??CrossCallReturnLabel_84
          CFI (cfiCond79) R6 load(1, XDATA, add(CFA_XSP16, literal(-20)))
          CFI (cfiCond79) VB load(1, XDATA, add(CFA_XSP16, literal(-19)))
          CFI (cfiCond79) V0 load(1, XDATA, add(CFA_XSP16, literal(-18)))
          CFI (cfiCond79) V1 load(1, XDATA, add(CFA_XSP16, literal(-17)))
          CFI (cfiCond79) V2 load(1, XDATA, add(CFA_XSP16, literal(-16)))
          CFI (cfiCond79) V3 load(1, XDATA, add(CFA_XSP16, literal(-15)))
          CFI (cfiCond79) V4 load(1, XDATA, add(CFA_XSP16, literal(-14)))
          CFI (cfiCond79) V5 load(1, XDATA, add(CFA_XSP16, literal(-13)))
          CFI (cfiCond79) V6 load(1, XDATA, add(CFA_XSP16, literal(-12)))
          CFI (cfiCond79) V7 load(1, XDATA, add(CFA_XSP16, literal(-11)))
          CFI (cfiCond79) V8 load(1, XDATA, add(CFA_XSP16, literal(-10)))
          CFI (cfiCond79) V9 load(1, XDATA, add(CFA_XSP16, literal(-9)))
          CFI (cfiCond79) V10 load(1, XDATA, add(CFA_XSP16, literal(-8)))
          CFI (cfiCond79) V11 load(1, XDATA, add(CFA_XSP16, literal(-7)))
          CFI (cfiCond79) R7 load(1, XDATA, add(CFA_XSP16, literal(-6)))
          CFI (cfiCond79) ?RET_LOW load(1, XDATA, add(CFA_XSP16, literal(-5)))
          CFI (cfiCond79) ?RET_HIGH load(1, XDATA, add(CFA_XSP16, literal(-4)))
          CFI (cfiCond79) ?BRET_EXT load(1, XDATA, add(CFA_XSP16, literal(-3)))
          CFI (cfiCond79) DPL0 load(1, XDATA, add(CFA_XSP16, literal(-2)))
          CFI (cfiCond79) DPH0 load(1, XDATA, add(CFA_XSP16, literal(-1)))
          CFI (cfiCond79) CFA_SP SP+-2
          CFI (cfiCond79) CFA_XSP16 add(XSP16, 63)
          CFI Block cfiCond80 Using cfiCommon0
          CFI (cfiCond80) Function zha_project_ProcessInReadRspCmd
          CFI (cfiCond80) Conditional ??CrossCallReturnLabel_85
          CFI (cfiCond80) R6 load(1, XDATA, add(CFA_XSP16, literal(-20)))
          CFI (cfiCond80) VB load(1, XDATA, add(CFA_XSP16, literal(-19)))
          CFI (cfiCond80) V0 load(1, XDATA, add(CFA_XSP16, literal(-18)))
          CFI (cfiCond80) V1 load(1, XDATA, add(CFA_XSP16, literal(-17)))
          CFI (cfiCond80) V2 load(1, XDATA, add(CFA_XSP16, literal(-16)))
          CFI (cfiCond80) V3 load(1, XDATA, add(CFA_XSP16, literal(-15)))
          CFI (cfiCond80) V4 load(1, XDATA, add(CFA_XSP16, literal(-14)))
          CFI (cfiCond80) V5 load(1, XDATA, add(CFA_XSP16, literal(-13)))
          CFI (cfiCond80) V6 load(1, XDATA, add(CFA_XSP16, literal(-12)))
          CFI (cfiCond80) V7 load(1, XDATA, add(CFA_XSP16, literal(-11)))
          CFI (cfiCond80) V8 load(1, XDATA, add(CFA_XSP16, literal(-10)))
          CFI (cfiCond80) V9 load(1, XDATA, add(CFA_XSP16, literal(-9)))
          CFI (cfiCond80) V10 load(1, XDATA, add(CFA_XSP16, literal(-8)))
          CFI (cfiCond80) V11 load(1, XDATA, add(CFA_XSP16, literal(-7)))
          CFI (cfiCond80) R7 load(1, XDATA, add(CFA_XSP16, literal(-6)))
          CFI (cfiCond80) ?RET_LOW load(1, XDATA, add(CFA_XSP16, literal(-5)))
          CFI (cfiCond80) ?RET_HIGH load(1, XDATA, add(CFA_XSP16, literal(-4)))
          CFI (cfiCond80) ?BRET_EXT load(1, XDATA, add(CFA_XSP16, literal(-3)))
          CFI (cfiCond80) DPL0 load(1, XDATA, add(CFA_XSP16, literal(-2)))
          CFI (cfiCond80) DPH0 load(1, XDATA, add(CFA_XSP16, literal(-1)))
          CFI (cfiCond80) CFA_SP SP+-2
          CFI (cfiCond80) CFA_XSP16 add(XSP16, 63)
          CFI Block cfiPicker81 Using cfiCommon1
          CFI (cfiPicker81) NoFunction
          CFI (cfiPicker81) Picker
        LCALL   ?Subroutine26 & 0xFFFF
??CrossCallReturnLabel_92:
        MOV     R0,A
        INC     DPTR
        MOVX    A,@DPTR
        MOV     R1,A
        MOV     A,R0
        ORL     A,R1
        RET
          CFI EndBlock cfiCond71
          CFI EndBlock cfiCond72
          CFI EndBlock cfiCond73
          CFI EndBlock cfiCond74
          CFI EndBlock cfiCond75
          CFI EndBlock cfiCond76
          CFI EndBlock cfiCond77
          CFI EndBlock cfiCond78
          CFI EndBlock cfiCond79
          CFI EndBlock cfiCond80
          CFI EndBlock cfiPicker81

        RSEG BANKED_CODE:CODE:NOROOT(0)
?Subroutine31:
          CFI Block cfiCond82 Using cfiCommon0
          CFI Function zha_project_ProcessInReadRspCmd
          CFI Conditional ??CrossCallReturnLabel_59, ??CrossCallReturnLabel_77
          CFI R6 load(1, XDATA, add(CFA_XSP16, literal(-20)))
          CFI VB load(1, XDATA, add(CFA_XSP16, literal(-19)))
          CFI V0 load(1, XDATA, add(CFA_XSP16, literal(-18)))
          CFI V1 load(1, XDATA, add(CFA_XSP16, literal(-17)))
          CFI V2 load(1, XDATA, add(CFA_XSP16, literal(-16)))
          CFI V3 load(1, XDATA, add(CFA_XSP16, literal(-15)))
          CFI V4 load(1, XDATA, add(CFA_XSP16, literal(-14)))
          CFI V5 load(1, XDATA, add(CFA_XSP16, literal(-13)))
          CFI V6 load(1, XDATA, add(CFA_XSP16, literal(-12)))
          CFI V7 load(1, XDATA, add(CFA_XSP16, literal(-11)))
          CFI V8 load(1, XDATA, add(CFA_XSP16, literal(-10)))
          CFI V9 load(1, XDATA, add(CFA_XSP16, literal(-9)))
          CFI V10 load(1, XDATA, add(CFA_XSP16, literal(-8)))
          CFI V11 load(1, XDATA, add(CFA_XSP16, literal(-7)))
          CFI R7 load(1, XDATA, add(CFA_XSP16, literal(-6)))
          CFI ?RET_LOW load(1, XDATA, add(CFA_XSP16, literal(-5)))
          CFI ?RET_HIGH load(1, XDATA, add(CFA_XSP16, literal(-4)))
          CFI ?BRET_EXT load(1, XDATA, add(CFA_XSP16, literal(-3)))
          CFI DPL0 load(1, XDATA, add(CFA_XSP16, literal(-2)))
          CFI DPH0 load(1, XDATA, add(CFA_XSP16, literal(-1)))
          CFI CFA_SP SP+-4
          CFI CFA_XSP16 add(XSP16, 63)
          CFI Block cfiCond83 Using cfiCommon0
          CFI (cfiCond83) Function zha_project_ProcessInReadRspCmd
          CFI (cfiCond83) Conditional ??CrossCallReturnLabel_59, ??CrossCallReturnLabel_78
          CFI (cfiCond83) R6 load(1, XDATA, add(CFA_XSP16, literal(-20)))
          CFI (cfiCond83) VB load(1, XDATA, add(CFA_XSP16, literal(-19)))
          CFI (cfiCond83) V0 load(1, XDATA, add(CFA_XSP16, literal(-18)))
          CFI (cfiCond83) V1 load(1, XDATA, add(CFA_XSP16, literal(-17)))
          CFI (cfiCond83) V2 load(1, XDATA, add(CFA_XSP16, literal(-16)))
          CFI (cfiCond83) V3 load(1, XDATA, add(CFA_XSP16, literal(-15)))
          CFI (cfiCond83) V4 load(1, XDATA, add(CFA_XSP16, literal(-14)))
          CFI (cfiCond83) V5 load(1, XDATA, add(CFA_XSP16, literal(-13)))
          CFI (cfiCond83) V6 load(1, XDATA, add(CFA_XSP16, literal(-12)))
          CFI (cfiCond83) V7 load(1, XDATA, add(CFA_XSP16, literal(-11)))
          CFI (cfiCond83) V8 load(1, XDATA, add(CFA_XSP16, literal(-10)))
          CFI (cfiCond83) V9 load(1, XDATA, add(CFA_XSP16, literal(-9)))
          CFI (cfiCond83) V10 load(1, XDATA, add(CFA_XSP16, literal(-8)))
          CFI (cfiCond83) V11 load(1, XDATA, add(CFA_XSP16, literal(-7)))
          CFI (cfiCond83) R7 load(1, XDATA, add(CFA_XSP16, literal(-6)))
          CFI (cfiCond83) ?RET_LOW load(1, XDATA, add(CFA_XSP16, literal(-5)))
          CFI (cfiCond83) ?RET_HIGH load(1, XDATA, add(CFA_XSP16, literal(-4)))
          CFI (cfiCond83) ?BRET_EXT load(1, XDATA, add(CFA_XSP16, literal(-3)))
          CFI (cfiCond83) DPL0 load(1, XDATA, add(CFA_XSP16, literal(-2)))
          CFI (cfiCond83) DPH0 load(1, XDATA, add(CFA_XSP16, literal(-1)))
          CFI (cfiCond83) CFA_SP SP+-4
          CFI (cfiCond83) CFA_XSP16 add(XSP16, 63)
          CFI Block cfiCond84 Using cfiCommon0
          CFI (cfiCond84) Function zha_project_ProcessInReadRspCmd
          CFI (cfiCond84) Conditional ??CrossCallReturnLabel_60, ??CrossCallReturnLabel_81
          CFI (cfiCond84) R6 load(1, XDATA, add(CFA_XSP16, literal(-20)))
          CFI (cfiCond84) VB load(1, XDATA, add(CFA_XSP16, literal(-19)))
          CFI (cfiCond84) V0 load(1, XDATA, add(CFA_XSP16, literal(-18)))
          CFI (cfiCond84) V1 load(1, XDATA, add(CFA_XSP16, literal(-17)))
          CFI (cfiCond84) V2 load(1, XDATA, add(CFA_XSP16, literal(-16)))
          CFI (cfiCond84) V3 load(1, XDATA, add(CFA_XSP16, literal(-15)))
          CFI (cfiCond84) V4 load(1, XDATA, add(CFA_XSP16, literal(-14)))
          CFI (cfiCond84) V5 load(1, XDATA, add(CFA_XSP16, literal(-13)))
          CFI (cfiCond84) V6 load(1, XDATA, add(CFA_XSP16, literal(-12)))
          CFI (cfiCond84) V7 load(1, XDATA, add(CFA_XSP16, literal(-11)))
          CFI (cfiCond84) V8 load(1, XDATA, add(CFA_XSP16, literal(-10)))
          CFI (cfiCond84) V9 load(1, XDATA, add(CFA_XSP16, literal(-9)))
          CFI (cfiCond84) V10 load(1, XDATA, add(CFA_XSP16, literal(-8)))
          CFI (cfiCond84) V11 load(1, XDATA, add(CFA_XSP16, literal(-7)))
          CFI (cfiCond84) R7 load(1, XDATA, add(CFA_XSP16, literal(-6)))
          CFI (cfiCond84) ?RET_LOW load(1, XDATA, add(CFA_XSP16, literal(-5)))
          CFI (cfiCond84) ?RET_HIGH load(1, XDATA, add(CFA_XSP16, literal(-4)))
          CFI (cfiCond84) ?BRET_EXT load(1, XDATA, add(CFA_XSP16, literal(-3)))
          CFI (cfiCond84) DPL0 load(1, XDATA, add(CFA_XSP16, literal(-2)))
          CFI (cfiCond84) DPH0 load(1, XDATA, add(CFA_XSP16, literal(-1)))
          CFI (cfiCond84) CFA_SP SP+-4
          CFI (cfiCond84) CFA_XSP16 add(XSP16, 63)
          CFI Block cfiCond85 Using cfiCommon0
          CFI (cfiCond85) Function zha_project_ProcessInReadRspCmd
          CFI (cfiCond85) Conditional ??CrossCallReturnLabel_60, ??CrossCallReturnLabel_82
          CFI (cfiCond85) R6 load(1, XDATA, add(CFA_XSP16, literal(-20)))
          CFI (cfiCond85) VB load(1, XDATA, add(CFA_XSP16, literal(-19)))
          CFI (cfiCond85) V0 load(1, XDATA, add(CFA_XSP16, literal(-18)))
          CFI (cfiCond85) V1 load(1, XDATA, add(CFA_XSP16, literal(-17)))
          CFI (cfiCond85) V2 load(1, XDATA, add(CFA_XSP16, literal(-16)))
          CFI (cfiCond85) V3 load(1, XDATA, add(CFA_XSP16, literal(-15)))
          CFI (cfiCond85) V4 load(1, XDATA, add(CFA_XSP16, literal(-14)))
          CFI (cfiCond85) V5 load(1, XDATA, add(CFA_XSP16, literal(-13)))
          CFI (cfiCond85) V6 load(1, XDATA, add(CFA_XSP16, literal(-12)))
          CFI (cfiCond85) V7 load(1, XDATA, add(CFA_XSP16, literal(-11)))
          CFI (cfiCond85) V8 load(1, XDATA, add(CFA_XSP16, literal(-10)))
          CFI (cfiCond85) V9 load(1, XDATA, add(CFA_XSP16, literal(-9)))
          CFI (cfiCond85) V10 load(1, XDATA, add(CFA_XSP16, literal(-8)))
          CFI (cfiCond85) V11 load(1, XDATA, add(CFA_XSP16, literal(-7)))
          CFI (cfiCond85) R7 load(1, XDATA, add(CFA_XSP16, literal(-6)))
          CFI (cfiCond85) ?RET_LOW load(1, XDATA, add(CFA_XSP16, literal(-5)))
          CFI (cfiCond85) ?RET_HIGH load(1, XDATA, add(CFA_XSP16, literal(-4)))
          CFI (cfiCond85) ?BRET_EXT load(1, XDATA, add(CFA_XSP16, literal(-3)))
          CFI (cfiCond85) DPL0 load(1, XDATA, add(CFA_XSP16, literal(-2)))
          CFI (cfiCond85) DPH0 load(1, XDATA, add(CFA_XSP16, literal(-1)))
          CFI (cfiCond85) CFA_SP SP+-4
          CFI (cfiCond85) CFA_XSP16 add(XSP16, 63)
          CFI Block cfiCond86 Using cfiCommon0
          CFI (cfiCond86) Function zha_project_ProcessInReadRspCmd
          CFI (cfiCond86) Conditional ??CrossCallReturnLabel_60, ??CrossCallReturnLabel_83
          CFI (cfiCond86) R6 load(1, XDATA, add(CFA_XSP16, literal(-20)))
          CFI (cfiCond86) VB load(1, XDATA, add(CFA_XSP16, literal(-19)))
          CFI (cfiCond86) V0 load(1, XDATA, add(CFA_XSP16, literal(-18)))
          CFI (cfiCond86) V1 load(1, XDATA, add(CFA_XSP16, literal(-17)))
          CFI (cfiCond86) V2 load(1, XDATA, add(CFA_XSP16, literal(-16)))
          CFI (cfiCond86) V3 load(1, XDATA, add(CFA_XSP16, literal(-15)))
          CFI (cfiCond86) V4 load(1, XDATA, add(CFA_XSP16, literal(-14)))
          CFI (cfiCond86) V5 load(1, XDATA, add(CFA_XSP16, literal(-13)))
          CFI (cfiCond86) V6 load(1, XDATA, add(CFA_XSP16, literal(-12)))
          CFI (cfiCond86) V7 load(1, XDATA, add(CFA_XSP16, literal(-11)))
          CFI (cfiCond86) V8 load(1, XDATA, add(CFA_XSP16, literal(-10)))
          CFI (cfiCond86) V9 load(1, XDATA, add(CFA_XSP16, literal(-9)))
          CFI (cfiCond86) V10 load(1, XDATA, add(CFA_XSP16, literal(-8)))
          CFI (cfiCond86) V11 load(1, XDATA, add(CFA_XSP16, literal(-7)))
          CFI (cfiCond86) R7 load(1, XDATA, add(CFA_XSP16, literal(-6)))
          CFI (cfiCond86) ?RET_LOW load(1, XDATA, add(CFA_XSP16, literal(-5)))
          CFI (cfiCond86) ?RET_HIGH load(1, XDATA, add(CFA_XSP16, literal(-4)))
          CFI (cfiCond86) ?BRET_EXT load(1, XDATA, add(CFA_XSP16, literal(-3)))
          CFI (cfiCond86) DPL0 load(1, XDATA, add(CFA_XSP16, literal(-2)))
          CFI (cfiCond86) DPH0 load(1, XDATA, add(CFA_XSP16, literal(-1)))
          CFI (cfiCond86) CFA_SP SP+-4
          CFI (cfiCond86) CFA_XSP16 add(XSP16, 63)
          CFI Block cfiCond87 Using cfiCommon0
          CFI (cfiCond87) Function zha_project_ProcessInReadRspCmd
          CFI (cfiCond87) Conditional ??CrossCallReturnLabel_60, ??CrossCallReturnLabel_84
          CFI (cfiCond87) R6 load(1, XDATA, add(CFA_XSP16, literal(-20)))
          CFI (cfiCond87) VB load(1, XDATA, add(CFA_XSP16, literal(-19)))
          CFI (cfiCond87) V0 load(1, XDATA, add(CFA_XSP16, literal(-18)))
          CFI (cfiCond87) V1 load(1, XDATA, add(CFA_XSP16, literal(-17)))
          CFI (cfiCond87) V2 load(1, XDATA, add(CFA_XSP16, literal(-16)))
          CFI (cfiCond87) V3 load(1, XDATA, add(CFA_XSP16, literal(-15)))
          CFI (cfiCond87) V4 load(1, XDATA, add(CFA_XSP16, literal(-14)))
          CFI (cfiCond87) V5 load(1, XDATA, add(CFA_XSP16, literal(-13)))
          CFI (cfiCond87) V6 load(1, XDATA, add(CFA_XSP16, literal(-12)))
          CFI (cfiCond87) V7 load(1, XDATA, add(CFA_XSP16, literal(-11)))
          CFI (cfiCond87) V8 load(1, XDATA, add(CFA_XSP16, literal(-10)))
          CFI (cfiCond87) V9 load(1, XDATA, add(CFA_XSP16, literal(-9)))
          CFI (cfiCond87) V10 load(1, XDATA, add(CFA_XSP16, literal(-8)))
          CFI (cfiCond87) V11 load(1, XDATA, add(CFA_XSP16, literal(-7)))
          CFI (cfiCond87) R7 load(1, XDATA, add(CFA_XSP16, literal(-6)))
          CFI (cfiCond87) ?RET_LOW load(1, XDATA, add(CFA_XSP16, literal(-5)))
          CFI (cfiCond87) ?RET_HIGH load(1, XDATA, add(CFA_XSP16, literal(-4)))
          CFI (cfiCond87) ?BRET_EXT load(1, XDATA, add(CFA_XSP16, literal(-3)))
          CFI (cfiCond87) DPL0 load(1, XDATA, add(CFA_XSP16, literal(-2)))
          CFI (cfiCond87) DPH0 load(1, XDATA, add(CFA_XSP16, literal(-1)))
          CFI (cfiCond87) CFA_SP SP+-4
          CFI (cfiCond87) CFA_XSP16 add(XSP16, 63)
          CFI Block cfiCond88 Using cfiCommon0
          CFI (cfiCond88) Function zha_project_ProcessInReadRspCmd
          CFI (cfiCond88) Conditional ??CrossCallReturnLabel_60, ??CrossCallReturnLabel_85
          CFI (cfiCond88) R6 load(1, XDATA, add(CFA_XSP16, literal(-20)))
          CFI (cfiCond88) VB load(1, XDATA, add(CFA_XSP16, literal(-19)))
          CFI (cfiCond88) V0 load(1, XDATA, add(CFA_XSP16, literal(-18)))
          CFI (cfiCond88) V1 load(1, XDATA, add(CFA_XSP16, literal(-17)))
          CFI (cfiCond88) V2 load(1, XDATA, add(CFA_XSP16, literal(-16)))
          CFI (cfiCond88) V3 load(1, XDATA, add(CFA_XSP16, literal(-15)))
          CFI (cfiCond88) V4 load(1, XDATA, add(CFA_XSP16, literal(-14)))
          CFI (cfiCond88) V5 load(1, XDATA, add(CFA_XSP16, literal(-13)))
          CFI (cfiCond88) V6 load(1, XDATA, add(CFA_XSP16, literal(-12)))
          CFI (cfiCond88) V7 load(1, XDATA, add(CFA_XSP16, literal(-11)))
          CFI (cfiCond88) V8 load(1, XDATA, add(CFA_XSP16, literal(-10)))
          CFI (cfiCond88) V9 load(1, XDATA, add(CFA_XSP16, literal(-9)))
          CFI (cfiCond88) V10 load(1, XDATA, add(CFA_XSP16, literal(-8)))
          CFI (cfiCond88) V11 load(1, XDATA, add(CFA_XSP16, literal(-7)))
          CFI (cfiCond88) R7 load(1, XDATA, add(CFA_XSP16, literal(-6)))
          CFI (cfiCond88) ?RET_LOW load(1, XDATA, add(CFA_XSP16, literal(-5)))
          CFI (cfiCond88) ?RET_HIGH load(1, XDATA, add(CFA_XSP16, literal(-4)))
          CFI (cfiCond88) ?BRET_EXT load(1, XDATA, add(CFA_XSP16, literal(-3)))
          CFI (cfiCond88) DPL0 load(1, XDATA, add(CFA_XSP16, literal(-2)))
          CFI (cfiCond88) DPH0 load(1, XDATA, add(CFA_XSP16, literal(-1)))
          CFI (cfiCond88) CFA_SP SP+-4
          CFI (cfiCond88) CFA_XSP16 add(XSP16, 63)
          CFI Block cfiPicker89 Using cfiCommon1
          CFI (cfiPicker89) NoFunction
          CFI (cfiPicker89) Picker
        MOV     A,R6
        MOV     B,#0x6
        LCALL   ?Subroutine33 & 0xFFFF
??CrossCallReturnLabel_105:
        INC     DPTR
        RET
          CFI EndBlock cfiCond82
          CFI EndBlock cfiCond83
          CFI EndBlock cfiCond84
          CFI EndBlock cfiCond85
          CFI EndBlock cfiCond86
          CFI EndBlock cfiCond87
          CFI EndBlock cfiCond88
          CFI EndBlock cfiPicker89

        RSEG BANKED_CODE:CODE:NOROOT(0)
?Subroutine26:
          CFI Block cfiCond90 Using cfiCommon0
          CFI Function zha_project_ProcessInReadRspCmd
          CFI Conditional ??CrossCallReturnLabel_91, ??CrossCallReturnLabel_77
          CFI R6 load(1, XDATA, add(CFA_XSP16, literal(-20)))
          CFI VB load(1, XDATA, add(CFA_XSP16, literal(-19)))
          CFI V0 load(1, XDATA, add(CFA_XSP16, literal(-18)))
          CFI V1 load(1, XDATA, add(CFA_XSP16, literal(-17)))
          CFI V2 load(1, XDATA, add(CFA_XSP16, literal(-16)))
          CFI V3 load(1, XDATA, add(CFA_XSP16, literal(-15)))
          CFI V4 load(1, XDATA, add(CFA_XSP16, literal(-14)))
          CFI V5 load(1, XDATA, add(CFA_XSP16, literal(-13)))
          CFI V6 load(1, XDATA, add(CFA_XSP16, literal(-12)))
          CFI V7 load(1, XDATA, add(CFA_XSP16, literal(-11)))
          CFI V8 load(1, XDATA, add(CFA_XSP16, literal(-10)))
          CFI V9 load(1, XDATA, add(CFA_XSP16, literal(-9)))
          CFI V10 load(1, XDATA, add(CFA_XSP16, literal(-8)))
          CFI V11 load(1, XDATA, add(CFA_XSP16, literal(-7)))
          CFI R7 load(1, XDATA, add(CFA_XSP16, literal(-6)))
          CFI ?RET_LOW load(1, XDATA, add(CFA_XSP16, literal(-5)))
          CFI ?RET_HIGH load(1, XDATA, add(CFA_XSP16, literal(-4)))
          CFI ?BRET_EXT load(1, XDATA, add(CFA_XSP16, literal(-3)))
          CFI DPL0 load(1, XDATA, add(CFA_XSP16, literal(-2)))
          CFI DPH0 load(1, XDATA, add(CFA_XSP16, literal(-1)))
          CFI CFA_SP SP+-4
          CFI CFA_XSP16 add(XSP16, 63)
          CFI Block cfiCond91 Using cfiCommon0
          CFI (cfiCond91) Function zha_project_ProcessInReadRspCmd
          CFI (cfiCond91) Conditional ??CrossCallReturnLabel_91, ??CrossCallReturnLabel_78
          CFI (cfiCond91) R6 load(1, XDATA, add(CFA_XSP16, literal(-20)))
          CFI (cfiCond91) VB load(1, XDATA, add(CFA_XSP16, literal(-19)))
          CFI (cfiCond91) V0 load(1, XDATA, add(CFA_XSP16, literal(-18)))
          CFI (cfiCond91) V1 load(1, XDATA, add(CFA_XSP16, literal(-17)))
          CFI (cfiCond91) V2 load(1, XDATA, add(CFA_XSP16, literal(-16)))
          CFI (cfiCond91) V3 load(1, XDATA, add(CFA_XSP16, literal(-15)))
          CFI (cfiCond91) V4 load(1, XDATA, add(CFA_XSP16, literal(-14)))
          CFI (cfiCond91) V5 load(1, XDATA, add(CFA_XSP16, literal(-13)))
          CFI (cfiCond91) V6 load(1, XDATA, add(CFA_XSP16, literal(-12)))
          CFI (cfiCond91) V7 load(1, XDATA, add(CFA_XSP16, literal(-11)))
          CFI (cfiCond91) V8 load(1, XDATA, add(CFA_XSP16, literal(-10)))
          CFI (cfiCond91) V9 load(1, XDATA, add(CFA_XSP16, literal(-9)))
          CFI (cfiCond91) V10 load(1, XDATA, add(CFA_XSP16, literal(-8)))
          CFI (cfiCond91) V11 load(1, XDATA, add(CFA_XSP16, literal(-7)))
          CFI (cfiCond91) R7 load(1, XDATA, add(CFA_XSP16, literal(-6)))
          CFI (cfiCond91) ?RET_LOW load(1, XDATA, add(CFA_XSP16, literal(-5)))
          CFI (cfiCond91) ?RET_HIGH load(1, XDATA, add(CFA_XSP16, literal(-4)))
          CFI (cfiCond91) ?BRET_EXT load(1, XDATA, add(CFA_XSP16, literal(-3)))
          CFI (cfiCond91) DPL0 load(1, XDATA, add(CFA_XSP16, literal(-2)))
          CFI (cfiCond91) DPH0 load(1, XDATA, add(CFA_XSP16, literal(-1)))
          CFI (cfiCond91) CFA_SP SP+-4
          CFI (cfiCond91) CFA_XSP16 add(XSP16, 63)
          CFI Block cfiCond92 Using cfiCommon0
          CFI (cfiCond92) Function zha_project_ProcessInReportCmd
          CFI (cfiCond92) Conditional ??CrossCallReturnLabel_91, ??CrossCallReturnLabel_79
          CFI (cfiCond92) R6 load(1, XDATA, add(CFA_XSP16, literal(-20)))
          CFI (cfiCond92) VB load(1, XDATA, add(CFA_XSP16, literal(-19)))
          CFI (cfiCond92) V0 load(1, XDATA, add(CFA_XSP16, literal(-18)))
          CFI (cfiCond92) V1 load(1, XDATA, add(CFA_XSP16, literal(-17)))
          CFI (cfiCond92) V2 load(1, XDATA, add(CFA_XSP16, literal(-16)))
          CFI (cfiCond92) V3 load(1, XDATA, add(CFA_XSP16, literal(-15)))
          CFI (cfiCond92) V4 load(1, XDATA, add(CFA_XSP16, literal(-14)))
          CFI (cfiCond92) V5 load(1, XDATA, add(CFA_XSP16, literal(-13)))
          CFI (cfiCond92) V6 load(1, XDATA, add(CFA_XSP16, literal(-12)))
          CFI (cfiCond92) V7 load(1, XDATA, add(CFA_XSP16, literal(-11)))
          CFI (cfiCond92) V8 load(1, XDATA, add(CFA_XSP16, literal(-10)))
          CFI (cfiCond92) V9 load(1, XDATA, add(CFA_XSP16, literal(-9)))
          CFI (cfiCond92) V10 load(1, XDATA, add(CFA_XSP16, literal(-8)))
          CFI (cfiCond92) V11 load(1, XDATA, add(CFA_XSP16, literal(-7)))
          CFI (cfiCond92) R7 load(1, XDATA, add(CFA_XSP16, literal(-6)))
          CFI (cfiCond92) ?RET_LOW load(1, XDATA, add(CFA_XSP16, literal(-5)))
          CFI (cfiCond92) ?RET_HIGH load(1, XDATA, add(CFA_XSP16, literal(-4)))
          CFI (cfiCond92) ?BRET_EXT load(1, XDATA, add(CFA_XSP16, literal(-3)))
          CFI (cfiCond92) DPL0 load(1, XDATA, add(CFA_XSP16, literal(-2)))
          CFI (cfiCond92) DPH0 load(1, XDATA, add(CFA_XSP16, literal(-1)))
          CFI (cfiCond92) CFA_SP SP+-4
          CFI (cfiCond92) CFA_XSP16 add(XSP16, 63)
          CFI Block cfiCond93 Using cfiCommon0
          CFI (cfiCond93) Function zha_project_ProcessInReportCmd
          CFI (cfiCond93) Conditional ??CrossCallReturnLabel_91, ??CrossCallReturnLabel_80
          CFI (cfiCond93) R6 load(1, XDATA, add(CFA_XSP16, literal(-20)))
          CFI (cfiCond93) VB load(1, XDATA, add(CFA_XSP16, literal(-19)))
          CFI (cfiCond93) V0 load(1, XDATA, add(CFA_XSP16, literal(-18)))
          CFI (cfiCond93) V1 load(1, XDATA, add(CFA_XSP16, literal(-17)))
          CFI (cfiCond93) V2 load(1, XDATA, add(CFA_XSP16, literal(-16)))
          CFI (cfiCond93) V3 load(1, XDATA, add(CFA_XSP16, literal(-15)))
          CFI (cfiCond93) V4 load(1, XDATA, add(CFA_XSP16, literal(-14)))
          CFI (cfiCond93) V5 load(1, XDATA, add(CFA_XSP16, literal(-13)))
          CFI (cfiCond93) V6 load(1, XDATA, add(CFA_XSP16, literal(-12)))
          CFI (cfiCond93) V7 load(1, XDATA, add(CFA_XSP16, literal(-11)))
          CFI (cfiCond93) V8 load(1, XDATA, add(CFA_XSP16, literal(-10)))
          CFI (cfiCond93) V9 load(1, XDATA, add(CFA_XSP16, literal(-9)))
          CFI (cfiCond93) V10 load(1, XDATA, add(CFA_XSP16, literal(-8)))
          CFI (cfiCond93) V11 load(1, XDATA, add(CFA_XSP16, literal(-7)))
          CFI (cfiCond93) R7 load(1, XDATA, add(CFA_XSP16, literal(-6)))
          CFI (cfiCond93) ?RET_LOW load(1, XDATA, add(CFA_XSP16, literal(-5)))
          CFI (cfiCond93) ?RET_HIGH load(1, XDATA, add(CFA_XSP16, literal(-4)))
          CFI (cfiCond93) ?BRET_EXT load(1, XDATA, add(CFA_XSP16, literal(-3)))
          CFI (cfiCond93) DPL0 load(1, XDATA, add(CFA_XSP16, literal(-2)))
          CFI (cfiCond93) DPH0 load(1, XDATA, add(CFA_XSP16, literal(-1)))
          CFI (cfiCond93) CFA_SP SP+-4
          CFI (cfiCond93) CFA_XSP16 add(XSP16, 63)
          CFI Block cfiCond94 Using cfiCommon0
          CFI (cfiCond94) Function zha_project_ProcessInReadRspCmd
          CFI (cfiCond94) Conditional ??CrossCallReturnLabel_92, ??CrossCallReturnLabel_81
          CFI (cfiCond94) R6 load(1, XDATA, add(CFA_XSP16, literal(-20)))
          CFI (cfiCond94) VB load(1, XDATA, add(CFA_XSP16, literal(-19)))
          CFI (cfiCond94) V0 load(1, XDATA, add(CFA_XSP16, literal(-18)))
          CFI (cfiCond94) V1 load(1, XDATA, add(CFA_XSP16, literal(-17)))
          CFI (cfiCond94) V2 load(1, XDATA, add(CFA_XSP16, literal(-16)))
          CFI (cfiCond94) V3 load(1, XDATA, add(CFA_XSP16, literal(-15)))
          CFI (cfiCond94) V4 load(1, XDATA, add(CFA_XSP16, literal(-14)))
          CFI (cfiCond94) V5 load(1, XDATA, add(CFA_XSP16, literal(-13)))
          CFI (cfiCond94) V6 load(1, XDATA, add(CFA_XSP16, literal(-12)))
          CFI (cfiCond94) V7 load(1, XDATA, add(CFA_XSP16, literal(-11)))
          CFI (cfiCond94) V8 load(1, XDATA, add(CFA_XSP16, literal(-10)))
          CFI (cfiCond94) V9 load(1, XDATA, add(CFA_XSP16, literal(-9)))
          CFI (cfiCond94) V10 load(1, XDATA, add(CFA_XSP16, literal(-8)))
          CFI (cfiCond94) V11 load(1, XDATA, add(CFA_XSP16, literal(-7)))
          CFI (cfiCond94) R7 load(1, XDATA, add(CFA_XSP16, literal(-6)))
          CFI (cfiCond94) ?RET_LOW load(1, XDATA, add(CFA_XSP16, literal(-5)))
          CFI (cfiCond94) ?RET_HIGH load(1, XDATA, add(CFA_XSP16, literal(-4)))
          CFI (cfiCond94) ?BRET_EXT load(1, XDATA, add(CFA_XSP16, literal(-3)))
          CFI (cfiCond94) DPL0 load(1, XDATA, add(CFA_XSP16, literal(-2)))
          CFI (cfiCond94) DPH0 load(1, XDATA, add(CFA_XSP16, literal(-1)))
          CFI (cfiCond94) CFA_SP SP+-4
          CFI (cfiCond94) CFA_XSP16 add(XSP16, 63)
          CFI Block cfiCond95 Using cfiCommon0
          CFI (cfiCond95) Function zha_project_ProcessInReadRspCmd
          CFI (cfiCond95) Conditional ??CrossCallReturnLabel_92, ??CrossCallReturnLabel_82
          CFI (cfiCond95) R6 load(1, XDATA, add(CFA_XSP16, literal(-20)))
          CFI (cfiCond95) VB load(1, XDATA, add(CFA_XSP16, literal(-19)))
          CFI (cfiCond95) V0 load(1, XDATA, add(CFA_XSP16, literal(-18)))
          CFI (cfiCond95) V1 load(1, XDATA, add(CFA_XSP16, literal(-17)))
          CFI (cfiCond95) V2 load(1, XDATA, add(CFA_XSP16, literal(-16)))
          CFI (cfiCond95) V3 load(1, XDATA, add(CFA_XSP16, literal(-15)))
          CFI (cfiCond95) V4 load(1, XDATA, add(CFA_XSP16, literal(-14)))
          CFI (cfiCond95) V5 load(1, XDATA, add(CFA_XSP16, literal(-13)))
          CFI (cfiCond95) V6 load(1, XDATA, add(CFA_XSP16, literal(-12)))
          CFI (cfiCond95) V7 load(1, XDATA, add(CFA_XSP16, literal(-11)))
          CFI (cfiCond95) V8 load(1, XDATA, add(CFA_XSP16, literal(-10)))
          CFI (cfiCond95) V9 load(1, XDATA, add(CFA_XSP16, literal(-9)))
          CFI (cfiCond95) V10 load(1, XDATA, add(CFA_XSP16, literal(-8)))
          CFI (cfiCond95) V11 load(1, XDATA, add(CFA_XSP16, literal(-7)))
          CFI (cfiCond95) R7 load(1, XDATA, add(CFA_XSP16, literal(-6)))
          CFI (cfiCond95) ?RET_LOW load(1, XDATA, add(CFA_XSP16, literal(-5)))
          CFI (cfiCond95) ?RET_HIGH load(1, XDATA, add(CFA_XSP16, literal(-4)))
          CFI (cfiCond95) ?BRET_EXT load(1, XDATA, add(CFA_XSP16, literal(-3)))
          CFI (cfiCond95) DPL0 load(1, XDATA, add(CFA_XSP16, literal(-2)))
          CFI (cfiCond95) DPH0 load(1, XDATA, add(CFA_XSP16, literal(-1)))
          CFI (cfiCond95) CFA_SP SP+-4
          CFI (cfiCond95) CFA_XSP16 add(XSP16, 63)
          CFI Block cfiCond96 Using cfiCommon0
          CFI (cfiCond96) Function zha_project_ProcessInReadRspCmd
          CFI (cfiCond96) Conditional ??CrossCallReturnLabel_92, ??CrossCallReturnLabel_83
          CFI (cfiCond96) R6 load(1, XDATA, add(CFA_XSP16, literal(-20)))
          CFI (cfiCond96) VB load(1, XDATA, add(CFA_XSP16, literal(-19)))
          CFI (cfiCond96) V0 load(1, XDATA, add(CFA_XSP16, literal(-18)))
          CFI (cfiCond96) V1 load(1, XDATA, add(CFA_XSP16, literal(-17)))
          CFI (cfiCond96) V2 load(1, XDATA, add(CFA_XSP16, literal(-16)))
          CFI (cfiCond96) V3 load(1, XDATA, add(CFA_XSP16, literal(-15)))
          CFI (cfiCond96) V4 load(1, XDATA, add(CFA_XSP16, literal(-14)))
          CFI (cfiCond96) V5 load(1, XDATA, add(CFA_XSP16, literal(-13)))
          CFI (cfiCond96) V6 load(1, XDATA, add(CFA_XSP16, literal(-12)))
          CFI (cfiCond96) V7 load(1, XDATA, add(CFA_XSP16, literal(-11)))
          CFI (cfiCond96) V8 load(1, XDATA, add(CFA_XSP16, literal(-10)))
          CFI (cfiCond96) V9 load(1, XDATA, add(CFA_XSP16, literal(-9)))
          CFI (cfiCond96) V10 load(1, XDATA, add(CFA_XSP16, literal(-8)))
          CFI (cfiCond96) V11 load(1, XDATA, add(CFA_XSP16, literal(-7)))
          CFI (cfiCond96) R7 load(1, XDATA, add(CFA_XSP16, literal(-6)))
          CFI (cfiCond96) ?RET_LOW load(1, XDATA, add(CFA_XSP16, literal(-5)))
          CFI (cfiCond96) ?RET_HIGH load(1, XDATA, add(CFA_XSP16, literal(-4)))
          CFI (cfiCond96) ?BRET_EXT load(1, XDATA, add(CFA_XSP16, literal(-3)))
          CFI (cfiCond96) DPL0 load(1, XDATA, add(CFA_XSP16, literal(-2)))
          CFI (cfiCond96) DPH0 load(1, XDATA, add(CFA_XSP16, literal(-1)))
          CFI (cfiCond96) CFA_SP SP+-4
          CFI (cfiCond96) CFA_XSP16 add(XSP16, 63)
          CFI Block cfiCond97 Using cfiCommon0
          CFI (cfiCond97) Function zha_project_ProcessInReadRspCmd
          CFI (cfiCond97) Conditional ??CrossCallReturnLabel_92, ??CrossCallReturnLabel_84
          CFI (cfiCond97) R6 load(1, XDATA, add(CFA_XSP16, literal(-20)))
          CFI (cfiCond97) VB load(1, XDATA, add(CFA_XSP16, literal(-19)))
          CFI (cfiCond97) V0 load(1, XDATA, add(CFA_XSP16, literal(-18)))
          CFI (cfiCond97) V1 load(1, XDATA, add(CFA_XSP16, literal(-17)))
          CFI (cfiCond97) V2 load(1, XDATA, add(CFA_XSP16, literal(-16)))
          CFI (cfiCond97) V3 load(1, XDATA, add(CFA_XSP16, literal(-15)))
          CFI (cfiCond97) V4 load(1, XDATA, add(CFA_XSP16, literal(-14)))
          CFI (cfiCond97) V5 load(1, XDATA, add(CFA_XSP16, literal(-13)))
          CFI (cfiCond97) V6 load(1, XDATA, add(CFA_XSP16, literal(-12)))
          CFI (cfiCond97) V7 load(1, XDATA, add(CFA_XSP16, literal(-11)))
          CFI (cfiCond97) V8 load(1, XDATA, add(CFA_XSP16, literal(-10)))
          CFI (cfiCond97) V9 load(1, XDATA, add(CFA_XSP16, literal(-9)))
          CFI (cfiCond97) V10 load(1, XDATA, add(CFA_XSP16, literal(-8)))
          CFI (cfiCond97) V11 load(1, XDATA, add(CFA_XSP16, literal(-7)))
          CFI (cfiCond97) R7 load(1, XDATA, add(CFA_XSP16, literal(-6)))
          CFI (cfiCond97) ?RET_LOW load(1, XDATA, add(CFA_XSP16, literal(-5)))
          CFI (cfiCond97) ?RET_HIGH load(1, XDATA, add(CFA_XSP16, literal(-4)))
          CFI (cfiCond97) ?BRET_EXT load(1, XDATA, add(CFA_XSP16, literal(-3)))
          CFI (cfiCond97) DPL0 load(1, XDATA, add(CFA_XSP16, literal(-2)))
          CFI (cfiCond97) DPH0 load(1, XDATA, add(CFA_XSP16, literal(-1)))
          CFI (cfiCond97) CFA_SP SP+-4
          CFI (cfiCond97) CFA_XSP16 add(XSP16, 63)
          CFI Block cfiCond98 Using cfiCommon0
          CFI (cfiCond98) Function zha_project_ProcessInReadRspCmd
          CFI (cfiCond98) Conditional ??CrossCallReturnLabel_92, ??CrossCallReturnLabel_85
          CFI (cfiCond98) R6 load(1, XDATA, add(CFA_XSP16, literal(-20)))
          CFI (cfiCond98) VB load(1, XDATA, add(CFA_XSP16, literal(-19)))
          CFI (cfiCond98) V0 load(1, XDATA, add(CFA_XSP16, literal(-18)))
          CFI (cfiCond98) V1 load(1, XDATA, add(CFA_XSP16, literal(-17)))
          CFI (cfiCond98) V2 load(1, XDATA, add(CFA_XSP16, literal(-16)))
          CFI (cfiCond98) V3 load(1, XDATA, add(CFA_XSP16, literal(-15)))
          CFI (cfiCond98) V4 load(1, XDATA, add(CFA_XSP16, literal(-14)))
          CFI (cfiCond98) V5 load(1, XDATA, add(CFA_XSP16, literal(-13)))
          CFI (cfiCond98) V6 load(1, XDATA, add(CFA_XSP16, literal(-12)))
          CFI (cfiCond98) V7 load(1, XDATA, add(CFA_XSP16, literal(-11)))
          CFI (cfiCond98) V8 load(1, XDATA, add(CFA_XSP16, literal(-10)))
          CFI (cfiCond98) V9 load(1, XDATA, add(CFA_XSP16, literal(-9)))
          CFI (cfiCond98) V10 load(1, XDATA, add(CFA_XSP16, literal(-8)))
          CFI (cfiCond98) V11 load(1, XDATA, add(CFA_XSP16, literal(-7)))
          CFI (cfiCond98) R7 load(1, XDATA, add(CFA_XSP16, literal(-6)))
          CFI (cfiCond98) ?RET_LOW load(1, XDATA, add(CFA_XSP16, literal(-5)))
          CFI (cfiCond98) ?RET_HIGH load(1, XDATA, add(CFA_XSP16, literal(-4)))
          CFI (cfiCond98) ?BRET_EXT load(1, XDATA, add(CFA_XSP16, literal(-3)))
          CFI (cfiCond98) DPL0 load(1, XDATA, add(CFA_XSP16, literal(-2)))
          CFI (cfiCond98) DPH0 load(1, XDATA, add(CFA_XSP16, literal(-1)))
          CFI (cfiCond98) CFA_SP SP+-4
          CFI (cfiCond98) CFA_XSP16 add(XSP16, 63)
          CFI Block cfiCond99 Using cfiCommon0
          CFI (cfiCond99) Function zha_project_ProcessInReportCmd
          CFI (cfiCond99) Conditional ??CrossCallReturnLabel_92, ??CrossCallReturnLabel_86
          CFI (cfiCond99) R6 load(1, XDATA, add(CFA_XSP16, literal(-20)))
          CFI (cfiCond99) VB load(1, XDATA, add(CFA_XSP16, literal(-19)))
          CFI (cfiCond99) V0 load(1, XDATA, add(CFA_XSP16, literal(-18)))
          CFI (cfiCond99) V1 load(1, XDATA, add(CFA_XSP16, literal(-17)))
          CFI (cfiCond99) V2 load(1, XDATA, add(CFA_XSP16, literal(-16)))
          CFI (cfiCond99) V3 load(1, XDATA, add(CFA_XSP16, literal(-15)))
          CFI (cfiCond99) V4 load(1, XDATA, add(CFA_XSP16, literal(-14)))
          CFI (cfiCond99) V5 load(1, XDATA, add(CFA_XSP16, literal(-13)))
          CFI (cfiCond99) V6 load(1, XDATA, add(CFA_XSP16, literal(-12)))
          CFI (cfiCond99) V7 load(1, XDATA, add(CFA_XSP16, literal(-11)))
          CFI (cfiCond99) V8 load(1, XDATA, add(CFA_XSP16, literal(-10)))
          CFI (cfiCond99) V9 load(1, XDATA, add(CFA_XSP16, literal(-9)))
          CFI (cfiCond99) V10 load(1, XDATA, add(CFA_XSP16, literal(-8)))
          CFI (cfiCond99) V11 load(1, XDATA, add(CFA_XSP16, literal(-7)))
          CFI (cfiCond99) R7 load(1, XDATA, add(CFA_XSP16, literal(-6)))
          CFI (cfiCond99) ?RET_LOW load(1, XDATA, add(CFA_XSP16, literal(-5)))
          CFI (cfiCond99) ?RET_HIGH load(1, XDATA, add(CFA_XSP16, literal(-4)))
          CFI (cfiCond99) ?BRET_EXT load(1, XDATA, add(CFA_XSP16, literal(-3)))
          CFI (cfiCond99) DPL0 load(1, XDATA, add(CFA_XSP16, literal(-2)))
          CFI (cfiCond99) DPH0 load(1, XDATA, add(CFA_XSP16, literal(-1)))
          CFI (cfiCond99) CFA_SP SP+-4
          CFI (cfiCond99) CFA_XSP16 add(XSP16, 63)
          CFI Block cfiCond100 Using cfiCommon0
          CFI (cfiCond100) Function zha_project_ProcessInReportCmd
          CFI (cfiCond100) Conditional ??CrossCallReturnLabel_92, ??CrossCallReturnLabel_87
          CFI (cfiCond100) R6 load(1, XDATA, add(CFA_XSP16, literal(-20)))
          CFI (cfiCond100) VB load(1, XDATA, add(CFA_XSP16, literal(-19)))
          CFI (cfiCond100) V0 load(1, XDATA, add(CFA_XSP16, literal(-18)))
          CFI (cfiCond100) V1 load(1, XDATA, add(CFA_XSP16, literal(-17)))
          CFI (cfiCond100) V2 load(1, XDATA, add(CFA_XSP16, literal(-16)))
          CFI (cfiCond100) V3 load(1, XDATA, add(CFA_XSP16, literal(-15)))
          CFI (cfiCond100) V4 load(1, XDATA, add(CFA_XSP16, literal(-14)))
          CFI (cfiCond100) V5 load(1, XDATA, add(CFA_XSP16, literal(-13)))
          CFI (cfiCond100) V6 load(1, XDATA, add(CFA_XSP16, literal(-12)))
          CFI (cfiCond100) V7 load(1, XDATA, add(CFA_XSP16, literal(-11)))
          CFI (cfiCond100) V8 load(1, XDATA, add(CFA_XSP16, literal(-10)))
          CFI (cfiCond100) V9 load(1, XDATA, add(CFA_XSP16, literal(-9)))
          CFI (cfiCond100) V10 load(1, XDATA, add(CFA_XSP16, literal(-8)))
          CFI (cfiCond100) V11 load(1, XDATA, add(CFA_XSP16, literal(-7)))
          CFI (cfiCond100) R7 load(1, XDATA, add(CFA_XSP16, literal(-6)))
          CFI (cfiCond100) ?RET_LOW load(1, XDATA, add(CFA_XSP16, literal(-5)))
          CFI (cfiCond100) ?RET_HIGH load(1, XDATA, add(CFA_XSP16, literal(-4)))
          CFI (cfiCond100) ?BRET_EXT load(1, XDATA, add(CFA_XSP16, literal(-3)))
          CFI (cfiCond100) DPL0 load(1, XDATA, add(CFA_XSP16, literal(-2)))
          CFI (cfiCond100) DPH0 load(1, XDATA, add(CFA_XSP16, literal(-1)))
          CFI (cfiCond100) CFA_SP SP+-4
          CFI (cfiCond100) CFA_XSP16 add(XSP16, 63)
          CFI Block cfiCond101 Using cfiCommon0
          CFI (cfiCond101) Function zha_project_ProcessInReportCmd
          CFI (cfiCond101) Conditional ??CrossCallReturnLabel_92, ??CrossCallReturnLabel_88
          CFI (cfiCond101) R6 load(1, XDATA, add(CFA_XSP16, literal(-20)))
          CFI (cfiCond101) VB load(1, XDATA, add(CFA_XSP16, literal(-19)))
          CFI (cfiCond101) V0 load(1, XDATA, add(CFA_XSP16, literal(-18)))
          CFI (cfiCond101) V1 load(1, XDATA, add(CFA_XSP16, literal(-17)))
          CFI (cfiCond101) V2 load(1, XDATA, add(CFA_XSP16, literal(-16)))
          CFI (cfiCond101) V3 load(1, XDATA, add(CFA_XSP16, literal(-15)))
          CFI (cfiCond101) V4 load(1, XDATA, add(CFA_XSP16, literal(-14)))
          CFI (cfiCond101) V5 load(1, XDATA, add(CFA_XSP16, literal(-13)))
          CFI (cfiCond101) V6 load(1, XDATA, add(CFA_XSP16, literal(-12)))
          CFI (cfiCond101) V7 load(1, XDATA, add(CFA_XSP16, literal(-11)))
          CFI (cfiCond101) V8 load(1, XDATA, add(CFA_XSP16, literal(-10)))
          CFI (cfiCond101) V9 load(1, XDATA, add(CFA_XSP16, literal(-9)))
          CFI (cfiCond101) V10 load(1, XDATA, add(CFA_XSP16, literal(-8)))
          CFI (cfiCond101) V11 load(1, XDATA, add(CFA_XSP16, literal(-7)))
          CFI (cfiCond101) R7 load(1, XDATA, add(CFA_XSP16, literal(-6)))
          CFI (cfiCond101) ?RET_LOW load(1, XDATA, add(CFA_XSP16, literal(-5)))
          CFI (cfiCond101) ?RET_HIGH load(1, XDATA, add(CFA_XSP16, literal(-4)))
          CFI (cfiCond101) ?BRET_EXT load(1, XDATA, add(CFA_XSP16, literal(-3)))
          CFI (cfiCond101) DPL0 load(1, XDATA, add(CFA_XSP16, literal(-2)))
          CFI (cfiCond101) DPH0 load(1, XDATA, add(CFA_XSP16, literal(-1)))
          CFI (cfiCond101) CFA_SP SP+-4
          CFI (cfiCond101) CFA_XSP16 add(XSP16, 63)
          CFI Block cfiCond102 Using cfiCommon0
          CFI (cfiCond102) Function zha_project_ProcessInReportCmd
          CFI (cfiCond102) Conditional ??CrossCallReturnLabel_92, ??CrossCallReturnLabel_89
          CFI (cfiCond102) R6 load(1, XDATA, add(CFA_XSP16, literal(-20)))
          CFI (cfiCond102) VB load(1, XDATA, add(CFA_XSP16, literal(-19)))
          CFI (cfiCond102) V0 load(1, XDATA, add(CFA_XSP16, literal(-18)))
          CFI (cfiCond102) V1 load(1, XDATA, add(CFA_XSP16, literal(-17)))
          CFI (cfiCond102) V2 load(1, XDATA, add(CFA_XSP16, literal(-16)))
          CFI (cfiCond102) V3 load(1, XDATA, add(CFA_XSP16, literal(-15)))
          CFI (cfiCond102) V4 load(1, XDATA, add(CFA_XSP16, literal(-14)))
          CFI (cfiCond102) V5 load(1, XDATA, add(CFA_XSP16, literal(-13)))
          CFI (cfiCond102) V6 load(1, XDATA, add(CFA_XSP16, literal(-12)))
          CFI (cfiCond102) V7 load(1, XDATA, add(CFA_XSP16, literal(-11)))
          CFI (cfiCond102) V8 load(1, XDATA, add(CFA_XSP16, literal(-10)))
          CFI (cfiCond102) V9 load(1, XDATA, add(CFA_XSP16, literal(-9)))
          CFI (cfiCond102) V10 load(1, XDATA, add(CFA_XSP16, literal(-8)))
          CFI (cfiCond102) V11 load(1, XDATA, add(CFA_XSP16, literal(-7)))
          CFI (cfiCond102) R7 load(1, XDATA, add(CFA_XSP16, literal(-6)))
          CFI (cfiCond102) ?RET_LOW load(1, XDATA, add(CFA_XSP16, literal(-5)))
          CFI (cfiCond102) ?RET_HIGH load(1, XDATA, add(CFA_XSP16, literal(-4)))
          CFI (cfiCond102) ?BRET_EXT load(1, XDATA, add(CFA_XSP16, literal(-3)))
          CFI (cfiCond102) DPL0 load(1, XDATA, add(CFA_XSP16, literal(-2)))
          CFI (cfiCond102) DPH0 load(1, XDATA, add(CFA_XSP16, literal(-1)))
          CFI (cfiCond102) CFA_SP SP+-4
          CFI (cfiCond102) CFA_XSP16 add(XSP16, 63)
          CFI Block cfiCond103 Using cfiCommon0
          CFI (cfiCond103) Function zha_project_ProcessInReportCmd
          CFI (cfiCond103) Conditional ??CrossCallReturnLabel_92, ??CrossCallReturnLabel_90
          CFI (cfiCond103) R6 load(1, XDATA, add(CFA_XSP16, literal(-20)))
          CFI (cfiCond103) VB load(1, XDATA, add(CFA_XSP16, literal(-19)))
          CFI (cfiCond103) V0 load(1, XDATA, add(CFA_XSP16, literal(-18)))
          CFI (cfiCond103) V1 load(1, XDATA, add(CFA_XSP16, literal(-17)))
          CFI (cfiCond103) V2 load(1, XDATA, add(CFA_XSP16, literal(-16)))
          CFI (cfiCond103) V3 load(1, XDATA, add(CFA_XSP16, literal(-15)))
          CFI (cfiCond103) V4 load(1, XDATA, add(CFA_XSP16, literal(-14)))
          CFI (cfiCond103) V5 load(1, XDATA, add(CFA_XSP16, literal(-13)))
          CFI (cfiCond103) V6 load(1, XDATA, add(CFA_XSP16, literal(-12)))
          CFI (cfiCond103) V7 load(1, XDATA, add(CFA_XSP16, literal(-11)))
          CFI (cfiCond103) V8 load(1, XDATA, add(CFA_XSP16, literal(-10)))
          CFI (cfiCond103) V9 load(1, XDATA, add(CFA_XSP16, literal(-9)))
          CFI (cfiCond103) V10 load(1, XDATA, add(CFA_XSP16, literal(-8)))
          CFI (cfiCond103) V11 load(1, XDATA, add(CFA_XSP16, literal(-7)))
          CFI (cfiCond103) R7 load(1, XDATA, add(CFA_XSP16, literal(-6)))
          CFI (cfiCond103) ?RET_LOW load(1, XDATA, add(CFA_XSP16, literal(-5)))
          CFI (cfiCond103) ?RET_HIGH load(1, XDATA, add(CFA_XSP16, literal(-4)))
          CFI (cfiCond103) ?BRET_EXT load(1, XDATA, add(CFA_XSP16, literal(-3)))
          CFI (cfiCond103) DPL0 load(1, XDATA, add(CFA_XSP16, literal(-2)))
          CFI (cfiCond103) DPH0 load(1, XDATA, add(CFA_XSP16, literal(-1)))
          CFI (cfiCond103) CFA_SP SP+-4
          CFI (cfiCond103) CFA_XSP16 add(XSP16, 63)
          CFI Block cfiCond104 Using cfiCommon0
          CFI (cfiCond104) Function zha_project_ProcessInReadRspCmd
          CFI (cfiCond104) Conditional ??CrossCallReturnLabel_93, ??CrossCallReturnLabel_37
          CFI (cfiCond104) R6 load(1, XDATA, add(CFA_XSP16, literal(-20)))
          CFI (cfiCond104) VB load(1, XDATA, add(CFA_XSP16, literal(-19)))
          CFI (cfiCond104) V0 load(1, XDATA, add(CFA_XSP16, literal(-18)))
          CFI (cfiCond104) V1 load(1, XDATA, add(CFA_XSP16, literal(-17)))
          CFI (cfiCond104) V2 load(1, XDATA, add(CFA_XSP16, literal(-16)))
          CFI (cfiCond104) V3 load(1, XDATA, add(CFA_XSP16, literal(-15)))
          CFI (cfiCond104) V4 load(1, XDATA, add(CFA_XSP16, literal(-14)))
          CFI (cfiCond104) V5 load(1, XDATA, add(CFA_XSP16, literal(-13)))
          CFI (cfiCond104) V6 load(1, XDATA, add(CFA_XSP16, literal(-12)))
          CFI (cfiCond104) V7 load(1, XDATA, add(CFA_XSP16, literal(-11)))
          CFI (cfiCond104) V8 load(1, XDATA, add(CFA_XSP16, literal(-10)))
          CFI (cfiCond104) V9 load(1, XDATA, add(CFA_XSP16, literal(-9)))
          CFI (cfiCond104) V10 load(1, XDATA, add(CFA_XSP16, literal(-8)))
          CFI (cfiCond104) V11 load(1, XDATA, add(CFA_XSP16, literal(-7)))
          CFI (cfiCond104) R7 load(1, XDATA, add(CFA_XSP16, literal(-6)))
          CFI (cfiCond104) ?RET_LOW load(1, XDATA, add(CFA_XSP16, literal(-5)))
          CFI (cfiCond104) ?RET_HIGH load(1, XDATA, add(CFA_XSP16, literal(-4)))
          CFI (cfiCond104) ?BRET_EXT load(1, XDATA, add(CFA_XSP16, literal(-3)))
          CFI (cfiCond104) DPL0 load(1, XDATA, add(CFA_XSP16, literal(-2)))
          CFI (cfiCond104) DPH0 load(1, XDATA, add(CFA_XSP16, literal(-1)))
          CFI (cfiCond104) CFA_SP SP+-4
          CFI (cfiCond104) CFA_XSP16 add(XSP16, 63)
          CFI Block cfiCond105 Using cfiCommon0
          CFI (cfiCond105) Function zha_project_ProcessInReportCmd
          CFI (cfiCond105) Conditional ??CrossCallReturnLabel_93, ??CrossCallReturnLabel_38
          CFI (cfiCond105) R6 load(1, XDATA, add(CFA_XSP16, literal(-20)))
          CFI (cfiCond105) VB load(1, XDATA, add(CFA_XSP16, literal(-19)))
          CFI (cfiCond105) V0 load(1, XDATA, add(CFA_XSP16, literal(-18)))
          CFI (cfiCond105) V1 load(1, XDATA, add(CFA_XSP16, literal(-17)))
          CFI (cfiCond105) V2 load(1, XDATA, add(CFA_XSP16, literal(-16)))
          CFI (cfiCond105) V3 load(1, XDATA, add(CFA_XSP16, literal(-15)))
          CFI (cfiCond105) V4 load(1, XDATA, add(CFA_XSP16, literal(-14)))
          CFI (cfiCond105) V5 load(1, XDATA, add(CFA_XSP16, literal(-13)))
          CFI (cfiCond105) V6 load(1, XDATA, add(CFA_XSP16, literal(-12)))
          CFI (cfiCond105) V7 load(1, XDATA, add(CFA_XSP16, literal(-11)))
          CFI (cfiCond105) V8 load(1, XDATA, add(CFA_XSP16, literal(-10)))
          CFI (cfiCond105) V9 load(1, XDATA, add(CFA_XSP16, literal(-9)))
          CFI (cfiCond105) V10 load(1, XDATA, add(CFA_XSP16, literal(-8)))
          CFI (cfiCond105) V11 load(1, XDATA, add(CFA_XSP16, literal(-7)))
          CFI (cfiCond105) R7 load(1, XDATA, add(CFA_XSP16, literal(-6)))
          CFI (cfiCond105) ?RET_LOW load(1, XDATA, add(CFA_XSP16, literal(-5)))
          CFI (cfiCond105) ?RET_HIGH load(1, XDATA, add(CFA_XSP16, literal(-4)))
          CFI (cfiCond105) ?BRET_EXT load(1, XDATA, add(CFA_XSP16, literal(-3)))
          CFI (cfiCond105) DPL0 load(1, XDATA, add(CFA_XSP16, literal(-2)))
          CFI (cfiCond105) DPH0 load(1, XDATA, add(CFA_XSP16, literal(-1)))
          CFI (cfiCond105) CFA_SP SP+-4
          CFI (cfiCond105) CFA_XSP16 add(XSP16, 63)
          CFI Block cfiPicker106 Using cfiCommon1
          CFI (cfiPicker106) NoFunction
          CFI (cfiPicker106) Picker
        INC     DPTR
        INC     DPTR
        INC     DPTR
        MOVX    A,@DPTR
        MOV     ?V2,A
        INC     DPTR
        MOVX    A,@DPTR
        MOV     ?V3,A
        MOV     DPL,R0
        MOV     DPH,R1
        MOVX    A,@DPTR
        RET
          CFI EndBlock cfiCond90
          CFI EndBlock cfiCond91
          CFI EndBlock cfiCond92
          CFI EndBlock cfiCond93
          CFI EndBlock cfiCond94
          CFI EndBlock cfiCond95
          CFI EndBlock cfiCond96
          CFI EndBlock cfiCond97
          CFI EndBlock cfiCond98
          CFI EndBlock cfiCond99
          CFI EndBlock cfiCond100
          CFI EndBlock cfiCond101
          CFI EndBlock cfiCond102
          CFI EndBlock cfiCond103
          CFI EndBlock cfiCond104
          CFI EndBlock cfiCond105
          CFI EndBlock cfiPicker106
// 1510 #endif // ZCL_READ
// 1511 
// 1512 #ifdef ZCL_WRITE
// 1513 /*********************************************************************
// 1514  * @fn      zha_project_ProcessInWriteRspCmd
// 1515  *
// 1516  * @brief   Process the "Profile" Write Response Command
// 1517  *
// 1518  * @param   pInMsg - incoming message to process
// 1519  *
// 1520  * @return  none
// 1521  */
// 1522 static uint8 zha_project_ProcessInWriteRspCmd( zclIncomingMsg_t *pInMsg )
// 1523 {
// 1524   zclWriteRspCmd_t *writeRspCmd;
// 1525   uint8 i;
// 1526 
// 1527   writeRspCmd = (zclWriteRspCmd_t *)pInMsg->attrCmd;
// 1528   for ( i = 0; i < writeRspCmd->numAttr; i++ )
// 1529   {
// 1530     // Notify the device of the results of the its original write attributes
// 1531     // command.
// 1532   }
// 1533 
// 1534   return ( TRUE );
// 1535 }
// 1536 #endif // ZCL_WRITE
// 1537 
// 1538 
// 1539 #ifdef ZCL_REPORT
// 1540 /*********************************************************************
// 1541  * @fn      zha_project_ProcessInReportCmd
// 1542  *
// 1543  * @brief   Process the "Profile" Read Response Command
// 1544  *
// 1545  * @param   pInMsg - incoming message to process
// 1546  *
// 1547  * @return  none
// 1548  */

        RSEG BANKED_CODE:CODE:NOROOT(0)
// 1549 static uint8 zha_project_ProcessInReportCmd( zclIncomingMsg_t *pInMsg )
zha_project_ProcessInReportCmd:
          CFI Block cfiBlock107 Using cfiCommon0
          CFI Function zha_project_ProcessInReportCmd
        CODE
// 1550 {
        FUNCALL zha_project_ProcessInReportCmd, SetTempDeviceHW
        LOCFRAME ISTACK, 0, STACK
        LOCFRAME PSTACK, 0, STACK
        LOCFRAME XSTACK, 63, STACK
        LOCFRAME IOVERLAY, 0, STATIC
        LOCFRAME DOVERLAY, 0, STATIC
        ARGFRAME ISTACK, 0, STACK
        ARGFRAME PSTACK, 0, STACK
        ARGFRAME XSTACK, 63, STACK
        ARGFRAME IOVERLAY, 0, STATIC
        ARGFRAME DOVERLAY, 0, STATIC
        FUNCALL zha_project_ProcessInReportCmd, SetTempDeviceManuName
        LOCFRAME ISTACK, 0, STACK
        LOCFRAME PSTACK, 0, STACK
        LOCFRAME XSTACK, 63, STACK
        LOCFRAME IOVERLAY, 0, STATIC
        LOCFRAME DOVERLAY, 0, STATIC
        ARGFRAME ISTACK, 0, STACK
        ARGFRAME PSTACK, 0, STACK
        ARGFRAME XSTACK, 63, STACK
        ARGFRAME IOVERLAY, 0, STATIC
        ARGFRAME DOVERLAY, 0, STATIC
        FUNCALL zha_project_ProcessInReportCmd, SetTempDeviceBAT
        LOCFRAME ISTACK, 0, STACK
        LOCFRAME PSTACK, 0, STACK
        LOCFRAME XSTACK, 63, STACK
        LOCFRAME IOVERLAY, 0, STATIC
        LOCFRAME DOVERLAY, 0, STATIC
        ARGFRAME ISTACK, 0, STACK
        ARGFRAME PSTACK, 0, STACK
        ARGFRAME XSTACK, 63, STACK
        ARGFRAME IOVERLAY, 0, STATIC
        ARGFRAME DOVERLAY, 0, STATIC
        FUNCALL zha_project_ProcessInReportCmd, osal_set_event
        LOCFRAME ISTACK, 0, STACK
        LOCFRAME PSTACK, 0, STACK
        LOCFRAME XSTACK, 63, STACK
        LOCFRAME IOVERLAY, 0, STATIC
        LOCFRAME DOVERLAY, 0, STATIC
        ARGFRAME ISTACK, 0, STACK
        ARGFRAME PSTACK, 0, STACK
        ARGFRAME XSTACK, 63, STACK
        ARGFRAME IOVERLAY, 0, STATIC
        ARGFRAME DOVERLAY, 0, STATIC
        FUNCALL zha_project_ProcessInReportCmd, osal_memset
        LOCFRAME ISTACK, 0, STACK
        LOCFRAME PSTACK, 0, STACK
        LOCFRAME XSTACK, 63, STACK
        LOCFRAME IOVERLAY, 0, STATIC
        LOCFRAME DOVERLAY, 0, STATIC
        ARGFRAME ISTACK, 0, STACK
        ARGFRAME PSTACK, 0, STACK
        ARGFRAME XSTACK, 63, STACK
        ARGFRAME IOVERLAY, 0, STATIC
        ARGFRAME DOVERLAY, 0, STATIC
        FUNCALL zha_project_ProcessInReportCmd, UpdateDeviceStatus1
        LOCFRAME ISTACK, 0, STACK
        LOCFRAME PSTACK, 0, STACK
        LOCFRAME XSTACK, 63, STACK
        LOCFRAME IOVERLAY, 0, STATIC
        LOCFRAME DOVERLAY, 0, STATIC
        ARGFRAME ISTACK, 0, STACK
        ARGFRAME PSTACK, 0, STACK
        ARGFRAME XSTACK, 63, STACK
        ARGFRAME IOVERLAY, 0, STATIC
        ARGFRAME DOVERLAY, 0, STATIC
        FUNCALL zha_project_ProcessInReportCmd, osal_memset
        LOCFRAME ISTACK, 0, STACK
        LOCFRAME PSTACK, 0, STACK
        LOCFRAME XSTACK, 63, STACK
        LOCFRAME IOVERLAY, 0, STATIC
        LOCFRAME DOVERLAY, 0, STATIC
        ARGFRAME ISTACK, 0, STACK
        ARGFRAME PSTACK, 0, STACK
        ARGFRAME XSTACK, 63, STACK
        ARGFRAME IOVERLAY, 0, STATIC
        ARGFRAME DOVERLAY, 0, STATIC
        FUNCALL zha_project_ProcessInReportCmd, UpdateDeviceStatus3
        LOCFRAME ISTACK, 0, STACK
        LOCFRAME PSTACK, 0, STACK
        LOCFRAME XSTACK, 63, STACK
        LOCFRAME IOVERLAY, 0, STATIC
        LOCFRAME DOVERLAY, 0, STATIC
        ARGFRAME ISTACK, 0, STACK
        ARGFRAME PSTACK, 0, STACK
        ARGFRAME XSTACK, 63, STACK
        ARGFRAME IOVERLAY, 0, STATIC
        ARGFRAME DOVERLAY, 0, STATIC
        FUNCALL zha_project_ProcessInReportCmd, osal_nv_read
        LOCFRAME ISTACK, 0, STACK
        LOCFRAME PSTACK, 0, STACK
        LOCFRAME XSTACK, 67, STACK
        LOCFRAME IOVERLAY, 0, STATIC
        LOCFRAME DOVERLAY, 0, STATIC
        ARGFRAME ISTACK, 0, STACK
        ARGFRAME PSTACK, 0, STACK
        ARGFRAME XSTACK, 67, STACK
        ARGFRAME IOVERLAY, 0, STATIC
        ARGFRAME DOVERLAY, 0, STATIC
        FUNCALL zha_project_ProcessInReportCmd, osal_memcpy
        LOCFRAME ISTACK, 0, STACK
        LOCFRAME PSTACK, 0, STACK
        LOCFRAME XSTACK, 66, STACK
        LOCFRAME IOVERLAY, 0, STATIC
        LOCFRAME DOVERLAY, 0, STATIC
        ARGFRAME ISTACK, 0, STACK
        ARGFRAME PSTACK, 0, STACK
        ARGFRAME XSTACK, 66, STACK
        ARGFRAME IOVERLAY, 0, STATIC
        ARGFRAME DOVERLAY, 0, STATIC
        FUNCALL zha_project_ProcessInReportCmd, APSME_LookupExtAddr
        LOCFRAME ISTACK, 0, STACK
        LOCFRAME PSTACK, 0, STACK
        LOCFRAME XSTACK, 63, STACK
        LOCFRAME IOVERLAY, 0, STATIC
        LOCFRAME DOVERLAY, 0, STATIC
        ARGFRAME ISTACK, 0, STACK
        ARGFRAME PSTACK, 0, STACK
        ARGFRAME XSTACK, 63, STACK
        ARGFRAME IOVERLAY, 0, STATIC
        ARGFRAME DOVERLAY, 0, STATIC
        FUNCALL zha_project_ProcessInReportCmd, ZDP_BindUnbindReq
        LOCFRAME ISTACK, 0, STACK
        LOCFRAME PSTACK, 0, STACK
        LOCFRAME XSTACK, 71, STACK
        LOCFRAME IOVERLAY, 0, STATIC
        LOCFRAME DOVERLAY, 0, STATIC
        ARGFRAME ISTACK, 0, STACK
        ARGFRAME PSTACK, 0, STACK
        ARGFRAME XSTACK, 71, STACK
        ARGFRAME IOVERLAY, 0, STATIC
        ARGFRAME DOVERLAY, 0, STATIC
        FUNCALL zha_project_ProcessInReportCmd, osal_memset
        LOCFRAME ISTACK, 0, STACK
        LOCFRAME PSTACK, 0, STACK
        LOCFRAME XSTACK, 63, STACK
        LOCFRAME IOVERLAY, 0, STATIC
        LOCFRAME DOVERLAY, 0, STATIC
        ARGFRAME ISTACK, 0, STACK
        ARGFRAME PSTACK, 0, STACK
        ARGFRAME XSTACK, 63, STACK
        ARGFRAME IOVERLAY, 0, STATIC
        ARGFRAME DOVERLAY, 0, STATIC
        FUNCALL zha_project_ProcessInReportCmd, UpdateDeviceStatus2
        LOCFRAME ISTACK, 0, STACK
        LOCFRAME PSTACK, 0, STACK
        LOCFRAME XSTACK, 63, STACK
        LOCFRAME IOVERLAY, 0, STATIC
        LOCFRAME DOVERLAY, 0, STATIC
        ARGFRAME ISTACK, 0, STACK
        ARGFRAME PSTACK, 0, STACK
        ARGFRAME XSTACK, 63, STACK
        ARGFRAME IOVERLAY, 0, STATIC
        ARGFRAME DOVERLAY, 0, STATIC
        FUNCALL zha_project_ProcessInReportCmd, SetTempDeviceType
        LOCFRAME ISTACK, 0, STACK
        LOCFRAME PSTACK, 0, STACK
        LOCFRAME XSTACK, 63, STACK
        LOCFRAME IOVERLAY, 0, STATIC
        LOCFRAME DOVERLAY, 0, STATIC
        ARGFRAME ISTACK, 0, STACK
        ARGFRAME PSTACK, 0, STACK
        ARGFRAME XSTACK, 63, STACK
        ARGFRAME IOVERLAY, 0, STATIC
        ARGFRAME DOVERLAY, 0, STATIC
        FUNCALL zha_project_ProcessInReportCmd, osal_memset
        LOCFRAME ISTACK, 0, STACK
        LOCFRAME PSTACK, 0, STACK
        LOCFRAME XSTACK, 63, STACK
        LOCFRAME IOVERLAY, 0, STATIC
        LOCFRAME DOVERLAY, 0, STATIC
        ARGFRAME ISTACK, 0, STACK
        ARGFRAME PSTACK, 0, STACK
        ARGFRAME XSTACK, 63, STACK
        ARGFRAME IOVERLAY, 0, STATIC
        ARGFRAME DOVERLAY, 0, STATIC
        FUNCALL zha_project_ProcessInReportCmd, UpdateDeviceStatus1
        LOCFRAME ISTACK, 0, STACK
        LOCFRAME PSTACK, 0, STACK
        LOCFRAME XSTACK, 63, STACK
        LOCFRAME IOVERLAY, 0, STATIC
        LOCFRAME DOVERLAY, 0, STATIC
        ARGFRAME ISTACK, 0, STACK
        ARGFRAME PSTACK, 0, STACK
        ARGFRAME XSTACK, 63, STACK
        ARGFRAME IOVERLAY, 0, STATIC
        ARGFRAME DOVERLAY, 0, STATIC
        FUNCALL zha_project_ProcessInReportCmd, osal_memset
        LOCFRAME ISTACK, 0, STACK
        LOCFRAME PSTACK, 0, STACK
        LOCFRAME XSTACK, 63, STACK
        LOCFRAME IOVERLAY, 0, STATIC
        LOCFRAME DOVERLAY, 0, STATIC
        ARGFRAME ISTACK, 0, STACK
        ARGFRAME PSTACK, 0, STACK
        ARGFRAME XSTACK, 63, STACK
        ARGFRAME IOVERLAY, 0, STATIC
        ARGFRAME DOVERLAY, 0, STATIC
        FUNCALL zha_project_ProcessInReportCmd, osal_memset
        LOCFRAME ISTACK, 0, STACK
        LOCFRAME PSTACK, 0, STACK
        LOCFRAME XSTACK, 63, STACK
        LOCFRAME IOVERLAY, 0, STATIC
        LOCFRAME DOVERLAY, 0, STATIC
        ARGFRAME ISTACK, 0, STACK
        ARGFRAME PSTACK, 0, STACK
        ARGFRAME XSTACK, 63, STACK
        ARGFRAME IOVERLAY, 0, STATIC
        ARGFRAME DOVERLAY, 0, STATIC
        FUNCALL zha_project_ProcessInReportCmd, osal_memset
        LOCFRAME ISTACK, 0, STACK
        LOCFRAME PSTACK, 0, STACK
        LOCFRAME XSTACK, 63, STACK
        LOCFRAME IOVERLAY, 0, STATIC
        LOCFRAME DOVERLAY, 0, STATIC
        ARGFRAME ISTACK, 0, STACK
        ARGFRAME PSTACK, 0, STACK
        ARGFRAME XSTACK, 63, STACK
        ARGFRAME IOVERLAY, 0, STATIC
        ARGFRAME DOVERLAY, 0, STATIC
        FUNCALL zha_project_ProcessInReportCmd, UpdateDeviceStatus1
        LOCFRAME ISTACK, 0, STACK
        LOCFRAME PSTACK, 0, STACK
        LOCFRAME XSTACK, 63, STACK
        LOCFRAME IOVERLAY, 0, STATIC
        LOCFRAME DOVERLAY, 0, STATIC
        ARGFRAME ISTACK, 0, STACK
        ARGFRAME PSTACK, 0, STACK
        ARGFRAME XSTACK, 63, STACK
        ARGFRAME IOVERLAY, 0, STATIC
        ARGFRAME DOVERLAY, 0, STATIC
        FUNCALL zha_project_ProcessInReportCmd, osal_memset
        LOCFRAME ISTACK, 0, STACK
        LOCFRAME PSTACK, 0, STACK
        LOCFRAME XSTACK, 63, STACK
        LOCFRAME IOVERLAY, 0, STATIC
        LOCFRAME DOVERLAY, 0, STATIC
        ARGFRAME ISTACK, 0, STACK
        ARGFRAME PSTACK, 0, STACK
        ARGFRAME XSTACK, 63, STACK
        ARGFRAME IOVERLAY, 0, STATIC
        ARGFRAME DOVERLAY, 0, STATIC
        FUNCALL zha_project_ProcessInReportCmd, UpdateDeviceStatus2
        LOCFRAME ISTACK, 0, STACK
        LOCFRAME PSTACK, 0, STACK
        LOCFRAME XSTACK, 63, STACK
        LOCFRAME IOVERLAY, 0, STATIC
        LOCFRAME DOVERLAY, 0, STATIC
        ARGFRAME ISTACK, 0, STACK
        ARGFRAME PSTACK, 0, STACK
        ARGFRAME XSTACK, 63, STACK
        ARGFRAME IOVERLAY, 0, STATIC
        ARGFRAME DOVERLAY, 0, STATIC
        FUNCALL zha_project_ProcessInReportCmd, osal_memset
        LOCFRAME ISTACK, 0, STACK
        LOCFRAME PSTACK, 0, STACK
        LOCFRAME XSTACK, 63, STACK
        LOCFRAME IOVERLAY, 0, STATIC
        LOCFRAME DOVERLAY, 0, STATIC
        ARGFRAME ISTACK, 0, STACK
        ARGFRAME PSTACK, 0, STACK
        ARGFRAME XSTACK, 63, STACK
        ARGFRAME IOVERLAY, 0, STATIC
        ARGFRAME DOVERLAY, 0, STATIC
        FUNCALL zha_project_ProcessInReportCmd, UpdateDeviceStatus1
        LOCFRAME ISTACK, 0, STACK
        LOCFRAME PSTACK, 0, STACK
        LOCFRAME XSTACK, 63, STACK
        LOCFRAME IOVERLAY, 0, STATIC
        LOCFRAME DOVERLAY, 0, STATIC
        ARGFRAME ISTACK, 0, STACK
        ARGFRAME PSTACK, 0, STACK
        ARGFRAME XSTACK, 63, STACK
        ARGFRAME IOVERLAY, 0, STATIC
        ARGFRAME DOVERLAY, 0, STATIC
        FUNCALL zha_project_ProcessInReportCmd, osal_memset
        LOCFRAME ISTACK, 0, STACK
        LOCFRAME PSTACK, 0, STACK
        LOCFRAME XSTACK, 63, STACK
        LOCFRAME IOVERLAY, 0, STATIC
        LOCFRAME DOVERLAY, 0, STATIC
        ARGFRAME ISTACK, 0, STACK
        ARGFRAME PSTACK, 0, STACK
        ARGFRAME XSTACK, 63, STACK
        ARGFRAME IOVERLAY, 0, STATIC
        ARGFRAME DOVERLAY, 0, STATIC
        FUNCALL zha_project_ProcessInReportCmd, UpdateDeviceStatus1
        LOCFRAME ISTACK, 0, STACK
        LOCFRAME PSTACK, 0, STACK
        LOCFRAME XSTACK, 63, STACK
        LOCFRAME IOVERLAY, 0, STATIC
        LOCFRAME DOVERLAY, 0, STATIC
        ARGFRAME ISTACK, 0, STACK
        ARGFRAME PSTACK, 0, STACK
        ARGFRAME XSTACK, 63, STACK
        ARGFRAME IOVERLAY, 0, STATIC
        ARGFRAME DOVERLAY, 0, STATIC
        REQUIRE ?V0
        REQUIRE ?V1
        REQUIRE ?V2
        REQUIRE ?V3
        REQUIRE ?V4
        REQUIRE ?V5
        REQUIRE ?V6
        REQUIRE ?V8
        REQUIRE ?V9
        REQUIRE ?V10
        REQUIRE ?V11
        MOV     A,#-0x14
        LCALL   ?BANKED_ENTER_XDATA
          CFI DPH0 load(1, XDATA, add(CFA_XSP16, literal(-1)))
          CFI DPL0 load(1, XDATA, add(CFA_XSP16, literal(-2)))
          CFI ?BRET_EXT load(1, XDATA, add(CFA_XSP16, literal(-3)))
          CFI ?RET_HIGH load(1, XDATA, add(CFA_XSP16, literal(-4)))
          CFI ?RET_LOW load(1, XDATA, add(CFA_XSP16, literal(-5)))
          CFI R7 load(1, XDATA, add(CFA_XSP16, literal(-6)))
          CFI V11 load(1, XDATA, add(CFA_XSP16, literal(-7)))
          CFI V10 load(1, XDATA, add(CFA_XSP16, literal(-8)))
          CFI V9 load(1, XDATA, add(CFA_XSP16, literal(-9)))
          CFI V8 load(1, XDATA, add(CFA_XSP16, literal(-10)))
          CFI V7 load(1, XDATA, add(CFA_XSP16, literal(-11)))
          CFI V6 load(1, XDATA, add(CFA_XSP16, literal(-12)))
          CFI V5 load(1, XDATA, add(CFA_XSP16, literal(-13)))
          CFI V4 load(1, XDATA, add(CFA_XSP16, literal(-14)))
          CFI V3 load(1, XDATA, add(CFA_XSP16, literal(-15)))
          CFI V2 load(1, XDATA, add(CFA_XSP16, literal(-16)))
          CFI V1 load(1, XDATA, add(CFA_XSP16, literal(-17)))
          CFI V0 load(1, XDATA, add(CFA_XSP16, literal(-18)))
          CFI VB load(1, XDATA, add(CFA_XSP16, literal(-19)))
          CFI R6 load(1, XDATA, add(CFA_XSP16, literal(-20)))
          CFI CFA_SP SP+0
          CFI CFA_XSP16 add(XSP16, 20)
        ; Saved register size: 20
        ; Auto size: 43
        MOV     A,#-0x2b
        LCALL   ?ALLOC_XSTACK8
          CFI CFA_XSP16 add(XSP16, 63)
        LCALL   ?Subroutine12 & 0xFFFF
// 1551     zclReportCmd_t *reportRspCmd;
// 1552     uint8 i,k;
// 1553     uint8 *j;
// 1554     uint16 *p;
// 1555     reportRspCmd = (zclReportCmd_t *)pInMsg->attrCmd; 
// 1556     switch(pInMsg->clusterId)
??CrossCallReturnLabel_31:
        LCALL   ?US_SWITCH_SPARSE
`?<Jumptable for zha_project_ProcessInReportCmd_0`:
        DATA
        DATA16
        DATA
        DATA16
        DATA
        DATA16
        DW        0
        DATA
        DATA16
        DATA
        DATA16
        DATA
        DATA16
        DW        10
        DATA
        DATA16
        DATA
        DATA16
        DATA
        DATA16
        DW        0
        DATA
        DATA16
        DATA
        DATA16
        DATA
        DATA16
        DW        ??zha_project_ProcessInReportCmd_0
        DATA
        DATA16
        DATA
        DATA16
        DATA
        DATA16
        DW        1
        DATA
        DATA16
        DATA
        DATA16
        DATA
        DATA16
        DW        ??zha_project_ProcessInReportCmd_1
        DATA
        DATA16
        DATA
        DATA16
        DATA
        DATA16
        DW        6
        DATA
        DATA16
        DATA
        DATA16
        DATA
        DATA16
        DW        ??zha_project_ProcessInReportCmd_2
        DATA
        DATA16
        DATA
        DATA16
        DATA
        DATA16
        DW        8
        DATA
        DATA16
        DATA
        DATA16
        DATA
        DATA16
        DW        ??zha_project_ProcessInReportCmd_3
        DATA
        DATA16
        DATA
        DATA16
        DATA
        DATA16
        DW        768
        DATA
        DATA16
        DATA
        DATA16
        DATA
        DATA16
        DW        ??zha_project_ProcessInReportCmd_4
        DATA
        DATA16
        DATA
        DATA16
        DATA
        DATA16
        DW        1024
        DATA
        DATA16
        DATA
        DATA16
        DATA
        DATA16
        DW        ??zha_project_ProcessInReportCmd_5
        DATA
        DATA16
        DATA
        DATA16
        DATA
        DATA16
        DW        1026
        DATA
        DATA16
        DATA
        DATA16
        DATA
        DATA16
        DW        ??zha_project_ProcessInReportCmd_6
        DATA
        DATA16
        DATA
        DATA16
        DATA
        DATA16
        DW        1029
        DATA
        DATA16
        DATA
        DATA16
        DATA
        DATA16
        DW        ??zha_project_ProcessInReportCmd_7
        DATA
        DATA16
        DATA
        DATA16
        DATA
        DATA16
        DW        1280
        DATA
        DATA16
        DATA
        DATA16
        DATA
        DATA16
        DW        ??zha_project_ProcessInReportCmd_8
        DATA
        DATA16
        DATA
        DATA16
        DATA
        DATA16
        DW        1282
        DATA
        DATA16
        DATA
        DATA16
        DATA
        DATA16
        DW        ??zha_project_ProcessInReportCmd_9
        DATA
        DATA16
        DATA
        DATA16
        DW        ??zha_project_ProcessInReportCmd_10
        CODE
// 1557     {
// 1558 #if ZG_BUILD_COORDINATOR_TYPE      
// 1559       case ZCL_CLUSTER_ID_GEN_BASIC:
// 1560         {
// 1561           for (i = 0; i < reportRspCmd->numAttr; i++)
??zha_project_ProcessInReportCmd_0:
        MOV     R6,#0x0
        SJMP    ??zha_project_ProcessInReportCmd_11
// 1562           {
// 1563                 zclReport_t *statusRec = &(reportRspCmd->attrList[i]);
// 1564                 j=statusRec->attrData;
// 1565                 switch(statusRec->attrID)
// 1566                 {
// 1567                     case ATTRID_BASIC_POWER_SOURCE:
// 1568                         uint8 zha_project_PowerSource=*j;
// 1569                         break;
// 1570 //                    case ATTRID_POWER_CFG_BATTERY_VOLTAGE:
// 1571 //                        zha_project_BatteryVoltage=*j;
// 1572 //                        SetTempDeviceBAT(pInMsg->srcAddr.addr.shortAddr,zha_project_BatteryVoltage);
// 1573 //                        break;
// 1574                     case ATTRID_BASIC_ZCL_VERSION:
// 1575                         break;
// 1576                     case ATTRID_BASIC_MODEL_ID:
// 1577                         break;
// 1578                     case ATTRID_BASIC_MANUFACTURER_NAME:
// 1579                         SetTempDeviceManuName(pInMsg->srcAddr.addr.shortAddr,j);
// 1580                         break;
// 1581                     case ATTRID_BASIC_HW_VERSION:
// 1582                         uint8 zha_project_HWRevision = *j;
// 1583                         SetTempDeviceHW(pInMsg->srcAddr.addr.shortAddr,zha_project_HWRevision);
??zha_project_ProcessInReportCmd_12:
        ; Setup parameters for call to function SetTempDeviceHW
        MOV     DPL,?V2
        MOV     DPH,?V3
        LCALL   ??Subroutine42_0 & 0xFFFF
??CrossCallReturnLabel_110:
        LCALL   `??SetTempDeviceHW::?relay`; Banked call to: SetTempDeviceHW
// 1584                         break;                        
??zha_project_ProcessInReportCmd_13:
        INC     R6
??zha_project_ProcessInReportCmd_11:
        LCALL   ?Subroutine10 & 0xFFFF
??CrossCallReturnLabel_20:
        JC      $+5
        LJMP    ??zha_project_ProcessInReportCmd_10 & 0xFFFF
        LCALL   ?Subroutine24 & 0xFFFF
??CrossCallReturnLabel_95:
        LCALL   ??Subroutine39_0 & 0xFFFF
??CrossCallReturnLabel_79:
        LCALL   ?US_SWITCH_DENSE
`?<Jumptable for zha_project_ProcessInReportCmd_1`:
        DATA
        DATA16
        DATA
        DATA16
        DW        3
        DATA
        DATA8
        DATA
        DATA8
        DB        1
        DATA
        DATA16
        DATA
        DATA16
        DW        ??zha_project_ProcessInReportCmd_13
        DATA
        DATA16
        DATA
        DATA16
        DW        ??zha_project_ProcessInReportCmd_12
        DATA
        DATA16
        DATA
        DATA16
        DW        ??zha_project_ProcessInReportCmd_14
        CODE
??zha_project_ProcessInReportCmd_14:
        ; Setup parameters for call to function SetTempDeviceManuName
        LCALL   ?Subroutine19 & 0xFFFF
??CrossCallReturnLabel_76:
        LCALL   `??SetTempDeviceManuName::?relay`; Banked call to: SetTempDeviceManuName
        SJMP    ??zha_project_ProcessInReportCmd_13
// 1585                     default:
// 1586                       break;
// 1587                 
// 1588                 }
// 1589 
// 1590           }
// 1591         }
// 1592         //osal_set_event( zha_project_TaskID,ZHA_ATTRIBUTE_POWER_EVT);
// 1593         
// 1594         break;
// 1595         
// 1596       case ZCL_CLUSTER_ID_GEN_POWER_CFG:
// 1597         {
// 1598           for (i = 0; i < reportRspCmd->numAttr; i++)
??zha_project_ProcessInReportCmd_1:
        MOV     R6,#0x0
        SJMP    ??zha_project_ProcessInReportCmd_15
// 1599           {
// 1600                 zclReport_t *statusRec = &(reportRspCmd->attrList[i]);
??zha_project_ProcessInReportCmd_16:
        MOV     A,R6
        MOV     B,#0x5
        LCALL   ?Subroutine23 & 0xFFFF
// 1601                 j=statusRec->attrData;
// 1602                 switch(statusRec->attrID)
??CrossCallReturnLabel_48:
        JNZ     ??zha_project_ProcessInReportCmd_17
        INC     DPTR
        MOVX    A,@DPTR
??zha_project_ProcessInReportCmd_17:
        JNZ     ??zha_project_ProcessInReportCmd_18
// 1603                 {
// 1604                     case ATTRID_POWER_CFG_BATTERY_VOLTAGE:
// 1605                         uint8 zha_project_BatteryVoltage=*j;
// 1606                         SetTempDeviceBAT(pInMsg->srcAddr.addr.shortAddr,zha_project_BatteryVoltage);
        ; Setup parameters for call to function SetTempDeviceBAT
        MOV     DPL,R0
        MOV     DPH,R1
        LCALL   ?Subroutine11 & 0xFFFF
??CrossCallReturnLabel_112:
        LCALL   `??SetTempDeviceBAT::?relay`; Banked call to: SetTempDeviceBAT
// 1607                         break;
// 1608                     default:
// 1609                       break;
// 1610                 
// 1611                 }
// 1612 
// 1613           }
??zha_project_ProcessInReportCmd_18:
        INC     R6
??zha_project_ProcessInReportCmd_15:
        LCALL   ?Subroutine10 & 0xFFFF
// 1614       
// 1615         }        
??CrossCallReturnLabel_21:
        JC      ??zha_project_ProcessInReportCmd_16
// 1616         
// 1617         
// 1618         osal_set_event( zha_project_TaskID, ZHA_ACTIVE_EP_EVT );
        ; Setup parameters for call to function osal_set_event
        MOV     R2,#0x8
        MOV     R3,#0x0
        MOV     DPTR,#zha_project_TaskID
        MOVX    A,@DPTR
        MOV     R1,A
        LCALL   `??osal_set_event::?relay`; Banked call to: osal_set_event
// 1619         break;
        LJMP    ??zha_project_ProcessInReportCmd_10 & 0xFFFF
// 1620       case ZCL_CLUSTER_ID_GEN_ON_OFF:
// 1621         {
// 1622           for (i = 0; i < reportRspCmd->numAttr; i++)
??zha_project_ProcessInReportCmd_2:
        MOV     R6,#0x0
??zha_project_ProcessInReportCmd_19:
        LCALL   ?Subroutine10 & 0xFFFF
??CrossCallReturnLabel_22:
        JC      $+5
        LJMP    ??zha_project_ProcessInReportCmd_10 & 0xFFFF
// 1623           {
// 1624             zclReport_t *statusRec = &(reportRspCmd->attrList[i]);
        LCALL   ?Subroutine24 & 0xFFFF
// 1625             j=statusRec->attrData;
??CrossCallReturnLabel_96:
        LCALL   ??Subroutine40_0 & 0xFFFF
// 1626             switch(statusRec->attrID)
??CrossCallReturnLabel_86:
        JNZ     ??zha_project_ProcessInReportCmd_20
// 1627             {
// 1628                 case ATTRID_ON_OFF:
// 1629                     uint16 buf[3];
// 1630                     osal_memset(buf,0,sizeof(buf));
        ; Setup parameters for call to function osal_memset
        MOV     R4,#0x6
        MOV     R5,#0x0
        MOV     R1,#0x0
        MOV     R2,?XSP + 0
        MOV     R3,?XSP + 1
        LCALL   `??osal_memset::?relay`; Banked call to: osal_memset
// 1631                     buf[0] = *j;
        LCALL   ?Subroutine20 & 0xFFFF
??CrossCallReturnLabel_42:
        LCALL   ??Subroutine45_0 & 0xFFFF
// 1632                     UpdateDeviceStatus1(pInMsg->srcAddr.addr.shortAddr,buf);
??CrossCallReturnLabel_123:
        LCALL   `??UpdateDeviceStatus1::?relay`; Banked call to: UpdateDeviceStatus1
// 1633                   break;
// 1634                 default:
// 1635                   break;
// 1636             }
// 1637 
// 1638           }
??zha_project_ProcessInReportCmd_20:
        INC     R6
        SJMP    ??zha_project_ProcessInReportCmd_19
// 1639       
// 1640         }
// 1641         break;
// 1642         case ZCL_CLUSTER_ID_LIGHTING_COLOR_CONTROL:
// 1643             {
// 1644                 for (i = 0; i < reportRspCmd->numAttr; i++)
??zha_project_ProcessInReportCmd_4:
        MOV     R6,#0x0
??zha_project_ProcessInReportCmd_21:
        LCALL   ?Subroutine10 & 0xFFFF
??CrossCallReturnLabel_23:
        JC      $+5
        LJMP    ??zha_project_ProcessInReportCmd_10 & 0xFFFF
// 1645                 {
// 1646                     zclReport_t *statusRec = &(reportRspCmd->attrList[i]);
        LCALL   ?Subroutine24 & 0xFFFF
// 1647                     p=(uint16 *)statusRec->attrData;
??CrossCallReturnLabel_97:
        LCALL   ?Subroutine15 & 0xFFFF
// 1648                     //j = zclSerializeData( statusRec->dataType, statusRec->data, j );
// 1649                     switch(statusRec->attrID)
??CrossCallReturnLabel_38:
        JNZ     ??zha_project_ProcessInReportCmd_22
        INC     DPTR
        MOVX    A,@DPTR
??zha_project_ProcessInReportCmd_22:
        JNZ     ??zha_project_ProcessInReportCmd_23
// 1650                     {
// 1651                         case ATTRID_LIGHTING_COLOR_CONTROL_COLOR_TEMPERATURE:
// 1652                             uint16 buf[3];
// 1653                             osal_memset(buf,0,sizeof(buf));
        ; Setup parameters for call to function osal_memset
        MOV     R4,#0x6
        MOV     R5,#0x0
        MOV     R1,#0x0
        MOV     R2,?XSP + 0
        MOV     R3,?XSP + 1
        LCALL   `??osal_memset::?relay`; Banked call to: osal_memset
// 1654                             buf[2] = *p;
        LCALL   ?Subroutine17 & 0xFFFF
??CrossCallReturnLabel_137:
        MOV     A,#0x4
        LCALL   ?XSTACK_DISP0_8
        LCALL   ??Subroutine44_0 & 0xFFFF
// 1655                             UpdateDeviceStatus3(pInMsg->srcAddr.addr.shortAddr,buf);
??CrossCallReturnLabel_120:
        LCALL   `??UpdateDeviceStatus3::?relay`; Banked call to: UpdateDeviceStatus3
// 1656                         break;
// 1657                         case ATTRID_LIGHTING_COLOR_CONTROL_CURRENT_HUE:
// 1658                             //zha_project_HUE_Status = *p;
// 1659                           break;
// 1660                         case ATTRID_LIGHTING_COLOR_CONTROL_CURRENT_SATURATION:
// 1661                             //zha_project_Saturation = *p;                        
// 1662                           break;
// 1663                         default:
// 1664                         break;
// 1665 
// 1666                     }
// 1667 
// 1668                 }
??zha_project_ProcessInReportCmd_23:
        INC     R6
        SJMP    ??zha_project_ProcessInReportCmd_21
// 1669 
// 1670              }
// 1671     
// 1672         break;
// 1673         case ZCL_CLUSTER_ID_SS_IAS_ZONE:
// 1674        {        uint16 supportOD = 0;
// 1675                 uint8 sensorType = 0;
// 1676                 for (i = 0; i < reportRspCmd->numAttr; i++)
??zha_project_ProcessInReportCmd_8:
        MOV     R6,#0x0
        LJMP    ??zha_project_ProcessInReportCmd_24 & 0xFFFF
// 1677                 {
// 1678                     zclReport_t *statusRec = &(reportRspCmd->attrList[i]);
// 1679                     p=(uint16 *)statusRec->attrData;
// 1680                     //j = zclSerializeData( statusRec->dataType, statusRec->data, j );
// 1681                     switch(statusRec->attrID)
// 1682                     {
// 1683                         case ATTRID_SS_IAS_ZONE_STATUS:
// 1684                             uint16 buf[3];
// 1685                             osal_memset(buf,0,sizeof(buf));
// 1686                             buf[0] = *p;
// 1687                             UpdateDeviceStatus1(pInMsg->srcAddr.addr.shortAddr,buf);
// 1688                         break;
// 1689                         case ATTRID_SS_IAS_ZONE_TYPE:
// 1690                             zAddrType_t addr;
// 1691                             uint8 address[8];
// 1692                             uint8 pValue[Z_EXTADDR_LEN];
// 1693                             addr.addrMode = Addr64Bit;
??zha_project_ProcessInReportCmd_25:
        MOV     A,#0x2a
        LCALL   ?XSTACK_DISP0_8
        MOV     A,#0x3
        MOVX    @DPTR,A
// 1694                             osal_nv_read(ZCD_NV_EXTADDR ,0, Z_EXTADDR_LEN, pValue);
        ; Setup parameters for call to function osal_nv_read
        MOV     A,#0x12
        LCALL   ?XSTACK_DISP100_8
        MOV     ?V4,R0
        MOV     ?V5,R1
        MOV     R0,#?V4
        LCALL   ?PUSH_XSTACK_I_TWO
          CFI CFA_XSP16 add(XSP16, 65)
        MOV     ?V4,#0x8
        MOV     ?V5,#0x0
        MOV     R0,#?V4
        LCALL   ?PUSH_XSTACK_I_TWO
          CFI CFA_XSP16 add(XSP16, 67)
        MOV     R4,#0x0
        MOV     R5,#0x0
        MOV     R2,#0x1
        MOV     R3,#0x0
        LCALL   `??osal_nv_read::?relay`; Banked call to: osal_nv_read
        MOV     A,#0x4
        LCALL   ?DEALLOC_XSTACK8
          CFI CFA_XSP16 add(XSP16, 63)
// 1695                             //osal_memcpy(pValue,addr.addr.extAddr,8);
// 1696                             osal_memcpy(addr.addr.extAddr,pValue,8);
        ; Setup parameters for call to function osal_memcpy
        MOV     A,#0x12
        LCALL   ?XSTACK_DISP100_8
        MOV     ?V4,R0
        MOV     ?V5,R1
        MOV     ?V6,#0x0
        MOV     R0,#?V4
        LCALL   ?PUSH_XSTACK_I_THREE
          CFI CFA_XSP16 add(XSP16, 66)
        MOV     R4,#0x8
        MOV     R5,#0x0
        MOV     A,#0x25
        LCALL   ?XSTACK_DISP101_8
        LCALL   `??osal_memcpy::?relay`; Banked call to: osal_memcpy
        MOV     A,#0x3
        LCALL   ?DEALLOC_XSTACK8
          CFI CFA_XSP16 add(XSP16, 63)
// 1697                             //addr.addr.shortAddr=pSimpleDescRsp->nwkAddr;
// 1698                             APSME_LookupExtAddr(pInMsg->srcAddr.addr.shortAddr,address);
        ; Setup parameters for call to function APSME_LookupExtAddr
        MOV     A,#0x1a
        LCALL   ?XSTACK_DISP102_8
        LCALL   ??Subroutine37_0 & 0xFFFF
??CrossCallReturnLabel_72:
        LCALL   `??APSME_LookupExtAddr::?relay`; Banked call to: APSME_LookupExtAddr
// 1699                             ZDP_BindUnbindReq(Bind_req, &dstAddr, address,
// 1700                                                    1,
// 1701                                                    0x0020,
// 1702                                                    &addr,  pInMsg->endPoint,
// 1703                                                     FALSE );
        ; Setup parameters for call to function ZDP_BindUnbindReq
        MOV     ?V4,#0x0
        MOV     R0,#?V4
        LCALL   ?PUSH_XSTACK_I_ONE
          CFI CFA_XSP16 add(XSP16, 64)
        LCALL   ?Subroutine25 & 0xFFFF
??CrossCallReturnLabel_50:
        LCALL   ?PUSH_XSTACK_I_ONE
          CFI CFA_XSP16 add(XSP16, 65)
        MOV     A,#0x24
        LCALL   ?XSTACK_DISP100_8
        MOV     ?V4,R0
        MOV     ?V5,R1
        MOV     R0,#?V4
        LCALL   ?PUSH_XSTACK_I_TWO
          CFI CFA_XSP16 add(XSP16, 67)
        MOV     ?V4,#0x20
        MOV     ?V5,#0x0
        MOV     R0,#?V4
        LCALL   ?PUSH_XSTACK_I_TWO
          CFI CFA_XSP16 add(XSP16, 69)
        MOV     A,#0x20
        LCALL   ?XSTACK_DISP100_8
        MOV     ?V4,R0
        MOV     ?V5,R1
        MOV     R0,#?V4
        LCALL   ?PUSH_XSTACK_I_TWO
          CFI CFA_XSP16 add(XSP16, 71)
        MOV     R1,#0x1
        MOV     R4,#dstAddr & 0xff
        MOV     R5,#(dstAddr >> 8) & 0xff
        MOV     R2,#0x21
        MOV     R3,#0x0
        LCALL   `??ZDP_BindUnbindReq::?relay`; Banked call to: ZDP_BindUnbindReq
        MOV     A,#0x8
        LCALL   ?DEALLOC_XSTACK8
          CFI CFA_XSP16 add(XSP16, 63)
// 1704                             //zha_project_Smoke_Type = *p;
// 1705                             //uint16 buf[3];
// 1706                             osal_memset(buf,0,sizeof(buf));
        ; Setup parameters for call to function osal_memset
        MOV     R4,#0x6
        MOV     R5,#0x0
        MOV     R1,#0x0
        MOV     A,R4
        LCALL   ?XSTACK_DISP101_8
        LCALL   `??osal_memset::?relay`; Banked call to: osal_memset
// 1707                             buf[1] = *p;
        LCALL   ?Subroutine17 & 0xFFFF
??CrossCallReturnLabel_138:
        MOV     A,#0x8
        LCALL   ?XSTACK_DISP0_8
        LCALL   ?Subroutine6 & 0xFFFF
// 1708                             UpdateDeviceStatus2(pInMsg->srcAddr.addr.shortAddr,buf);
??CrossCallReturnLabel_8:
        LCALL   ?XSTACK_DISP102_8
        LCALL   ??Subroutine37_0 & 0xFFFF
??CrossCallReturnLabel_73:
        LCALL   `??UpdateDeviceStatus2::?relay`; Banked call to: UpdateDeviceStatus2
// 1709                             //zclSS_IAS_Send_ZoneStatusEnrollRequestCmd(0x01,&destAddr,zha_project_Smoke_Type,0,false,0);
// 1710                             SetTempDeviceType(pInMsg->srcAddr.addr.shortAddr,*p);
        ; Setup parameters for call to function SetTempDeviceType
        LCALL   ?Subroutine13 & 0xFFFF
??CrossCallReturnLabel_33:
        LCALL   `??SetTempDeviceType::?relay`; Banked call to: SetTempDeviceType
// 1711                          break;
??zha_project_ProcessInReportCmd_26:
        INC     R6
??zha_project_ProcessInReportCmd_24:
        LCALL   ?Subroutine10 & 0xFFFF
??CrossCallReturnLabel_24:
        JC      $+5
        LJMP    ??zha_project_ProcessInReportCmd_10 & 0xFFFF
        LCALL   ?Subroutine24 & 0xFFFF
??CrossCallReturnLabel_98:
        LCALL   ??Subroutine39_0 & 0xFFFF
??CrossCallReturnLabel_80:
        LCALL   ?US_SWITCH_DENSE
`?<Jumptable for zha_project_ProcessInReportCmd_2`:
        DATA
        DATA16
        DATA
        DATA16
        DW        1
        DATA
        DATA8
        DATA
        DATA8
        DB        1
        DATA
        DATA16
        DATA
        DATA16
        DW        ??zha_project_ProcessInReportCmd_26
        DATA
        DATA16
        DATA
        DATA16
        DW        ??zha_project_ProcessInReportCmd_25
        DATA
        DATA16
        DATA
        DATA16
        DW        ??zha_project_ProcessInReportCmd_27
        CODE
??zha_project_ProcessInReportCmd_27:
        ; Setup parameters for call to function osal_memset
        MOV     R4,#0x6
        MOV     R5,#0x0
        MOV     R1,#0x0
        MOV     A,R4
        LCALL   ?XSTACK_DISP101_8
        LCALL   `??osal_memset::?relay`; Banked call to: osal_memset
        LCALL   ?Subroutine17 & 0xFFFF
??CrossCallReturnLabel_139:
        MOV     A,#0x6
        LCALL   ?XSTACK_DISP0_8
        LCALL   ?Subroutine6 & 0xFFFF
??CrossCallReturnLabel_9:
        LCALL   ?XSTACK_DISP102_8
        LCALL   ??Subroutine37_0 & 0xFFFF
??CrossCallReturnLabel_74:
        LCALL   `??UpdateDeviceStatus1::?relay`; Banked call to: UpdateDeviceStatus1
        SJMP    ??zha_project_ProcessInReportCmd_26
// 1712                       
// 1713                         default:
// 1714                         break;
// 1715 
// 1716                     }
// 1717 
// 1718                 }
// 1719 
// 1720              }
// 1721       
// 1722       break;
// 1723       case ZCL_CLUSTER_ID_SS_IAS_WD:
// 1724             {
// 1725                 for (i = 0; i < reportRspCmd->numAttr; i++)
??zha_project_ProcessInReportCmd_9:
        MOV     R6,#0x0
        SJMP    ??zha_project_ProcessInReportCmd_28
// 1726                 {
// 1727                     zclReport_t *statusRec = &(reportRspCmd->attrList[i]);
// 1728                     j=statusRec->attrData;
// 1729                     switch(statusRec->attrID)
// 1730                     {
// 1731                         case COMMAND_SS_IAS_WD_START_WARNING:
// 1732                             //zha_project_Warning = *j;
// 1733                             uint16 buf[3];
// 1734                             osal_memset(buf,0,sizeof(buf));
// 1735                             //buf[0] = zha_project_Warning;
// 1736                             //UpdateDeviceStatus1(pInMsg->srcAddr.addr.shortAddr,buf);
// 1737                             break;
// 1738                         case COMMAND_SS_IAS_WD_SQUAWK:
// 1739                             //zha_project_WD_SQUAWK = *j;
// 1740                             //uint16 buf[3];
// 1741                             osal_memset(buf,0,sizeof(buf));
??zha_project_ProcessInReportCmd_29:
        ; Setup parameters for call to function osal_memset
        MOV     R4,#0x6
        MOV     R5,#0x0
        MOV     R1,#0x0
        MOV     A,#0xc
        LCALL   ?XSTACK_DISP101_8
        LCALL   `??osal_memset::?relay`; Banked call to: osal_memset
// 1742                            // buf[1] = zha_project_WD_SQUAWK;
// 1743                             //UpdateDeviceStatus2(pInMsg->srcAddr.addr.shortAddr,buf);
// 1744                             break;
// 1745 
// 1746                         default:
// 1747                             break;
// 1748 
// 1749                     }
??zha_project_ProcessInReportCmd_30:
        INC     R6
??zha_project_ProcessInReportCmd_28:
        LCALL   ?Subroutine10 & 0xFFFF
??CrossCallReturnLabel_25:
        JC      $+5
        LJMP    ??zha_project_ProcessInReportCmd_10 & 0xFFFF
        MOV     A,R6
        MOV     B,#0x5
        LCALL   ?Subroutine21 & 0xFFFF
// 1750 
// 1751                 }
// 1752 
// 1753              }        
??CrossCallReturnLabel_44:
        LCALL   ?US_SWITCH_DENSE
`?<Jumptable for zha_project_ProcessInReportCmd_3`:
        DATA
        DATA16
        DATA
        DATA16
        DW        0
        DATA
        DATA8
        DATA
        DATA8
        DB        1
        DATA
        DATA16
        DATA
        DATA16
        DW        ??zha_project_ProcessInReportCmd_30
        DATA
        DATA16
        DATA
        DATA16
        DW        ??zha_project_ProcessInReportCmd_29
        DATA
        DATA16
        DATA
        DATA16
        DW        ??zha_project_ProcessInReportCmd_29
        CODE
// 1754         
// 1755         break;
// 1756       
// 1757       case ZCL_CLUSTER_ID_MS_TEMPERATURE_MEASUREMENT:
// 1758        {
// 1759                 for (i = 0; i < reportRspCmd->numAttr; i++)
??zha_project_ProcessInReportCmd_6:
        MOV     R6,#0x0
??zha_project_ProcessInReportCmd_31:
        LCALL   ?Subroutine10 & 0xFFFF
??CrossCallReturnLabel_26:
        JC      $+5
        LJMP    ??zha_project_ProcessInReportCmd_10 & 0xFFFF
// 1760                 {
// 1761                     zclReport_t *statusRec = &(reportRspCmd->attrList[i]);
        LCALL   ?Subroutine24 & 0xFFFF
// 1762                     p=(uint16 *)statusRec->attrData;
??CrossCallReturnLabel_99:
        LCALL   ??Subroutine40_0 & 0xFFFF
// 1763                     switch(statusRec->attrID)
??CrossCallReturnLabel_87:
        JNZ     ??zha_project_ProcessInReportCmd_32
// 1764                     {
// 1765                         case ATTRID_MS_TEMPERATURE_MEASURED_VALUE:
// 1766                             //zha_project_Temperature_Value = *p;
// 1767                             uint16 buf[3];
// 1768                             osal_memset(buf,0,sizeof(buf));
        ; Setup parameters for call to function osal_memset
        MOV     R4,#0x6
        MOV     R5,#0x0
        MOV     R1,#0x0
        MOV     R2,?XSP + 0
        MOV     R3,?XSP + 1
        LCALL   `??osal_memset::?relay`; Banked call to: osal_memset
// 1769                             buf[0] = *p;
        LCALL   ?Subroutine3 & 0xFFFF
// 1770                             UpdateDeviceStatus1(pInMsg->srcAddr.addr.shortAddr,buf);
??CrossCallReturnLabel_116:
        LCALL   `??UpdateDeviceStatus1::?relay`; Banked call to: UpdateDeviceStatus1
// 1771                             
// 1772                         break;
// 1773                         default:
// 1774                         break;
// 1775 
// 1776                     }
// 1777 
// 1778                 }
??zha_project_ProcessInReportCmd_32:
        INC     R6
        SJMP    ??zha_project_ProcessInReportCmd_31
// 1779 
// 1780              }
// 1781          break;
// 1782         case ZCL_CLUSTER_ID_GEN_LEVEL_CONTROL:
// 1783            {
// 1784                 for (i = 0; i < reportRspCmd->numAttr; i++)
??zha_project_ProcessInReportCmd_3:
        MOV     R6,#0x0
??zha_project_ProcessInReportCmd_33:
        LCALL   ?Subroutine10 & 0xFFFF
??CrossCallReturnLabel_27:
        JNC     ??zha_project_ProcessInReportCmd_10
// 1785                 {
// 1786                     zclReport_t *statusRec = &(reportRspCmd->attrList[i]);
        LCALL   ?Subroutine24 & 0xFFFF
// 1787                     j=statusRec->attrData;
??CrossCallReturnLabel_100:
        LCALL   ??Subroutine40_0 & 0xFFFF
// 1788                     //j = zclSerializeData( statusRec->dataType, statusRec->data, j );
// 1789                     switch(statusRec->attrID)
??CrossCallReturnLabel_88:
        JNZ     ??zha_project_ProcessInReportCmd_34
// 1790                     {
// 1791                         case ATTRID_MS_TEMPERATURE_MEASURED_VALUE:
// 1792                             uint16 buf[3];
// 1793                             osal_memset(buf,0,sizeof(buf));
        ; Setup parameters for call to function osal_memset
        MOV     R4,#0x6
        MOV     R5,#0x0
        MOV     R1,#0x0
        MOV     R2,?XSP + 0
        MOV     R3,?XSP + 1
        LCALL   `??osal_memset::?relay`; Banked call to: osal_memset
// 1794                             //zha_project_Level_to_Level = *j;
// 1795                             buf[1] = *j;
        MOV     DPL,?V2
        MOV     DPH,?V3
        MOVX    A,@DPTR
        MOV     R0,A
        MOV     A,#0x2
        LCALL   ?XSTACK_DISP0_8
        MOV     A,R0
        MOVX    @DPTR,A
        INC     DPTR
        CLR     A
        LCALL   ??Subroutine45_0 & 0xFFFF
// 1796                             UpdateDeviceStatus2(pInMsg->srcAddr.addr.shortAddr,buf); 
??CrossCallReturnLabel_124:
        LCALL   `??UpdateDeviceStatus2::?relay`; Banked call to: UpdateDeviceStatus2
// 1797                         break;
// 1798                         default:
// 1799                         break;
// 1800 
// 1801                     }
// 1802 
// 1803                 }
??zha_project_ProcessInReportCmd_34:
        INC     R6
        SJMP    ??zha_project_ProcessInReportCmd_33
// 1804 
// 1805              }
// 1806     
// 1807         break;
// 1808       case ZCL_CLUSTER_ID_MS_RELATIVE_HUMIDITY:
// 1809            {
// 1810                 for (i = 0; i < reportRspCmd->numAttr; i++)
??zha_project_ProcessInReportCmd_7:
        MOV     R6,#0x0
??zha_project_ProcessInReportCmd_35:
        LCALL   ?Subroutine10 & 0xFFFF
??CrossCallReturnLabel_28:
        JNC     ??zha_project_ProcessInReportCmd_10
// 1811                 {
// 1812                     zclReport_t *statusRec = &(reportRspCmd->attrList[i]);
        LCALL   ?Subroutine24 & 0xFFFF
// 1813                     p=(uint16 *)statusRec->attrData;
??CrossCallReturnLabel_101:
        LCALL   ??Subroutine40_0 & 0xFFFF
// 1814                     //j = zclSerializeData( statusRec->dataType, statusRec->data, j );
// 1815                     switch(statusRec->attrID)
??CrossCallReturnLabel_89:
        JNZ     ??zha_project_ProcessInReportCmd_36
// 1816                     {
// 1817                         case ATTRID_MS_RELATIVE_HUMIDITY_MEASURED_VALUE:
// 1818                             //zha_project_Humidity_Value = *p;
// 1819                             uint16 buf[3];
// 1820                             osal_memset(buf,0,sizeof(buf));
        ; Setup parameters for call to function osal_memset
        MOV     R4,#0x6
        MOV     R5,#0x0
        MOV     R1,#0x0
        MOV     R2,?XSP + 0
        MOV     R3,?XSP + 1
        LCALL   `??osal_memset::?relay`; Banked call to: osal_memset
// 1821                             buf[0] = *p;
        LCALL   ?Subroutine3 & 0xFFFF
// 1822                             UpdateDeviceStatus1(pInMsg->srcAddr.addr.shortAddr,buf);
??CrossCallReturnLabel_117:
        LCALL   `??UpdateDeviceStatus1::?relay`; Banked call to: UpdateDeviceStatus1
// 1823                             
// 1824                         break;
// 1825                         default:
// 1826                         break;
// 1827 
// 1828                     }
// 1829 
// 1830                 }
??zha_project_ProcessInReportCmd_36:
        INC     R6
        SJMP    ??zha_project_ProcessInReportCmd_35
// 1831 
// 1832              }     
// 1833         
// 1834         
// 1835         break;   
// 1836       case ZCL_CLUSTER_ID_MS_ILLUMINANCE_MEASUREMENT:
// 1837            {
// 1838                 for (i = 0; i < reportRspCmd->numAttr; i++)
??zha_project_ProcessInReportCmd_5:
        MOV     R6,#0x0
        SJMP    ??zha_project_ProcessInReportCmd_37
// 1839                 {
// 1840                     zclReport_t *statusRec = &(reportRspCmd->attrList[i]);
??zha_project_ProcessInReportCmd_38:
        LCALL   ?Subroutine24 & 0xFFFF
// 1841                     p=(uint16 *)statusRec->attrData;
??CrossCallReturnLabel_102:
        LCALL   ??Subroutine40_0 & 0xFFFF
// 1842                     //j = zclSerializeData( statusRec->dataType, statusRec->data, j );
// 1843                     switch(statusRec->attrID)
??CrossCallReturnLabel_90:
        JNZ     ??zha_project_ProcessInReportCmd_39
// 1844                     {
// 1845                         case ATTRID_MS_ILLUMINANCE_MEASURED_VALUE:
// 1846                             //zha_project_Illumiance_Value = *p;
// 1847                             uint16 buf[3];
// 1848                             osal_memset(buf,0,sizeof(buf));
        ; Setup parameters for call to function osal_memset
        MOV     R4,#0x6
        MOV     R5,#0x0
        MOV     R1,#0x0
        MOV     R2,?XSP + 0
        MOV     R3,?XSP + 1
        LCALL   `??osal_memset::?relay`; Banked call to: osal_memset
// 1849                             buf[0] = *p;
        LCALL   ?Subroutine3 & 0xFFFF
// 1850                             UpdateDeviceStatus1(pInMsg->srcAddr.addr.shortAddr,buf);
??CrossCallReturnLabel_118:
        LCALL   `??UpdateDeviceStatus1::?relay`; Banked call to: UpdateDeviceStatus1
// 1851                             
// 1852                         break;
// 1853                         default:
// 1854                         break;
// 1855 
// 1856                     }
// 1857 
// 1858                 }
??zha_project_ProcessInReportCmd_39:
        INC     R6
??zha_project_ProcessInReportCmd_37:
        LCALL   ?Subroutine10 & 0xFFFF
// 1859 
// 1860              }          
// 1861         
// 1862         
// 1863         break;
// 1864       default:
// 1865         break;
// 1866     //ReadRspStatus.attrID = readRspCmd->attrList;
// 1867     // Notify the originator of the results of the original read attributes 
// 1868     // attempt and, for each successfull request, the value of the requested 
// 1869     // attribute
// 1870 #endif
// 1871     }
??CrossCallReturnLabel_29:
        JC      ??zha_project_ProcessInReportCmd_38
// 1872 
// 1873   
// 1874   
// 1875   return TRUE; 
??zha_project_ProcessInReportCmd_10:
        LJMP    ?Subroutine2 & 0xFFFF
// 1876 }
          CFI EndBlock cfiBlock107

        RSEG BANKED_CODE:CODE:NOROOT(0)
?Subroutine25:
          CFI Block cfiCond108 Using cfiCommon0
          CFI Function zha_project_ProcessInReadRspCmd
          CFI Conditional ??CrossCallReturnLabel_49
          CFI R6 load(1, XDATA, add(CFA_XSP16, literal(-20)))
          CFI VB load(1, XDATA, add(CFA_XSP16, literal(-19)))
          CFI V0 load(1, XDATA, add(CFA_XSP16, literal(-18)))
          CFI V1 load(1, XDATA, add(CFA_XSP16, literal(-17)))
          CFI V2 load(1, XDATA, add(CFA_XSP16, literal(-16)))
          CFI V3 load(1, XDATA, add(CFA_XSP16, literal(-15)))
          CFI V4 load(1, XDATA, add(CFA_XSP16, literal(-14)))
          CFI V5 load(1, XDATA, add(CFA_XSP16, literal(-13)))
          CFI V6 load(1, XDATA, add(CFA_XSP16, literal(-12)))
          CFI V7 load(1, XDATA, add(CFA_XSP16, literal(-11)))
          CFI V8 load(1, XDATA, add(CFA_XSP16, literal(-10)))
          CFI V9 load(1, XDATA, add(CFA_XSP16, literal(-9)))
          CFI V10 load(1, XDATA, add(CFA_XSP16, literal(-8)))
          CFI V11 load(1, XDATA, add(CFA_XSP16, literal(-7)))
          CFI R7 load(1, XDATA, add(CFA_XSP16, literal(-6)))
          CFI ?RET_LOW load(1, XDATA, add(CFA_XSP16, literal(-5)))
          CFI ?RET_HIGH load(1, XDATA, add(CFA_XSP16, literal(-4)))
          CFI ?BRET_EXT load(1, XDATA, add(CFA_XSP16, literal(-3)))
          CFI DPL0 load(1, XDATA, add(CFA_XSP16, literal(-2)))
          CFI DPH0 load(1, XDATA, add(CFA_XSP16, literal(-1)))
          CFI CFA_SP SP+-2
          CFI CFA_XSP16 add(XSP16, 64)
          CFI Block cfiCond109 Using cfiCommon0
          CFI (cfiCond109) Function zha_project_ProcessInReportCmd
          CFI (cfiCond109) Conditional ??CrossCallReturnLabel_50
          CFI (cfiCond109) R6 load(1, XDATA, add(CFA_XSP16, literal(-20)))
          CFI (cfiCond109) VB load(1, XDATA, add(CFA_XSP16, literal(-19)))
          CFI (cfiCond109) V0 load(1, XDATA, add(CFA_XSP16, literal(-18)))
          CFI (cfiCond109) V1 load(1, XDATA, add(CFA_XSP16, literal(-17)))
          CFI (cfiCond109) V2 load(1, XDATA, add(CFA_XSP16, literal(-16)))
          CFI (cfiCond109) V3 load(1, XDATA, add(CFA_XSP16, literal(-15)))
          CFI (cfiCond109) V4 load(1, XDATA, add(CFA_XSP16, literal(-14)))
          CFI (cfiCond109) V5 load(1, XDATA, add(CFA_XSP16, literal(-13)))
          CFI (cfiCond109) V6 load(1, XDATA, add(CFA_XSP16, literal(-12)))
          CFI (cfiCond109) V7 load(1, XDATA, add(CFA_XSP16, literal(-11)))
          CFI (cfiCond109) V8 load(1, XDATA, add(CFA_XSP16, literal(-10)))
          CFI (cfiCond109) V9 load(1, XDATA, add(CFA_XSP16, literal(-9)))
          CFI (cfiCond109) V10 load(1, XDATA, add(CFA_XSP16, literal(-8)))
          CFI (cfiCond109) V11 load(1, XDATA, add(CFA_XSP16, literal(-7)))
          CFI (cfiCond109) R7 load(1, XDATA, add(CFA_XSP16, literal(-6)))
          CFI (cfiCond109) ?RET_LOW load(1, XDATA, add(CFA_XSP16, literal(-5)))
          CFI (cfiCond109) ?RET_HIGH load(1, XDATA, add(CFA_XSP16, literal(-4)))
          CFI (cfiCond109) ?BRET_EXT load(1, XDATA, add(CFA_XSP16, literal(-3)))
          CFI (cfiCond109) DPL0 load(1, XDATA, add(CFA_XSP16, literal(-2)))
          CFI (cfiCond109) DPH0 load(1, XDATA, add(CFA_XSP16, literal(-1)))
          CFI (cfiCond109) CFA_SP SP+-2
          CFI (cfiCond109) CFA_XSP16 add(XSP16, 64)
          CFI Block cfiPicker110 Using cfiCommon1
          CFI (cfiPicker110) NoFunction
          CFI (cfiPicker110) Picker
        MOV     A,?V10
        ADD     A,#0x16
        MOV     DPL,A
        CLR     A
        ADDC    A,?V11
        MOV     DPH,A
        MOVX    A,@DPTR
        MOV     ?V4,A
        MOV     R0,#?V4
        RET
          CFI EndBlock cfiCond108
          CFI EndBlock cfiCond109
          CFI EndBlock cfiPicker110

        RSEG BANKED_CODE:CODE:NOROOT(0)
?Subroutine24:
          CFI Block cfiCond111 Using cfiCommon0
          CFI Function zha_project_ProcessInReportCmd
          CFI Conditional ??CrossCallReturnLabel_95
          CFI R6 load(1, XDATA, add(CFA_XSP16, literal(-20)))
          CFI VB load(1, XDATA, add(CFA_XSP16, literal(-19)))
          CFI V0 load(1, XDATA, add(CFA_XSP16, literal(-18)))
          CFI V1 load(1, XDATA, add(CFA_XSP16, literal(-17)))
          CFI V2 load(1, XDATA, add(CFA_XSP16, literal(-16)))
          CFI V3 load(1, XDATA, add(CFA_XSP16, literal(-15)))
          CFI V4 load(1, XDATA, add(CFA_XSP16, literal(-14)))
          CFI V5 load(1, XDATA, add(CFA_XSP16, literal(-13)))
          CFI V6 load(1, XDATA, add(CFA_XSP16, literal(-12)))
          CFI V7 load(1, XDATA, add(CFA_XSP16, literal(-11)))
          CFI V8 load(1, XDATA, add(CFA_XSP16, literal(-10)))
          CFI V9 load(1, XDATA, add(CFA_XSP16, literal(-9)))
          CFI V10 load(1, XDATA, add(CFA_XSP16, literal(-8)))
          CFI V11 load(1, XDATA, add(CFA_XSP16, literal(-7)))
          CFI R7 load(1, XDATA, add(CFA_XSP16, literal(-6)))
          CFI ?RET_LOW load(1, XDATA, add(CFA_XSP16, literal(-5)))
          CFI ?RET_HIGH load(1, XDATA, add(CFA_XSP16, literal(-4)))
          CFI ?BRET_EXT load(1, XDATA, add(CFA_XSP16, literal(-3)))
          CFI DPL0 load(1, XDATA, add(CFA_XSP16, literal(-2)))
          CFI DPH0 load(1, XDATA, add(CFA_XSP16, literal(-1)))
          CFI CFA_SP SP+-2
          CFI CFA_XSP16 add(XSP16, 63)
          CFI Block cfiCond112 Using cfiCommon0
          CFI (cfiCond112) Function zha_project_ProcessInReportCmd
          CFI (cfiCond112) Conditional ??CrossCallReturnLabel_96
          CFI (cfiCond112) R6 load(1, XDATA, add(CFA_XSP16, literal(-20)))
          CFI (cfiCond112) VB load(1, XDATA, add(CFA_XSP16, literal(-19)))
          CFI (cfiCond112) V0 load(1, XDATA, add(CFA_XSP16, literal(-18)))
          CFI (cfiCond112) V1 load(1, XDATA, add(CFA_XSP16, literal(-17)))
          CFI (cfiCond112) V2 load(1, XDATA, add(CFA_XSP16, literal(-16)))
          CFI (cfiCond112) V3 load(1, XDATA, add(CFA_XSP16, literal(-15)))
          CFI (cfiCond112) V4 load(1, XDATA, add(CFA_XSP16, literal(-14)))
          CFI (cfiCond112) V5 load(1, XDATA, add(CFA_XSP16, literal(-13)))
          CFI (cfiCond112) V6 load(1, XDATA, add(CFA_XSP16, literal(-12)))
          CFI (cfiCond112) V7 load(1, XDATA, add(CFA_XSP16, literal(-11)))
          CFI (cfiCond112) V8 load(1, XDATA, add(CFA_XSP16, literal(-10)))
          CFI (cfiCond112) V9 load(1, XDATA, add(CFA_XSP16, literal(-9)))
          CFI (cfiCond112) V10 load(1, XDATA, add(CFA_XSP16, literal(-8)))
          CFI (cfiCond112) V11 load(1, XDATA, add(CFA_XSP16, literal(-7)))
          CFI (cfiCond112) R7 load(1, XDATA, add(CFA_XSP16, literal(-6)))
          CFI (cfiCond112) ?RET_LOW load(1, XDATA, add(CFA_XSP16, literal(-5)))
          CFI (cfiCond112) ?RET_HIGH load(1, XDATA, add(CFA_XSP16, literal(-4)))
          CFI (cfiCond112) ?BRET_EXT load(1, XDATA, add(CFA_XSP16, literal(-3)))
          CFI (cfiCond112) DPL0 load(1, XDATA, add(CFA_XSP16, literal(-2)))
          CFI (cfiCond112) DPH0 load(1, XDATA, add(CFA_XSP16, literal(-1)))
          CFI (cfiCond112) CFA_SP SP+-2
          CFI (cfiCond112) CFA_XSP16 add(XSP16, 63)
          CFI Block cfiCond113 Using cfiCommon0
          CFI (cfiCond113) Function zha_project_ProcessInReportCmd
          CFI (cfiCond113) Conditional ??CrossCallReturnLabel_97
          CFI (cfiCond113) R6 load(1, XDATA, add(CFA_XSP16, literal(-20)))
          CFI (cfiCond113) VB load(1, XDATA, add(CFA_XSP16, literal(-19)))
          CFI (cfiCond113) V0 load(1, XDATA, add(CFA_XSP16, literal(-18)))
          CFI (cfiCond113) V1 load(1, XDATA, add(CFA_XSP16, literal(-17)))
          CFI (cfiCond113) V2 load(1, XDATA, add(CFA_XSP16, literal(-16)))
          CFI (cfiCond113) V3 load(1, XDATA, add(CFA_XSP16, literal(-15)))
          CFI (cfiCond113) V4 load(1, XDATA, add(CFA_XSP16, literal(-14)))
          CFI (cfiCond113) V5 load(1, XDATA, add(CFA_XSP16, literal(-13)))
          CFI (cfiCond113) V6 load(1, XDATA, add(CFA_XSP16, literal(-12)))
          CFI (cfiCond113) V7 load(1, XDATA, add(CFA_XSP16, literal(-11)))
          CFI (cfiCond113) V8 load(1, XDATA, add(CFA_XSP16, literal(-10)))
          CFI (cfiCond113) V9 load(1, XDATA, add(CFA_XSP16, literal(-9)))
          CFI (cfiCond113) V10 load(1, XDATA, add(CFA_XSP16, literal(-8)))
          CFI (cfiCond113) V11 load(1, XDATA, add(CFA_XSP16, literal(-7)))
          CFI (cfiCond113) R7 load(1, XDATA, add(CFA_XSP16, literal(-6)))
          CFI (cfiCond113) ?RET_LOW load(1, XDATA, add(CFA_XSP16, literal(-5)))
          CFI (cfiCond113) ?RET_HIGH load(1, XDATA, add(CFA_XSP16, literal(-4)))
          CFI (cfiCond113) ?BRET_EXT load(1, XDATA, add(CFA_XSP16, literal(-3)))
          CFI (cfiCond113) DPL0 load(1, XDATA, add(CFA_XSP16, literal(-2)))
          CFI (cfiCond113) DPH0 load(1, XDATA, add(CFA_XSP16, literal(-1)))
          CFI (cfiCond113) CFA_SP SP+-2
          CFI (cfiCond113) CFA_XSP16 add(XSP16, 63)
          CFI Block cfiCond114 Using cfiCommon0
          CFI (cfiCond114) Function zha_project_ProcessInReportCmd
          CFI (cfiCond114) Conditional ??CrossCallReturnLabel_98
          CFI (cfiCond114) R6 load(1, XDATA, add(CFA_XSP16, literal(-20)))
          CFI (cfiCond114) VB load(1, XDATA, add(CFA_XSP16, literal(-19)))
          CFI (cfiCond114) V0 load(1, XDATA, add(CFA_XSP16, literal(-18)))
          CFI (cfiCond114) V1 load(1, XDATA, add(CFA_XSP16, literal(-17)))
          CFI (cfiCond114) V2 load(1, XDATA, add(CFA_XSP16, literal(-16)))
          CFI (cfiCond114) V3 load(1, XDATA, add(CFA_XSP16, literal(-15)))
          CFI (cfiCond114) V4 load(1, XDATA, add(CFA_XSP16, literal(-14)))
          CFI (cfiCond114) V5 load(1, XDATA, add(CFA_XSP16, literal(-13)))
          CFI (cfiCond114) V6 load(1, XDATA, add(CFA_XSP16, literal(-12)))
          CFI (cfiCond114) V7 load(1, XDATA, add(CFA_XSP16, literal(-11)))
          CFI (cfiCond114) V8 load(1, XDATA, add(CFA_XSP16, literal(-10)))
          CFI (cfiCond114) V9 load(1, XDATA, add(CFA_XSP16, literal(-9)))
          CFI (cfiCond114) V10 load(1, XDATA, add(CFA_XSP16, literal(-8)))
          CFI (cfiCond114) V11 load(1, XDATA, add(CFA_XSP16, literal(-7)))
          CFI (cfiCond114) R7 load(1, XDATA, add(CFA_XSP16, literal(-6)))
          CFI (cfiCond114) ?RET_LOW load(1, XDATA, add(CFA_XSP16, literal(-5)))
          CFI (cfiCond114) ?RET_HIGH load(1, XDATA, add(CFA_XSP16, literal(-4)))
          CFI (cfiCond114) ?BRET_EXT load(1, XDATA, add(CFA_XSP16, literal(-3)))
          CFI (cfiCond114) DPL0 load(1, XDATA, add(CFA_XSP16, literal(-2)))
          CFI (cfiCond114) DPH0 load(1, XDATA, add(CFA_XSP16, literal(-1)))
          CFI (cfiCond114) CFA_SP SP+-2
          CFI (cfiCond114) CFA_XSP16 add(XSP16, 63)
          CFI Block cfiCond115 Using cfiCommon0
          CFI (cfiCond115) Function zha_project_ProcessInReportCmd
          CFI (cfiCond115) Conditional ??CrossCallReturnLabel_99
          CFI (cfiCond115) R6 load(1, XDATA, add(CFA_XSP16, literal(-20)))
          CFI (cfiCond115) VB load(1, XDATA, add(CFA_XSP16, literal(-19)))
          CFI (cfiCond115) V0 load(1, XDATA, add(CFA_XSP16, literal(-18)))
          CFI (cfiCond115) V1 load(1, XDATA, add(CFA_XSP16, literal(-17)))
          CFI (cfiCond115) V2 load(1, XDATA, add(CFA_XSP16, literal(-16)))
          CFI (cfiCond115) V3 load(1, XDATA, add(CFA_XSP16, literal(-15)))
          CFI (cfiCond115) V4 load(1, XDATA, add(CFA_XSP16, literal(-14)))
          CFI (cfiCond115) V5 load(1, XDATA, add(CFA_XSP16, literal(-13)))
          CFI (cfiCond115) V6 load(1, XDATA, add(CFA_XSP16, literal(-12)))
          CFI (cfiCond115) V7 load(1, XDATA, add(CFA_XSP16, literal(-11)))
          CFI (cfiCond115) V8 load(1, XDATA, add(CFA_XSP16, literal(-10)))
          CFI (cfiCond115) V9 load(1, XDATA, add(CFA_XSP16, literal(-9)))
          CFI (cfiCond115) V10 load(1, XDATA, add(CFA_XSP16, literal(-8)))
          CFI (cfiCond115) V11 load(1, XDATA, add(CFA_XSP16, literal(-7)))
          CFI (cfiCond115) R7 load(1, XDATA, add(CFA_XSP16, literal(-6)))
          CFI (cfiCond115) ?RET_LOW load(1, XDATA, add(CFA_XSP16, literal(-5)))
          CFI (cfiCond115) ?RET_HIGH load(1, XDATA, add(CFA_XSP16, literal(-4)))
          CFI (cfiCond115) ?BRET_EXT load(1, XDATA, add(CFA_XSP16, literal(-3)))
          CFI (cfiCond115) DPL0 load(1, XDATA, add(CFA_XSP16, literal(-2)))
          CFI (cfiCond115) DPH0 load(1, XDATA, add(CFA_XSP16, literal(-1)))
          CFI (cfiCond115) CFA_SP SP+-2
          CFI (cfiCond115) CFA_XSP16 add(XSP16, 63)
          CFI Block cfiCond116 Using cfiCommon0
          CFI (cfiCond116) Function zha_project_ProcessInReportCmd
          CFI (cfiCond116) Conditional ??CrossCallReturnLabel_100
          CFI (cfiCond116) R6 load(1, XDATA, add(CFA_XSP16, literal(-20)))
          CFI (cfiCond116) VB load(1, XDATA, add(CFA_XSP16, literal(-19)))
          CFI (cfiCond116) V0 load(1, XDATA, add(CFA_XSP16, literal(-18)))
          CFI (cfiCond116) V1 load(1, XDATA, add(CFA_XSP16, literal(-17)))
          CFI (cfiCond116) V2 load(1, XDATA, add(CFA_XSP16, literal(-16)))
          CFI (cfiCond116) V3 load(1, XDATA, add(CFA_XSP16, literal(-15)))
          CFI (cfiCond116) V4 load(1, XDATA, add(CFA_XSP16, literal(-14)))
          CFI (cfiCond116) V5 load(1, XDATA, add(CFA_XSP16, literal(-13)))
          CFI (cfiCond116) V6 load(1, XDATA, add(CFA_XSP16, literal(-12)))
          CFI (cfiCond116) V7 load(1, XDATA, add(CFA_XSP16, literal(-11)))
          CFI (cfiCond116) V8 load(1, XDATA, add(CFA_XSP16, literal(-10)))
          CFI (cfiCond116) V9 load(1, XDATA, add(CFA_XSP16, literal(-9)))
          CFI (cfiCond116) V10 load(1, XDATA, add(CFA_XSP16, literal(-8)))
          CFI (cfiCond116) V11 load(1, XDATA, add(CFA_XSP16, literal(-7)))
          CFI (cfiCond116) R7 load(1, XDATA, add(CFA_XSP16, literal(-6)))
          CFI (cfiCond116) ?RET_LOW load(1, XDATA, add(CFA_XSP16, literal(-5)))
          CFI (cfiCond116) ?RET_HIGH load(1, XDATA, add(CFA_XSP16, literal(-4)))
          CFI (cfiCond116) ?BRET_EXT load(1, XDATA, add(CFA_XSP16, literal(-3)))
          CFI (cfiCond116) DPL0 load(1, XDATA, add(CFA_XSP16, literal(-2)))
          CFI (cfiCond116) DPH0 load(1, XDATA, add(CFA_XSP16, literal(-1)))
          CFI (cfiCond116) CFA_SP SP+-2
          CFI (cfiCond116) CFA_XSP16 add(XSP16, 63)
          CFI Block cfiCond117 Using cfiCommon0
          CFI (cfiCond117) Function zha_project_ProcessInReportCmd
          CFI (cfiCond117) Conditional ??CrossCallReturnLabel_101
          CFI (cfiCond117) R6 load(1, XDATA, add(CFA_XSP16, literal(-20)))
          CFI (cfiCond117) VB load(1, XDATA, add(CFA_XSP16, literal(-19)))
          CFI (cfiCond117) V0 load(1, XDATA, add(CFA_XSP16, literal(-18)))
          CFI (cfiCond117) V1 load(1, XDATA, add(CFA_XSP16, literal(-17)))
          CFI (cfiCond117) V2 load(1, XDATA, add(CFA_XSP16, literal(-16)))
          CFI (cfiCond117) V3 load(1, XDATA, add(CFA_XSP16, literal(-15)))
          CFI (cfiCond117) V4 load(1, XDATA, add(CFA_XSP16, literal(-14)))
          CFI (cfiCond117) V5 load(1, XDATA, add(CFA_XSP16, literal(-13)))
          CFI (cfiCond117) V6 load(1, XDATA, add(CFA_XSP16, literal(-12)))
          CFI (cfiCond117) V7 load(1, XDATA, add(CFA_XSP16, literal(-11)))
          CFI (cfiCond117) V8 load(1, XDATA, add(CFA_XSP16, literal(-10)))
          CFI (cfiCond117) V9 load(1, XDATA, add(CFA_XSP16, literal(-9)))
          CFI (cfiCond117) V10 load(1, XDATA, add(CFA_XSP16, literal(-8)))
          CFI (cfiCond117) V11 load(1, XDATA, add(CFA_XSP16, literal(-7)))
          CFI (cfiCond117) R7 load(1, XDATA, add(CFA_XSP16, literal(-6)))
          CFI (cfiCond117) ?RET_LOW load(1, XDATA, add(CFA_XSP16, literal(-5)))
          CFI (cfiCond117) ?RET_HIGH load(1, XDATA, add(CFA_XSP16, literal(-4)))
          CFI (cfiCond117) ?BRET_EXT load(1, XDATA, add(CFA_XSP16, literal(-3)))
          CFI (cfiCond117) DPL0 load(1, XDATA, add(CFA_XSP16, literal(-2)))
          CFI (cfiCond117) DPH0 load(1, XDATA, add(CFA_XSP16, literal(-1)))
          CFI (cfiCond117) CFA_SP SP+-2
          CFI (cfiCond117) CFA_XSP16 add(XSP16, 63)
          CFI Block cfiCond118 Using cfiCommon0
          CFI (cfiCond118) Function zha_project_ProcessInReportCmd
          CFI (cfiCond118) Conditional ??CrossCallReturnLabel_102
          CFI (cfiCond118) R6 load(1, XDATA, add(CFA_XSP16, literal(-20)))
          CFI (cfiCond118) VB load(1, XDATA, add(CFA_XSP16, literal(-19)))
          CFI (cfiCond118) V0 load(1, XDATA, add(CFA_XSP16, literal(-18)))
          CFI (cfiCond118) V1 load(1, XDATA, add(CFA_XSP16, literal(-17)))
          CFI (cfiCond118) V2 load(1, XDATA, add(CFA_XSP16, literal(-16)))
          CFI (cfiCond118) V3 load(1, XDATA, add(CFA_XSP16, literal(-15)))
          CFI (cfiCond118) V4 load(1, XDATA, add(CFA_XSP16, literal(-14)))
          CFI (cfiCond118) V5 load(1, XDATA, add(CFA_XSP16, literal(-13)))
          CFI (cfiCond118) V6 load(1, XDATA, add(CFA_XSP16, literal(-12)))
          CFI (cfiCond118) V7 load(1, XDATA, add(CFA_XSP16, literal(-11)))
          CFI (cfiCond118) V8 load(1, XDATA, add(CFA_XSP16, literal(-10)))
          CFI (cfiCond118) V9 load(1, XDATA, add(CFA_XSP16, literal(-9)))
          CFI (cfiCond118) V10 load(1, XDATA, add(CFA_XSP16, literal(-8)))
          CFI (cfiCond118) V11 load(1, XDATA, add(CFA_XSP16, literal(-7)))
          CFI (cfiCond118) R7 load(1, XDATA, add(CFA_XSP16, literal(-6)))
          CFI (cfiCond118) ?RET_LOW load(1, XDATA, add(CFA_XSP16, literal(-5)))
          CFI (cfiCond118) ?RET_HIGH load(1, XDATA, add(CFA_XSP16, literal(-4)))
          CFI (cfiCond118) ?BRET_EXT load(1, XDATA, add(CFA_XSP16, literal(-3)))
          CFI (cfiCond118) DPL0 load(1, XDATA, add(CFA_XSP16, literal(-2)))
          CFI (cfiCond118) DPH0 load(1, XDATA, add(CFA_XSP16, literal(-1)))
          CFI (cfiCond118) CFA_SP SP+-2
          CFI (cfiCond118) CFA_XSP16 add(XSP16, 63)
          CFI Block cfiPicker119 Using cfiCommon1
          CFI (cfiPicker119) NoFunction
          CFI (cfiPicker119) Picker
        MOV     A,R6
        MOV     B,#0x5
          CFI EndBlock cfiCond111
          CFI EndBlock cfiCond112
          CFI EndBlock cfiCond113
          CFI EndBlock cfiCond114
          CFI EndBlock cfiCond115
          CFI EndBlock cfiCond116
          CFI EndBlock cfiCond117
          CFI EndBlock cfiCond118
          CFI EndBlock cfiPicker119
        REQUIRE ??Subroutine41_0
        ; // Fall through to label ??Subroutine41_0

        RSEG BANKED_CODE:CODE:NOROOT(0)
??Subroutine41_0:
          CFI Block cfiCond120 Using cfiCommon0
          CFI Function zha_project_ProcessInReadRspCmd
          CFI Conditional ??CrossCallReturnLabel_94
          CFI R6 load(1, XDATA, add(CFA_XSP16, literal(-20)))
          CFI VB load(1, XDATA, add(CFA_XSP16, literal(-19)))
          CFI V0 load(1, XDATA, add(CFA_XSP16, literal(-18)))
          CFI V1 load(1, XDATA, add(CFA_XSP16, literal(-17)))
          CFI V2 load(1, XDATA, add(CFA_XSP16, literal(-16)))
          CFI V3 load(1, XDATA, add(CFA_XSP16, literal(-15)))
          CFI V4 load(1, XDATA, add(CFA_XSP16, literal(-14)))
          CFI V5 load(1, XDATA, add(CFA_XSP16, literal(-13)))
          CFI V6 load(1, XDATA, add(CFA_XSP16, literal(-12)))
          CFI V7 load(1, XDATA, add(CFA_XSP16, literal(-11)))
          CFI V8 load(1, XDATA, add(CFA_XSP16, literal(-10)))
          CFI V9 load(1, XDATA, add(CFA_XSP16, literal(-9)))
          CFI V10 load(1, XDATA, add(CFA_XSP16, literal(-8)))
          CFI V11 load(1, XDATA, add(CFA_XSP16, literal(-7)))
          CFI R7 load(1, XDATA, add(CFA_XSP16, literal(-6)))
          CFI ?RET_LOW load(1, XDATA, add(CFA_XSP16, literal(-5)))
          CFI ?RET_HIGH load(1, XDATA, add(CFA_XSP16, literal(-4)))
          CFI ?BRET_EXT load(1, XDATA, add(CFA_XSP16, literal(-3)))
          CFI DPL0 load(1, XDATA, add(CFA_XSP16, literal(-2)))
          CFI DPH0 load(1, XDATA, add(CFA_XSP16, literal(-1)))
          CFI CFA_SP SP+-2
          CFI CFA_XSP16 add(XSP16, 63)
          CFI Block cfiCond121 Using cfiCommon0
          CFI (cfiCond121) Function zha_project_ProcessInReportCmd
          CFI (cfiCond121) Conditional ??CrossCallReturnLabel_95
          CFI (cfiCond121) R6 load(1, XDATA, add(CFA_XSP16, literal(-20)))
          CFI (cfiCond121) VB load(1, XDATA, add(CFA_XSP16, literal(-19)))
          CFI (cfiCond121) V0 load(1, XDATA, add(CFA_XSP16, literal(-18)))
          CFI (cfiCond121) V1 load(1, XDATA, add(CFA_XSP16, literal(-17)))
          CFI (cfiCond121) V2 load(1, XDATA, add(CFA_XSP16, literal(-16)))
          CFI (cfiCond121) V3 load(1, XDATA, add(CFA_XSP16, literal(-15)))
          CFI (cfiCond121) V4 load(1, XDATA, add(CFA_XSP16, literal(-14)))
          CFI (cfiCond121) V5 load(1, XDATA, add(CFA_XSP16, literal(-13)))
          CFI (cfiCond121) V6 load(1, XDATA, add(CFA_XSP16, literal(-12)))
          CFI (cfiCond121) V7 load(1, XDATA, add(CFA_XSP16, literal(-11)))
          CFI (cfiCond121) V8 load(1, XDATA, add(CFA_XSP16, literal(-10)))
          CFI (cfiCond121) V9 load(1, XDATA, add(CFA_XSP16, literal(-9)))
          CFI (cfiCond121) V10 load(1, XDATA, add(CFA_XSP16, literal(-8)))
          CFI (cfiCond121) V11 load(1, XDATA, add(CFA_XSP16, literal(-7)))
          CFI (cfiCond121) R7 load(1, XDATA, add(CFA_XSP16, literal(-6)))
          CFI (cfiCond121) ?RET_LOW load(1, XDATA, add(CFA_XSP16, literal(-5)))
          CFI (cfiCond121) ?RET_HIGH load(1, XDATA, add(CFA_XSP16, literal(-4)))
          CFI (cfiCond121) ?BRET_EXT load(1, XDATA, add(CFA_XSP16, literal(-3)))
          CFI (cfiCond121) DPL0 load(1, XDATA, add(CFA_XSP16, literal(-2)))
          CFI (cfiCond121) DPH0 load(1, XDATA, add(CFA_XSP16, literal(-1)))
          CFI (cfiCond121) CFA_SP SP+-2
          CFI (cfiCond121) CFA_XSP16 add(XSP16, 63)
          CFI Block cfiCond122 Using cfiCommon0
          CFI (cfiCond122) Function zha_project_ProcessInReportCmd
          CFI (cfiCond122) Conditional ??CrossCallReturnLabel_96
          CFI (cfiCond122) R6 load(1, XDATA, add(CFA_XSP16, literal(-20)))
          CFI (cfiCond122) VB load(1, XDATA, add(CFA_XSP16, literal(-19)))
          CFI (cfiCond122) V0 load(1, XDATA, add(CFA_XSP16, literal(-18)))
          CFI (cfiCond122) V1 load(1, XDATA, add(CFA_XSP16, literal(-17)))
          CFI (cfiCond122) V2 load(1, XDATA, add(CFA_XSP16, literal(-16)))
          CFI (cfiCond122) V3 load(1, XDATA, add(CFA_XSP16, literal(-15)))
          CFI (cfiCond122) V4 load(1, XDATA, add(CFA_XSP16, literal(-14)))
          CFI (cfiCond122) V5 load(1, XDATA, add(CFA_XSP16, literal(-13)))
          CFI (cfiCond122) V6 load(1, XDATA, add(CFA_XSP16, literal(-12)))
          CFI (cfiCond122) V7 load(1, XDATA, add(CFA_XSP16, literal(-11)))
          CFI (cfiCond122) V8 load(1, XDATA, add(CFA_XSP16, literal(-10)))
          CFI (cfiCond122) V9 load(1, XDATA, add(CFA_XSP16, literal(-9)))
          CFI (cfiCond122) V10 load(1, XDATA, add(CFA_XSP16, literal(-8)))
          CFI (cfiCond122) V11 load(1, XDATA, add(CFA_XSP16, literal(-7)))
          CFI (cfiCond122) R7 load(1, XDATA, add(CFA_XSP16, literal(-6)))
          CFI (cfiCond122) ?RET_LOW load(1, XDATA, add(CFA_XSP16, literal(-5)))
          CFI (cfiCond122) ?RET_HIGH load(1, XDATA, add(CFA_XSP16, literal(-4)))
          CFI (cfiCond122) ?BRET_EXT load(1, XDATA, add(CFA_XSP16, literal(-3)))
          CFI (cfiCond122) DPL0 load(1, XDATA, add(CFA_XSP16, literal(-2)))
          CFI (cfiCond122) DPH0 load(1, XDATA, add(CFA_XSP16, literal(-1)))
          CFI (cfiCond122) CFA_SP SP+-2
          CFI (cfiCond122) CFA_XSP16 add(XSP16, 63)
          CFI Block cfiCond123 Using cfiCommon0
          CFI (cfiCond123) Function zha_project_ProcessInReportCmd
          CFI (cfiCond123) Conditional ??CrossCallReturnLabel_97
          CFI (cfiCond123) R6 load(1, XDATA, add(CFA_XSP16, literal(-20)))
          CFI (cfiCond123) VB load(1, XDATA, add(CFA_XSP16, literal(-19)))
          CFI (cfiCond123) V0 load(1, XDATA, add(CFA_XSP16, literal(-18)))
          CFI (cfiCond123) V1 load(1, XDATA, add(CFA_XSP16, literal(-17)))
          CFI (cfiCond123) V2 load(1, XDATA, add(CFA_XSP16, literal(-16)))
          CFI (cfiCond123) V3 load(1, XDATA, add(CFA_XSP16, literal(-15)))
          CFI (cfiCond123) V4 load(1, XDATA, add(CFA_XSP16, literal(-14)))
          CFI (cfiCond123) V5 load(1, XDATA, add(CFA_XSP16, literal(-13)))
          CFI (cfiCond123) V6 load(1, XDATA, add(CFA_XSP16, literal(-12)))
          CFI (cfiCond123) V7 load(1, XDATA, add(CFA_XSP16, literal(-11)))
          CFI (cfiCond123) V8 load(1, XDATA, add(CFA_XSP16, literal(-10)))
          CFI (cfiCond123) V9 load(1, XDATA, add(CFA_XSP16, literal(-9)))
          CFI (cfiCond123) V10 load(1, XDATA, add(CFA_XSP16, literal(-8)))
          CFI (cfiCond123) V11 load(1, XDATA, add(CFA_XSP16, literal(-7)))
          CFI (cfiCond123) R7 load(1, XDATA, add(CFA_XSP16, literal(-6)))
          CFI (cfiCond123) ?RET_LOW load(1, XDATA, add(CFA_XSP16, literal(-5)))
          CFI (cfiCond123) ?RET_HIGH load(1, XDATA, add(CFA_XSP16, literal(-4)))
          CFI (cfiCond123) ?BRET_EXT load(1, XDATA, add(CFA_XSP16, literal(-3)))
          CFI (cfiCond123) DPL0 load(1, XDATA, add(CFA_XSP16, literal(-2)))
          CFI (cfiCond123) DPH0 load(1, XDATA, add(CFA_XSP16, literal(-1)))
          CFI (cfiCond123) CFA_SP SP+-2
          CFI (cfiCond123) CFA_XSP16 add(XSP16, 63)
          CFI Block cfiCond124 Using cfiCommon0
          CFI (cfiCond124) Function zha_project_ProcessInReportCmd
          CFI (cfiCond124) Conditional ??CrossCallReturnLabel_98
          CFI (cfiCond124) R6 load(1, XDATA, add(CFA_XSP16, literal(-20)))
          CFI (cfiCond124) VB load(1, XDATA, add(CFA_XSP16, literal(-19)))
          CFI (cfiCond124) V0 load(1, XDATA, add(CFA_XSP16, literal(-18)))
          CFI (cfiCond124) V1 load(1, XDATA, add(CFA_XSP16, literal(-17)))
          CFI (cfiCond124) V2 load(1, XDATA, add(CFA_XSP16, literal(-16)))
          CFI (cfiCond124) V3 load(1, XDATA, add(CFA_XSP16, literal(-15)))
          CFI (cfiCond124) V4 load(1, XDATA, add(CFA_XSP16, literal(-14)))
          CFI (cfiCond124) V5 load(1, XDATA, add(CFA_XSP16, literal(-13)))
          CFI (cfiCond124) V6 load(1, XDATA, add(CFA_XSP16, literal(-12)))
          CFI (cfiCond124) V7 load(1, XDATA, add(CFA_XSP16, literal(-11)))
          CFI (cfiCond124) V8 load(1, XDATA, add(CFA_XSP16, literal(-10)))
          CFI (cfiCond124) V9 load(1, XDATA, add(CFA_XSP16, literal(-9)))
          CFI (cfiCond124) V10 load(1, XDATA, add(CFA_XSP16, literal(-8)))
          CFI (cfiCond124) V11 load(1, XDATA, add(CFA_XSP16, literal(-7)))
          CFI (cfiCond124) R7 load(1, XDATA, add(CFA_XSP16, literal(-6)))
          CFI (cfiCond124) ?RET_LOW load(1, XDATA, add(CFA_XSP16, literal(-5)))
          CFI (cfiCond124) ?RET_HIGH load(1, XDATA, add(CFA_XSP16, literal(-4)))
          CFI (cfiCond124) ?BRET_EXT load(1, XDATA, add(CFA_XSP16, literal(-3)))
          CFI (cfiCond124) DPL0 load(1, XDATA, add(CFA_XSP16, literal(-2)))
          CFI (cfiCond124) DPH0 load(1, XDATA, add(CFA_XSP16, literal(-1)))
          CFI (cfiCond124) CFA_SP SP+-2
          CFI (cfiCond124) CFA_XSP16 add(XSP16, 63)
          CFI Block cfiCond125 Using cfiCommon0
          CFI (cfiCond125) Function zha_project_ProcessInReportCmd
          CFI (cfiCond125) Conditional ??CrossCallReturnLabel_99
          CFI (cfiCond125) R6 load(1, XDATA, add(CFA_XSP16, literal(-20)))
          CFI (cfiCond125) VB load(1, XDATA, add(CFA_XSP16, literal(-19)))
          CFI (cfiCond125) V0 load(1, XDATA, add(CFA_XSP16, literal(-18)))
          CFI (cfiCond125) V1 load(1, XDATA, add(CFA_XSP16, literal(-17)))
          CFI (cfiCond125) V2 load(1, XDATA, add(CFA_XSP16, literal(-16)))
          CFI (cfiCond125) V3 load(1, XDATA, add(CFA_XSP16, literal(-15)))
          CFI (cfiCond125) V4 load(1, XDATA, add(CFA_XSP16, literal(-14)))
          CFI (cfiCond125) V5 load(1, XDATA, add(CFA_XSP16, literal(-13)))
          CFI (cfiCond125) V6 load(1, XDATA, add(CFA_XSP16, literal(-12)))
          CFI (cfiCond125) V7 load(1, XDATA, add(CFA_XSP16, literal(-11)))
          CFI (cfiCond125) V8 load(1, XDATA, add(CFA_XSP16, literal(-10)))
          CFI (cfiCond125) V9 load(1, XDATA, add(CFA_XSP16, literal(-9)))
          CFI (cfiCond125) V10 load(1, XDATA, add(CFA_XSP16, literal(-8)))
          CFI (cfiCond125) V11 load(1, XDATA, add(CFA_XSP16, literal(-7)))
          CFI (cfiCond125) R7 load(1, XDATA, add(CFA_XSP16, literal(-6)))
          CFI (cfiCond125) ?RET_LOW load(1, XDATA, add(CFA_XSP16, literal(-5)))
          CFI (cfiCond125) ?RET_HIGH load(1, XDATA, add(CFA_XSP16, literal(-4)))
          CFI (cfiCond125) ?BRET_EXT load(1, XDATA, add(CFA_XSP16, literal(-3)))
          CFI (cfiCond125) DPL0 load(1, XDATA, add(CFA_XSP16, literal(-2)))
          CFI (cfiCond125) DPH0 load(1, XDATA, add(CFA_XSP16, literal(-1)))
          CFI (cfiCond125) CFA_SP SP+-2
          CFI (cfiCond125) CFA_XSP16 add(XSP16, 63)
          CFI Block cfiCond126 Using cfiCommon0
          CFI (cfiCond126) Function zha_project_ProcessInReportCmd
          CFI (cfiCond126) Conditional ??CrossCallReturnLabel_100
          CFI (cfiCond126) R6 load(1, XDATA, add(CFA_XSP16, literal(-20)))
          CFI (cfiCond126) VB load(1, XDATA, add(CFA_XSP16, literal(-19)))
          CFI (cfiCond126) V0 load(1, XDATA, add(CFA_XSP16, literal(-18)))
          CFI (cfiCond126) V1 load(1, XDATA, add(CFA_XSP16, literal(-17)))
          CFI (cfiCond126) V2 load(1, XDATA, add(CFA_XSP16, literal(-16)))
          CFI (cfiCond126) V3 load(1, XDATA, add(CFA_XSP16, literal(-15)))
          CFI (cfiCond126) V4 load(1, XDATA, add(CFA_XSP16, literal(-14)))
          CFI (cfiCond126) V5 load(1, XDATA, add(CFA_XSP16, literal(-13)))
          CFI (cfiCond126) V6 load(1, XDATA, add(CFA_XSP16, literal(-12)))
          CFI (cfiCond126) V7 load(1, XDATA, add(CFA_XSP16, literal(-11)))
          CFI (cfiCond126) V8 load(1, XDATA, add(CFA_XSP16, literal(-10)))
          CFI (cfiCond126) V9 load(1, XDATA, add(CFA_XSP16, literal(-9)))
          CFI (cfiCond126) V10 load(1, XDATA, add(CFA_XSP16, literal(-8)))
          CFI (cfiCond126) V11 load(1, XDATA, add(CFA_XSP16, literal(-7)))
          CFI (cfiCond126) R7 load(1, XDATA, add(CFA_XSP16, literal(-6)))
          CFI (cfiCond126) ?RET_LOW load(1, XDATA, add(CFA_XSP16, literal(-5)))
          CFI (cfiCond126) ?RET_HIGH load(1, XDATA, add(CFA_XSP16, literal(-4)))
          CFI (cfiCond126) ?BRET_EXT load(1, XDATA, add(CFA_XSP16, literal(-3)))
          CFI (cfiCond126) DPL0 load(1, XDATA, add(CFA_XSP16, literal(-2)))
          CFI (cfiCond126) DPH0 load(1, XDATA, add(CFA_XSP16, literal(-1)))
          CFI (cfiCond126) CFA_SP SP+-2
          CFI (cfiCond126) CFA_XSP16 add(XSP16, 63)
          CFI Block cfiCond127 Using cfiCommon0
          CFI (cfiCond127) Function zha_project_ProcessInReportCmd
          CFI (cfiCond127) Conditional ??CrossCallReturnLabel_101
          CFI (cfiCond127) R6 load(1, XDATA, add(CFA_XSP16, literal(-20)))
          CFI (cfiCond127) VB load(1, XDATA, add(CFA_XSP16, literal(-19)))
          CFI (cfiCond127) V0 load(1, XDATA, add(CFA_XSP16, literal(-18)))
          CFI (cfiCond127) V1 load(1, XDATA, add(CFA_XSP16, literal(-17)))
          CFI (cfiCond127) V2 load(1, XDATA, add(CFA_XSP16, literal(-16)))
          CFI (cfiCond127) V3 load(1, XDATA, add(CFA_XSP16, literal(-15)))
          CFI (cfiCond127) V4 load(1, XDATA, add(CFA_XSP16, literal(-14)))
          CFI (cfiCond127) V5 load(1, XDATA, add(CFA_XSP16, literal(-13)))
          CFI (cfiCond127) V6 load(1, XDATA, add(CFA_XSP16, literal(-12)))
          CFI (cfiCond127) V7 load(1, XDATA, add(CFA_XSP16, literal(-11)))
          CFI (cfiCond127) V8 load(1, XDATA, add(CFA_XSP16, literal(-10)))
          CFI (cfiCond127) V9 load(1, XDATA, add(CFA_XSP16, literal(-9)))
          CFI (cfiCond127) V10 load(1, XDATA, add(CFA_XSP16, literal(-8)))
          CFI (cfiCond127) V11 load(1, XDATA, add(CFA_XSP16, literal(-7)))
          CFI (cfiCond127) R7 load(1, XDATA, add(CFA_XSP16, literal(-6)))
          CFI (cfiCond127) ?RET_LOW load(1, XDATA, add(CFA_XSP16, literal(-5)))
          CFI (cfiCond127) ?RET_HIGH load(1, XDATA, add(CFA_XSP16, literal(-4)))
          CFI (cfiCond127) ?BRET_EXT load(1, XDATA, add(CFA_XSP16, literal(-3)))
          CFI (cfiCond127) DPL0 load(1, XDATA, add(CFA_XSP16, literal(-2)))
          CFI (cfiCond127) DPH0 load(1, XDATA, add(CFA_XSP16, literal(-1)))
          CFI (cfiCond127) CFA_SP SP+-2
          CFI (cfiCond127) CFA_XSP16 add(XSP16, 63)
          CFI Block cfiCond128 Using cfiCommon0
          CFI (cfiCond128) Function zha_project_ProcessInReportCmd
          CFI (cfiCond128) Conditional ??CrossCallReturnLabel_102
          CFI (cfiCond128) R6 load(1, XDATA, add(CFA_XSP16, literal(-20)))
          CFI (cfiCond128) VB load(1, XDATA, add(CFA_XSP16, literal(-19)))
          CFI (cfiCond128) V0 load(1, XDATA, add(CFA_XSP16, literal(-18)))
          CFI (cfiCond128) V1 load(1, XDATA, add(CFA_XSP16, literal(-17)))
          CFI (cfiCond128) V2 load(1, XDATA, add(CFA_XSP16, literal(-16)))
          CFI (cfiCond128) V3 load(1, XDATA, add(CFA_XSP16, literal(-15)))
          CFI (cfiCond128) V4 load(1, XDATA, add(CFA_XSP16, literal(-14)))
          CFI (cfiCond128) V5 load(1, XDATA, add(CFA_XSP16, literal(-13)))
          CFI (cfiCond128) V6 load(1, XDATA, add(CFA_XSP16, literal(-12)))
          CFI (cfiCond128) V7 load(1, XDATA, add(CFA_XSP16, literal(-11)))
          CFI (cfiCond128) V8 load(1, XDATA, add(CFA_XSP16, literal(-10)))
          CFI (cfiCond128) V9 load(1, XDATA, add(CFA_XSP16, literal(-9)))
          CFI (cfiCond128) V10 load(1, XDATA, add(CFA_XSP16, literal(-8)))
          CFI (cfiCond128) V11 load(1, XDATA, add(CFA_XSP16, literal(-7)))
          CFI (cfiCond128) R7 load(1, XDATA, add(CFA_XSP16, literal(-6)))
          CFI (cfiCond128) ?RET_LOW load(1, XDATA, add(CFA_XSP16, literal(-5)))
          CFI (cfiCond128) ?RET_HIGH load(1, XDATA, add(CFA_XSP16, literal(-4)))
          CFI (cfiCond128) ?BRET_EXT load(1, XDATA, add(CFA_XSP16, literal(-3)))
          CFI (cfiCond128) DPL0 load(1, XDATA, add(CFA_XSP16, literal(-2)))
          CFI (cfiCond128) DPH0 load(1, XDATA, add(CFA_XSP16, literal(-1)))
          CFI (cfiCond128) CFA_SP SP+-2
          CFI (cfiCond128) CFA_XSP16 add(XSP16, 63)
          CFI Block cfiPicker129 Using cfiCommon1
          CFI (cfiPicker129) NoFunction
          CFI (cfiPicker129) Picker
        LCALL   ?Subroutine32 & 0xFFFF
??CrossCallReturnLabel_104:
        RET
          CFI EndBlock cfiCond120
          CFI EndBlock cfiCond121
          CFI EndBlock cfiCond122
          CFI EndBlock cfiCond123
          CFI EndBlock cfiCond124
          CFI EndBlock cfiCond125
          CFI EndBlock cfiCond126
          CFI EndBlock cfiCond127
          CFI EndBlock cfiCond128
          CFI EndBlock cfiPicker129

        RSEG BANKED_CODE:CODE:NOROOT(0)
?Subroutine32:
          CFI Block cfiCond130 Using cfiCommon0
          CFI Function zha_project_ProcessInReportCmd
          CFI Conditional ??CrossCallReturnLabel_104, ??CrossCallReturnLabel_95
          CFI R6 load(1, XDATA, add(CFA_XSP16, literal(-20)))
          CFI VB load(1, XDATA, add(CFA_XSP16, literal(-19)))
          CFI V0 load(1, XDATA, add(CFA_XSP16, literal(-18)))
          CFI V1 load(1, XDATA, add(CFA_XSP16, literal(-17)))
          CFI V2 load(1, XDATA, add(CFA_XSP16, literal(-16)))
          CFI V3 load(1, XDATA, add(CFA_XSP16, literal(-15)))
          CFI V4 load(1, XDATA, add(CFA_XSP16, literal(-14)))
          CFI V5 load(1, XDATA, add(CFA_XSP16, literal(-13)))
          CFI V6 load(1, XDATA, add(CFA_XSP16, literal(-12)))
          CFI V7 load(1, XDATA, add(CFA_XSP16, literal(-11)))
          CFI V8 load(1, XDATA, add(CFA_XSP16, literal(-10)))
          CFI V9 load(1, XDATA, add(CFA_XSP16, literal(-9)))
          CFI V10 load(1, XDATA, add(CFA_XSP16, literal(-8)))
          CFI V11 load(1, XDATA, add(CFA_XSP16, literal(-7)))
          CFI R7 load(1, XDATA, add(CFA_XSP16, literal(-6)))
          CFI ?RET_LOW load(1, XDATA, add(CFA_XSP16, literal(-5)))
          CFI ?RET_HIGH load(1, XDATA, add(CFA_XSP16, literal(-4)))
          CFI ?BRET_EXT load(1, XDATA, add(CFA_XSP16, literal(-3)))
          CFI DPL0 load(1, XDATA, add(CFA_XSP16, literal(-2)))
          CFI DPH0 load(1, XDATA, add(CFA_XSP16, literal(-1)))
          CFI CFA_SP SP+-4
          CFI CFA_XSP16 add(XSP16, 63)
          CFI Block cfiCond131 Using cfiCommon0
          CFI (cfiCond131) Function zha_project_ProcessInReportCmd
          CFI (cfiCond131) Conditional ??CrossCallReturnLabel_104, ??CrossCallReturnLabel_96
          CFI (cfiCond131) R6 load(1, XDATA, add(CFA_XSP16, literal(-20)))
          CFI (cfiCond131) VB load(1, XDATA, add(CFA_XSP16, literal(-19)))
          CFI (cfiCond131) V0 load(1, XDATA, add(CFA_XSP16, literal(-18)))
          CFI (cfiCond131) V1 load(1, XDATA, add(CFA_XSP16, literal(-17)))
          CFI (cfiCond131) V2 load(1, XDATA, add(CFA_XSP16, literal(-16)))
          CFI (cfiCond131) V3 load(1, XDATA, add(CFA_XSP16, literal(-15)))
          CFI (cfiCond131) V4 load(1, XDATA, add(CFA_XSP16, literal(-14)))
          CFI (cfiCond131) V5 load(1, XDATA, add(CFA_XSP16, literal(-13)))
          CFI (cfiCond131) V6 load(1, XDATA, add(CFA_XSP16, literal(-12)))
          CFI (cfiCond131) V7 load(1, XDATA, add(CFA_XSP16, literal(-11)))
          CFI (cfiCond131) V8 load(1, XDATA, add(CFA_XSP16, literal(-10)))
          CFI (cfiCond131) V9 load(1, XDATA, add(CFA_XSP16, literal(-9)))
          CFI (cfiCond131) V10 load(1, XDATA, add(CFA_XSP16, literal(-8)))
          CFI (cfiCond131) V11 load(1, XDATA, add(CFA_XSP16, literal(-7)))
          CFI (cfiCond131) R7 load(1, XDATA, add(CFA_XSP16, literal(-6)))
          CFI (cfiCond131) ?RET_LOW load(1, XDATA, add(CFA_XSP16, literal(-5)))
          CFI (cfiCond131) ?RET_HIGH load(1, XDATA, add(CFA_XSP16, literal(-4)))
          CFI (cfiCond131) ?BRET_EXT load(1, XDATA, add(CFA_XSP16, literal(-3)))
          CFI (cfiCond131) DPL0 load(1, XDATA, add(CFA_XSP16, literal(-2)))
          CFI (cfiCond131) DPH0 load(1, XDATA, add(CFA_XSP16, literal(-1)))
          CFI (cfiCond131) CFA_SP SP+-4
          CFI (cfiCond131) CFA_XSP16 add(XSP16, 63)
          CFI Block cfiCond132 Using cfiCommon0
          CFI (cfiCond132) Function zha_project_ProcessInReportCmd
          CFI (cfiCond132) Conditional ??CrossCallReturnLabel_104, ??CrossCallReturnLabel_97
          CFI (cfiCond132) R6 load(1, XDATA, add(CFA_XSP16, literal(-20)))
          CFI (cfiCond132) VB load(1, XDATA, add(CFA_XSP16, literal(-19)))
          CFI (cfiCond132) V0 load(1, XDATA, add(CFA_XSP16, literal(-18)))
          CFI (cfiCond132) V1 load(1, XDATA, add(CFA_XSP16, literal(-17)))
          CFI (cfiCond132) V2 load(1, XDATA, add(CFA_XSP16, literal(-16)))
          CFI (cfiCond132) V3 load(1, XDATA, add(CFA_XSP16, literal(-15)))
          CFI (cfiCond132) V4 load(1, XDATA, add(CFA_XSP16, literal(-14)))
          CFI (cfiCond132) V5 load(1, XDATA, add(CFA_XSP16, literal(-13)))
          CFI (cfiCond132) V6 load(1, XDATA, add(CFA_XSP16, literal(-12)))
          CFI (cfiCond132) V7 load(1, XDATA, add(CFA_XSP16, literal(-11)))
          CFI (cfiCond132) V8 load(1, XDATA, add(CFA_XSP16, literal(-10)))
          CFI (cfiCond132) V9 load(1, XDATA, add(CFA_XSP16, literal(-9)))
          CFI (cfiCond132) V10 load(1, XDATA, add(CFA_XSP16, literal(-8)))
          CFI (cfiCond132) V11 load(1, XDATA, add(CFA_XSP16, literal(-7)))
          CFI (cfiCond132) R7 load(1, XDATA, add(CFA_XSP16, literal(-6)))
          CFI (cfiCond132) ?RET_LOW load(1, XDATA, add(CFA_XSP16, literal(-5)))
          CFI (cfiCond132) ?RET_HIGH load(1, XDATA, add(CFA_XSP16, literal(-4)))
          CFI (cfiCond132) ?BRET_EXT load(1, XDATA, add(CFA_XSP16, literal(-3)))
          CFI (cfiCond132) DPL0 load(1, XDATA, add(CFA_XSP16, literal(-2)))
          CFI (cfiCond132) DPH0 load(1, XDATA, add(CFA_XSP16, literal(-1)))
          CFI (cfiCond132) CFA_SP SP+-4
          CFI (cfiCond132) CFA_XSP16 add(XSP16, 63)
          CFI Block cfiCond133 Using cfiCommon0
          CFI (cfiCond133) Function zha_project_ProcessInReportCmd
          CFI (cfiCond133) Conditional ??CrossCallReturnLabel_104, ??CrossCallReturnLabel_98
          CFI (cfiCond133) R6 load(1, XDATA, add(CFA_XSP16, literal(-20)))
          CFI (cfiCond133) VB load(1, XDATA, add(CFA_XSP16, literal(-19)))
          CFI (cfiCond133) V0 load(1, XDATA, add(CFA_XSP16, literal(-18)))
          CFI (cfiCond133) V1 load(1, XDATA, add(CFA_XSP16, literal(-17)))
          CFI (cfiCond133) V2 load(1, XDATA, add(CFA_XSP16, literal(-16)))
          CFI (cfiCond133) V3 load(1, XDATA, add(CFA_XSP16, literal(-15)))
          CFI (cfiCond133) V4 load(1, XDATA, add(CFA_XSP16, literal(-14)))
          CFI (cfiCond133) V5 load(1, XDATA, add(CFA_XSP16, literal(-13)))
          CFI (cfiCond133) V6 load(1, XDATA, add(CFA_XSP16, literal(-12)))
          CFI (cfiCond133) V7 load(1, XDATA, add(CFA_XSP16, literal(-11)))
          CFI (cfiCond133) V8 load(1, XDATA, add(CFA_XSP16, literal(-10)))
          CFI (cfiCond133) V9 load(1, XDATA, add(CFA_XSP16, literal(-9)))
          CFI (cfiCond133) V10 load(1, XDATA, add(CFA_XSP16, literal(-8)))
          CFI (cfiCond133) V11 load(1, XDATA, add(CFA_XSP16, literal(-7)))
          CFI (cfiCond133) R7 load(1, XDATA, add(CFA_XSP16, literal(-6)))
          CFI (cfiCond133) ?RET_LOW load(1, XDATA, add(CFA_XSP16, literal(-5)))
          CFI (cfiCond133) ?RET_HIGH load(1, XDATA, add(CFA_XSP16, literal(-4)))
          CFI (cfiCond133) ?BRET_EXT load(1, XDATA, add(CFA_XSP16, literal(-3)))
          CFI (cfiCond133) DPL0 load(1, XDATA, add(CFA_XSP16, literal(-2)))
          CFI (cfiCond133) DPH0 load(1, XDATA, add(CFA_XSP16, literal(-1)))
          CFI (cfiCond133) CFA_SP SP+-4
          CFI (cfiCond133) CFA_XSP16 add(XSP16, 63)
          CFI Block cfiCond134 Using cfiCommon0
          CFI (cfiCond134) Function zha_project_ProcessInReportCmd
          CFI (cfiCond134) Conditional ??CrossCallReturnLabel_104, ??CrossCallReturnLabel_99
          CFI (cfiCond134) R6 load(1, XDATA, add(CFA_XSP16, literal(-20)))
          CFI (cfiCond134) VB load(1, XDATA, add(CFA_XSP16, literal(-19)))
          CFI (cfiCond134) V0 load(1, XDATA, add(CFA_XSP16, literal(-18)))
          CFI (cfiCond134) V1 load(1, XDATA, add(CFA_XSP16, literal(-17)))
          CFI (cfiCond134) V2 load(1, XDATA, add(CFA_XSP16, literal(-16)))
          CFI (cfiCond134) V3 load(1, XDATA, add(CFA_XSP16, literal(-15)))
          CFI (cfiCond134) V4 load(1, XDATA, add(CFA_XSP16, literal(-14)))
          CFI (cfiCond134) V5 load(1, XDATA, add(CFA_XSP16, literal(-13)))
          CFI (cfiCond134) V6 load(1, XDATA, add(CFA_XSP16, literal(-12)))
          CFI (cfiCond134) V7 load(1, XDATA, add(CFA_XSP16, literal(-11)))
          CFI (cfiCond134) V8 load(1, XDATA, add(CFA_XSP16, literal(-10)))
          CFI (cfiCond134) V9 load(1, XDATA, add(CFA_XSP16, literal(-9)))
          CFI (cfiCond134) V10 load(1, XDATA, add(CFA_XSP16, literal(-8)))
          CFI (cfiCond134) V11 load(1, XDATA, add(CFA_XSP16, literal(-7)))
          CFI (cfiCond134) R7 load(1, XDATA, add(CFA_XSP16, literal(-6)))
          CFI (cfiCond134) ?RET_LOW load(1, XDATA, add(CFA_XSP16, literal(-5)))
          CFI (cfiCond134) ?RET_HIGH load(1, XDATA, add(CFA_XSP16, literal(-4)))
          CFI (cfiCond134) ?BRET_EXT load(1, XDATA, add(CFA_XSP16, literal(-3)))
          CFI (cfiCond134) DPL0 load(1, XDATA, add(CFA_XSP16, literal(-2)))
          CFI (cfiCond134) DPH0 load(1, XDATA, add(CFA_XSP16, literal(-1)))
          CFI (cfiCond134) CFA_SP SP+-4
          CFI (cfiCond134) CFA_XSP16 add(XSP16, 63)
          CFI Block cfiCond135 Using cfiCommon0
          CFI (cfiCond135) Function zha_project_ProcessInReportCmd
          CFI (cfiCond135) Conditional ??CrossCallReturnLabel_104, ??CrossCallReturnLabel_100
          CFI (cfiCond135) R6 load(1, XDATA, add(CFA_XSP16, literal(-20)))
          CFI (cfiCond135) VB load(1, XDATA, add(CFA_XSP16, literal(-19)))
          CFI (cfiCond135) V0 load(1, XDATA, add(CFA_XSP16, literal(-18)))
          CFI (cfiCond135) V1 load(1, XDATA, add(CFA_XSP16, literal(-17)))
          CFI (cfiCond135) V2 load(1, XDATA, add(CFA_XSP16, literal(-16)))
          CFI (cfiCond135) V3 load(1, XDATA, add(CFA_XSP16, literal(-15)))
          CFI (cfiCond135) V4 load(1, XDATA, add(CFA_XSP16, literal(-14)))
          CFI (cfiCond135) V5 load(1, XDATA, add(CFA_XSP16, literal(-13)))
          CFI (cfiCond135) V6 load(1, XDATA, add(CFA_XSP16, literal(-12)))
          CFI (cfiCond135) V7 load(1, XDATA, add(CFA_XSP16, literal(-11)))
          CFI (cfiCond135) V8 load(1, XDATA, add(CFA_XSP16, literal(-10)))
          CFI (cfiCond135) V9 load(1, XDATA, add(CFA_XSP16, literal(-9)))
          CFI (cfiCond135) V10 load(1, XDATA, add(CFA_XSP16, literal(-8)))
          CFI (cfiCond135) V11 load(1, XDATA, add(CFA_XSP16, literal(-7)))
          CFI (cfiCond135) R7 load(1, XDATA, add(CFA_XSP16, literal(-6)))
          CFI (cfiCond135) ?RET_LOW load(1, XDATA, add(CFA_XSP16, literal(-5)))
          CFI (cfiCond135) ?RET_HIGH load(1, XDATA, add(CFA_XSP16, literal(-4)))
          CFI (cfiCond135) ?BRET_EXT load(1, XDATA, add(CFA_XSP16, literal(-3)))
          CFI (cfiCond135) DPL0 load(1, XDATA, add(CFA_XSP16, literal(-2)))
          CFI (cfiCond135) DPH0 load(1, XDATA, add(CFA_XSP16, literal(-1)))
          CFI (cfiCond135) CFA_SP SP+-4
          CFI (cfiCond135) CFA_XSP16 add(XSP16, 63)
          CFI Block cfiCond136 Using cfiCommon0
          CFI (cfiCond136) Function zha_project_ProcessInReportCmd
          CFI (cfiCond136) Conditional ??CrossCallReturnLabel_104, ??CrossCallReturnLabel_101
          CFI (cfiCond136) R6 load(1, XDATA, add(CFA_XSP16, literal(-20)))
          CFI (cfiCond136) VB load(1, XDATA, add(CFA_XSP16, literal(-19)))
          CFI (cfiCond136) V0 load(1, XDATA, add(CFA_XSP16, literal(-18)))
          CFI (cfiCond136) V1 load(1, XDATA, add(CFA_XSP16, literal(-17)))
          CFI (cfiCond136) V2 load(1, XDATA, add(CFA_XSP16, literal(-16)))
          CFI (cfiCond136) V3 load(1, XDATA, add(CFA_XSP16, literal(-15)))
          CFI (cfiCond136) V4 load(1, XDATA, add(CFA_XSP16, literal(-14)))
          CFI (cfiCond136) V5 load(1, XDATA, add(CFA_XSP16, literal(-13)))
          CFI (cfiCond136) V6 load(1, XDATA, add(CFA_XSP16, literal(-12)))
          CFI (cfiCond136) V7 load(1, XDATA, add(CFA_XSP16, literal(-11)))
          CFI (cfiCond136) V8 load(1, XDATA, add(CFA_XSP16, literal(-10)))
          CFI (cfiCond136) V9 load(1, XDATA, add(CFA_XSP16, literal(-9)))
          CFI (cfiCond136) V10 load(1, XDATA, add(CFA_XSP16, literal(-8)))
          CFI (cfiCond136) V11 load(1, XDATA, add(CFA_XSP16, literal(-7)))
          CFI (cfiCond136) R7 load(1, XDATA, add(CFA_XSP16, literal(-6)))
          CFI (cfiCond136) ?RET_LOW load(1, XDATA, add(CFA_XSP16, literal(-5)))
          CFI (cfiCond136) ?RET_HIGH load(1, XDATA, add(CFA_XSP16, literal(-4)))
          CFI (cfiCond136) ?BRET_EXT load(1, XDATA, add(CFA_XSP16, literal(-3)))
          CFI (cfiCond136) DPL0 load(1, XDATA, add(CFA_XSP16, literal(-2)))
          CFI (cfiCond136) DPH0 load(1, XDATA, add(CFA_XSP16, literal(-1)))
          CFI (cfiCond136) CFA_SP SP+-4
          CFI (cfiCond136) CFA_XSP16 add(XSP16, 63)
          CFI Block cfiCond137 Using cfiCommon0
          CFI (cfiCond137) Function zha_project_ProcessInReportCmd
          CFI (cfiCond137) Conditional ??CrossCallReturnLabel_104, ??CrossCallReturnLabel_102
          CFI (cfiCond137) R6 load(1, XDATA, add(CFA_XSP16, literal(-20)))
          CFI (cfiCond137) VB load(1, XDATA, add(CFA_XSP16, literal(-19)))
          CFI (cfiCond137) V0 load(1, XDATA, add(CFA_XSP16, literal(-18)))
          CFI (cfiCond137) V1 load(1, XDATA, add(CFA_XSP16, literal(-17)))
          CFI (cfiCond137) V2 load(1, XDATA, add(CFA_XSP16, literal(-16)))
          CFI (cfiCond137) V3 load(1, XDATA, add(CFA_XSP16, literal(-15)))
          CFI (cfiCond137) V4 load(1, XDATA, add(CFA_XSP16, literal(-14)))
          CFI (cfiCond137) V5 load(1, XDATA, add(CFA_XSP16, literal(-13)))
          CFI (cfiCond137) V6 load(1, XDATA, add(CFA_XSP16, literal(-12)))
          CFI (cfiCond137) V7 load(1, XDATA, add(CFA_XSP16, literal(-11)))
          CFI (cfiCond137) V8 load(1, XDATA, add(CFA_XSP16, literal(-10)))
          CFI (cfiCond137) V9 load(1, XDATA, add(CFA_XSP16, literal(-9)))
          CFI (cfiCond137) V10 load(1, XDATA, add(CFA_XSP16, literal(-8)))
          CFI (cfiCond137) V11 load(1, XDATA, add(CFA_XSP16, literal(-7)))
          CFI (cfiCond137) R7 load(1, XDATA, add(CFA_XSP16, literal(-6)))
          CFI (cfiCond137) ?RET_LOW load(1, XDATA, add(CFA_XSP16, literal(-5)))
          CFI (cfiCond137) ?RET_HIGH load(1, XDATA, add(CFA_XSP16, literal(-4)))
          CFI (cfiCond137) ?BRET_EXT load(1, XDATA, add(CFA_XSP16, literal(-3)))
          CFI (cfiCond137) DPL0 load(1, XDATA, add(CFA_XSP16, literal(-2)))
          CFI (cfiCond137) DPH0 load(1, XDATA, add(CFA_XSP16, literal(-1)))
          CFI (cfiCond137) CFA_SP SP+-4
          CFI (cfiCond137) CFA_XSP16 add(XSP16, 63)
          CFI Block cfiCond138 Using cfiCommon0
          CFI (cfiCond138) Function zha_project_ProcessInReadRspCmd
          CFI (cfiCond138) Conditional ??CrossCallReturnLabel_104, ??CrossCallReturnLabel_94
          CFI (cfiCond138) R6 load(1, XDATA, add(CFA_XSP16, literal(-20)))
          CFI (cfiCond138) VB load(1, XDATA, add(CFA_XSP16, literal(-19)))
          CFI (cfiCond138) V0 load(1, XDATA, add(CFA_XSP16, literal(-18)))
          CFI (cfiCond138) V1 load(1, XDATA, add(CFA_XSP16, literal(-17)))
          CFI (cfiCond138) V2 load(1, XDATA, add(CFA_XSP16, literal(-16)))
          CFI (cfiCond138) V3 load(1, XDATA, add(CFA_XSP16, literal(-15)))
          CFI (cfiCond138) V4 load(1, XDATA, add(CFA_XSP16, literal(-14)))
          CFI (cfiCond138) V5 load(1, XDATA, add(CFA_XSP16, literal(-13)))
          CFI (cfiCond138) V6 load(1, XDATA, add(CFA_XSP16, literal(-12)))
          CFI (cfiCond138) V7 load(1, XDATA, add(CFA_XSP16, literal(-11)))
          CFI (cfiCond138) V8 load(1, XDATA, add(CFA_XSP16, literal(-10)))
          CFI (cfiCond138) V9 load(1, XDATA, add(CFA_XSP16, literal(-9)))
          CFI (cfiCond138) V10 load(1, XDATA, add(CFA_XSP16, literal(-8)))
          CFI (cfiCond138) V11 load(1, XDATA, add(CFA_XSP16, literal(-7)))
          CFI (cfiCond138) R7 load(1, XDATA, add(CFA_XSP16, literal(-6)))
          CFI (cfiCond138) ?RET_LOW load(1, XDATA, add(CFA_XSP16, literal(-5)))
          CFI (cfiCond138) ?RET_HIGH load(1, XDATA, add(CFA_XSP16, literal(-4)))
          CFI (cfiCond138) ?BRET_EXT load(1, XDATA, add(CFA_XSP16, literal(-3)))
          CFI (cfiCond138) DPL0 load(1, XDATA, add(CFA_XSP16, literal(-2)))
          CFI (cfiCond138) DPH0 load(1, XDATA, add(CFA_XSP16, literal(-1)))
          CFI (cfiCond138) CFA_SP SP+-4
          CFI (cfiCond138) CFA_XSP16 add(XSP16, 63)
          CFI Block cfiCond139 Using cfiCommon0
          CFI (cfiCond139) Function zha_project_ProcessInReadRspCmd
          CFI (cfiCond139) Conditional ??CrossCallReturnLabel_103, ??CrossCallReturnLabel_47
          CFI (cfiCond139) R6 load(1, XDATA, add(CFA_XSP16, literal(-20)))
          CFI (cfiCond139) VB load(1, XDATA, add(CFA_XSP16, literal(-19)))
          CFI (cfiCond139) V0 load(1, XDATA, add(CFA_XSP16, literal(-18)))
          CFI (cfiCond139) V1 load(1, XDATA, add(CFA_XSP16, literal(-17)))
          CFI (cfiCond139) V2 load(1, XDATA, add(CFA_XSP16, literal(-16)))
          CFI (cfiCond139) V3 load(1, XDATA, add(CFA_XSP16, literal(-15)))
          CFI (cfiCond139) V4 load(1, XDATA, add(CFA_XSP16, literal(-14)))
          CFI (cfiCond139) V5 load(1, XDATA, add(CFA_XSP16, literal(-13)))
          CFI (cfiCond139) V6 load(1, XDATA, add(CFA_XSP16, literal(-12)))
          CFI (cfiCond139) V7 load(1, XDATA, add(CFA_XSP16, literal(-11)))
          CFI (cfiCond139) V8 load(1, XDATA, add(CFA_XSP16, literal(-10)))
          CFI (cfiCond139) V9 load(1, XDATA, add(CFA_XSP16, literal(-9)))
          CFI (cfiCond139) V10 load(1, XDATA, add(CFA_XSP16, literal(-8)))
          CFI (cfiCond139) V11 load(1, XDATA, add(CFA_XSP16, literal(-7)))
          CFI (cfiCond139) R7 load(1, XDATA, add(CFA_XSP16, literal(-6)))
          CFI (cfiCond139) ?RET_LOW load(1, XDATA, add(CFA_XSP16, literal(-5)))
          CFI (cfiCond139) ?RET_HIGH load(1, XDATA, add(CFA_XSP16, literal(-4)))
          CFI (cfiCond139) ?BRET_EXT load(1, XDATA, add(CFA_XSP16, literal(-3)))
          CFI (cfiCond139) DPL0 load(1, XDATA, add(CFA_XSP16, literal(-2)))
          CFI (cfiCond139) DPH0 load(1, XDATA, add(CFA_XSP16, literal(-1)))
          CFI (cfiCond139) CFA_SP SP+-4
          CFI (cfiCond139) CFA_XSP16 add(XSP16, 63)
          CFI Block cfiCond140 Using cfiCommon0
          CFI (cfiCond140) Function zha_project_ProcessInReportCmd
          CFI (cfiCond140) Conditional ??CrossCallReturnLabel_103, ??CrossCallReturnLabel_48
          CFI (cfiCond140) R6 load(1, XDATA, add(CFA_XSP16, literal(-20)))
          CFI (cfiCond140) VB load(1, XDATA, add(CFA_XSP16, literal(-19)))
          CFI (cfiCond140) V0 load(1, XDATA, add(CFA_XSP16, literal(-18)))
          CFI (cfiCond140) V1 load(1, XDATA, add(CFA_XSP16, literal(-17)))
          CFI (cfiCond140) V2 load(1, XDATA, add(CFA_XSP16, literal(-16)))
          CFI (cfiCond140) V3 load(1, XDATA, add(CFA_XSP16, literal(-15)))
          CFI (cfiCond140) V4 load(1, XDATA, add(CFA_XSP16, literal(-14)))
          CFI (cfiCond140) V5 load(1, XDATA, add(CFA_XSP16, literal(-13)))
          CFI (cfiCond140) V6 load(1, XDATA, add(CFA_XSP16, literal(-12)))
          CFI (cfiCond140) V7 load(1, XDATA, add(CFA_XSP16, literal(-11)))
          CFI (cfiCond140) V8 load(1, XDATA, add(CFA_XSP16, literal(-10)))
          CFI (cfiCond140) V9 load(1, XDATA, add(CFA_XSP16, literal(-9)))
          CFI (cfiCond140) V10 load(1, XDATA, add(CFA_XSP16, literal(-8)))
          CFI (cfiCond140) V11 load(1, XDATA, add(CFA_XSP16, literal(-7)))
          CFI (cfiCond140) R7 load(1, XDATA, add(CFA_XSP16, literal(-6)))
          CFI (cfiCond140) ?RET_LOW load(1, XDATA, add(CFA_XSP16, literal(-5)))
          CFI (cfiCond140) ?RET_HIGH load(1, XDATA, add(CFA_XSP16, literal(-4)))
          CFI (cfiCond140) ?BRET_EXT load(1, XDATA, add(CFA_XSP16, literal(-3)))
          CFI (cfiCond140) DPL0 load(1, XDATA, add(CFA_XSP16, literal(-2)))
          CFI (cfiCond140) DPH0 load(1, XDATA, add(CFA_XSP16, literal(-1)))
          CFI (cfiCond140) CFA_SP SP+-4
          CFI (cfiCond140) CFA_XSP16 add(XSP16, 63)
          CFI Block cfiPicker141 Using cfiCommon1
          CFI (cfiPicker141) NoFunction
          CFI (cfiPicker141) Picker
        LCALL   ?Subroutine33 & 0xFFFF
??CrossCallReturnLabel_106:
        RET
          CFI EndBlock cfiCond130
          CFI EndBlock cfiCond131
          CFI EndBlock cfiCond132
          CFI EndBlock cfiCond133
          CFI EndBlock cfiCond134
          CFI EndBlock cfiCond135
          CFI EndBlock cfiCond136
          CFI EndBlock cfiCond137
          CFI EndBlock cfiCond138
          CFI EndBlock cfiCond139
          CFI EndBlock cfiCond140
          CFI EndBlock cfiPicker141

        RSEG BANKED_CODE:CODE:NOROOT(0)
?Subroutine33:
          CFI Block cfiCond142 Using cfiCommon0
          CFI Function zha_project_ProcessInReadRspCmd
          CFI Conditional ??CrossCallReturnLabel_105, ??CrossCallReturnLabel_59, ??CrossCallReturnLabel_77
          CFI R6 load(1, XDATA, add(CFA_XSP16, literal(-20)))
          CFI VB load(1, XDATA, add(CFA_XSP16, literal(-19)))
          CFI V0 load(1, XDATA, add(CFA_XSP16, literal(-18)))
          CFI V1 load(1, XDATA, add(CFA_XSP16, literal(-17)))
          CFI V2 load(1, XDATA, add(CFA_XSP16, literal(-16)))
          CFI V3 load(1, XDATA, add(CFA_XSP16, literal(-15)))
          CFI V4 load(1, XDATA, add(CFA_XSP16, literal(-14)))
          CFI V5 load(1, XDATA, add(CFA_XSP16, literal(-13)))
          CFI V6 load(1, XDATA, add(CFA_XSP16, literal(-12)))
          CFI V7 load(1, XDATA, add(CFA_XSP16, literal(-11)))
          CFI V8 load(1, XDATA, add(CFA_XSP16, literal(-10)))
          CFI V9 load(1, XDATA, add(CFA_XSP16, literal(-9)))
          CFI V10 load(1, XDATA, add(CFA_XSP16, literal(-8)))
          CFI V11 load(1, XDATA, add(CFA_XSP16, literal(-7)))
          CFI R7 load(1, XDATA, add(CFA_XSP16, literal(-6)))
          CFI ?RET_LOW load(1, XDATA, add(CFA_XSP16, literal(-5)))
          CFI ?RET_HIGH load(1, XDATA, add(CFA_XSP16, literal(-4)))
          CFI ?BRET_EXT load(1, XDATA, add(CFA_XSP16, literal(-3)))
          CFI DPL0 load(1, XDATA, add(CFA_XSP16, literal(-2)))
          CFI DPH0 load(1, XDATA, add(CFA_XSP16, literal(-1)))
          CFI CFA_SP SP+-6
          CFI CFA_XSP16 add(XSP16, 63)
          CFI Block cfiCond143 Using cfiCommon0
          CFI (cfiCond143) Function zha_project_ProcessInReadRspCmd
          CFI (cfiCond143) Conditional ??CrossCallReturnLabel_105, ??CrossCallReturnLabel_59, ??CrossCallReturnLabel_78
          CFI (cfiCond143) R6 load(1, XDATA, add(CFA_XSP16, literal(-20)))
          CFI (cfiCond143) VB load(1, XDATA, add(CFA_XSP16, literal(-19)))
          CFI (cfiCond143) V0 load(1, XDATA, add(CFA_XSP16, literal(-18)))
          CFI (cfiCond143) V1 load(1, XDATA, add(CFA_XSP16, literal(-17)))
          CFI (cfiCond143) V2 load(1, XDATA, add(CFA_XSP16, literal(-16)))
          CFI (cfiCond143) V3 load(1, XDATA, add(CFA_XSP16, literal(-15)))
          CFI (cfiCond143) V4 load(1, XDATA, add(CFA_XSP16, literal(-14)))
          CFI (cfiCond143) V5 load(1, XDATA, add(CFA_XSP16, literal(-13)))
          CFI (cfiCond143) V6 load(1, XDATA, add(CFA_XSP16, literal(-12)))
          CFI (cfiCond143) V7 load(1, XDATA, add(CFA_XSP16, literal(-11)))
          CFI (cfiCond143) V8 load(1, XDATA, add(CFA_XSP16, literal(-10)))
          CFI (cfiCond143) V9 load(1, XDATA, add(CFA_XSP16, literal(-9)))
          CFI (cfiCond143) V10 load(1, XDATA, add(CFA_XSP16, literal(-8)))
          CFI (cfiCond143) V11 load(1, XDATA, add(CFA_XSP16, literal(-7)))
          CFI (cfiCond143) R7 load(1, XDATA, add(CFA_XSP16, literal(-6)))
          CFI (cfiCond143) ?RET_LOW load(1, XDATA, add(CFA_XSP16, literal(-5)))
          CFI (cfiCond143) ?RET_HIGH load(1, XDATA, add(CFA_XSP16, literal(-4)))
          CFI (cfiCond143) ?BRET_EXT load(1, XDATA, add(CFA_XSP16, literal(-3)))
          CFI (cfiCond143) DPL0 load(1, XDATA, add(CFA_XSP16, literal(-2)))
          CFI (cfiCond143) DPH0 load(1, XDATA, add(CFA_XSP16, literal(-1)))
          CFI (cfiCond143) CFA_SP SP+-6
          CFI (cfiCond143) CFA_XSP16 add(XSP16, 63)
          CFI Block cfiCond144 Using cfiCommon0
          CFI (cfiCond144) Function zha_project_ProcessInReadRspCmd
          CFI (cfiCond144) Conditional ??CrossCallReturnLabel_105, ??CrossCallReturnLabel_60, ??CrossCallReturnLabel_81
          CFI (cfiCond144) R6 load(1, XDATA, add(CFA_XSP16, literal(-20)))
          CFI (cfiCond144) VB load(1, XDATA, add(CFA_XSP16, literal(-19)))
          CFI (cfiCond144) V0 load(1, XDATA, add(CFA_XSP16, literal(-18)))
          CFI (cfiCond144) V1 load(1, XDATA, add(CFA_XSP16, literal(-17)))
          CFI (cfiCond144) V2 load(1, XDATA, add(CFA_XSP16, literal(-16)))
          CFI (cfiCond144) V3 load(1, XDATA, add(CFA_XSP16, literal(-15)))
          CFI (cfiCond144) V4 load(1, XDATA, add(CFA_XSP16, literal(-14)))
          CFI (cfiCond144) V5 load(1, XDATA, add(CFA_XSP16, literal(-13)))
          CFI (cfiCond144) V6 load(1, XDATA, add(CFA_XSP16, literal(-12)))
          CFI (cfiCond144) V7 load(1, XDATA, add(CFA_XSP16, literal(-11)))
          CFI (cfiCond144) V8 load(1, XDATA, add(CFA_XSP16, literal(-10)))
          CFI (cfiCond144) V9 load(1, XDATA, add(CFA_XSP16, literal(-9)))
          CFI (cfiCond144) V10 load(1, XDATA, add(CFA_XSP16, literal(-8)))
          CFI (cfiCond144) V11 load(1, XDATA, add(CFA_XSP16, literal(-7)))
          CFI (cfiCond144) R7 load(1, XDATA, add(CFA_XSP16, literal(-6)))
          CFI (cfiCond144) ?RET_LOW load(1, XDATA, add(CFA_XSP16, literal(-5)))
          CFI (cfiCond144) ?RET_HIGH load(1, XDATA, add(CFA_XSP16, literal(-4)))
          CFI (cfiCond144) ?BRET_EXT load(1, XDATA, add(CFA_XSP16, literal(-3)))
          CFI (cfiCond144) DPL0 load(1, XDATA, add(CFA_XSP16, literal(-2)))
          CFI (cfiCond144) DPH0 load(1, XDATA, add(CFA_XSP16, literal(-1)))
          CFI (cfiCond144) CFA_SP SP+-6
          CFI (cfiCond144) CFA_XSP16 add(XSP16, 63)
          CFI Block cfiCond145 Using cfiCommon0
          CFI (cfiCond145) Function zha_project_ProcessInReadRspCmd
          CFI (cfiCond145) Conditional ??CrossCallReturnLabel_105, ??CrossCallReturnLabel_60, ??CrossCallReturnLabel_82
          CFI (cfiCond145) R6 load(1, XDATA, add(CFA_XSP16, literal(-20)))
          CFI (cfiCond145) VB load(1, XDATA, add(CFA_XSP16, literal(-19)))
          CFI (cfiCond145) V0 load(1, XDATA, add(CFA_XSP16, literal(-18)))
          CFI (cfiCond145) V1 load(1, XDATA, add(CFA_XSP16, literal(-17)))
          CFI (cfiCond145) V2 load(1, XDATA, add(CFA_XSP16, literal(-16)))
          CFI (cfiCond145) V3 load(1, XDATA, add(CFA_XSP16, literal(-15)))
          CFI (cfiCond145) V4 load(1, XDATA, add(CFA_XSP16, literal(-14)))
          CFI (cfiCond145) V5 load(1, XDATA, add(CFA_XSP16, literal(-13)))
          CFI (cfiCond145) V6 load(1, XDATA, add(CFA_XSP16, literal(-12)))
          CFI (cfiCond145) V7 load(1, XDATA, add(CFA_XSP16, literal(-11)))
          CFI (cfiCond145) V8 load(1, XDATA, add(CFA_XSP16, literal(-10)))
          CFI (cfiCond145) V9 load(1, XDATA, add(CFA_XSP16, literal(-9)))
          CFI (cfiCond145) V10 load(1, XDATA, add(CFA_XSP16, literal(-8)))
          CFI (cfiCond145) V11 load(1, XDATA, add(CFA_XSP16, literal(-7)))
          CFI (cfiCond145) R7 load(1, XDATA, add(CFA_XSP16, literal(-6)))
          CFI (cfiCond145) ?RET_LOW load(1, XDATA, add(CFA_XSP16, literal(-5)))
          CFI (cfiCond145) ?RET_HIGH load(1, XDATA, add(CFA_XSP16, literal(-4)))
          CFI (cfiCond145) ?BRET_EXT load(1, XDATA, add(CFA_XSP16, literal(-3)))
          CFI (cfiCond145) DPL0 load(1, XDATA, add(CFA_XSP16, literal(-2)))
          CFI (cfiCond145) DPH0 load(1, XDATA, add(CFA_XSP16, literal(-1)))
          CFI (cfiCond145) CFA_SP SP+-6
          CFI (cfiCond145) CFA_XSP16 add(XSP16, 63)
          CFI Block cfiCond146 Using cfiCommon0
          CFI (cfiCond146) Function zha_project_ProcessInReadRspCmd
          CFI (cfiCond146) Conditional ??CrossCallReturnLabel_105, ??CrossCallReturnLabel_60, ??CrossCallReturnLabel_83
          CFI (cfiCond146) R6 load(1, XDATA, add(CFA_XSP16, literal(-20)))
          CFI (cfiCond146) VB load(1, XDATA, add(CFA_XSP16, literal(-19)))
          CFI (cfiCond146) V0 load(1, XDATA, add(CFA_XSP16, literal(-18)))
          CFI (cfiCond146) V1 load(1, XDATA, add(CFA_XSP16, literal(-17)))
          CFI (cfiCond146) V2 load(1, XDATA, add(CFA_XSP16, literal(-16)))
          CFI (cfiCond146) V3 load(1, XDATA, add(CFA_XSP16, literal(-15)))
          CFI (cfiCond146) V4 load(1, XDATA, add(CFA_XSP16, literal(-14)))
          CFI (cfiCond146) V5 load(1, XDATA, add(CFA_XSP16, literal(-13)))
          CFI (cfiCond146) V6 load(1, XDATA, add(CFA_XSP16, literal(-12)))
          CFI (cfiCond146) V7 load(1, XDATA, add(CFA_XSP16, literal(-11)))
          CFI (cfiCond146) V8 load(1, XDATA, add(CFA_XSP16, literal(-10)))
          CFI (cfiCond146) V9 load(1, XDATA, add(CFA_XSP16, literal(-9)))
          CFI (cfiCond146) V10 load(1, XDATA, add(CFA_XSP16, literal(-8)))
          CFI (cfiCond146) V11 load(1, XDATA, add(CFA_XSP16, literal(-7)))
          CFI (cfiCond146) R7 load(1, XDATA, add(CFA_XSP16, literal(-6)))
          CFI (cfiCond146) ?RET_LOW load(1, XDATA, add(CFA_XSP16, literal(-5)))
          CFI (cfiCond146) ?RET_HIGH load(1, XDATA, add(CFA_XSP16, literal(-4)))
          CFI (cfiCond146) ?BRET_EXT load(1, XDATA, add(CFA_XSP16, literal(-3)))
          CFI (cfiCond146) DPL0 load(1, XDATA, add(CFA_XSP16, literal(-2)))
          CFI (cfiCond146) DPH0 load(1, XDATA, add(CFA_XSP16, literal(-1)))
          CFI (cfiCond146) CFA_SP SP+-6
          CFI (cfiCond146) CFA_XSP16 add(XSP16, 63)
          CFI Block cfiCond147 Using cfiCommon0
          CFI (cfiCond147) Function zha_project_ProcessInReadRspCmd
          CFI (cfiCond147) Conditional ??CrossCallReturnLabel_105, ??CrossCallReturnLabel_60, ??CrossCallReturnLabel_84
          CFI (cfiCond147) R6 load(1, XDATA, add(CFA_XSP16, literal(-20)))
          CFI (cfiCond147) VB load(1, XDATA, add(CFA_XSP16, literal(-19)))
          CFI (cfiCond147) V0 load(1, XDATA, add(CFA_XSP16, literal(-18)))
          CFI (cfiCond147) V1 load(1, XDATA, add(CFA_XSP16, literal(-17)))
          CFI (cfiCond147) V2 load(1, XDATA, add(CFA_XSP16, literal(-16)))
          CFI (cfiCond147) V3 load(1, XDATA, add(CFA_XSP16, literal(-15)))
          CFI (cfiCond147) V4 load(1, XDATA, add(CFA_XSP16, literal(-14)))
          CFI (cfiCond147) V5 load(1, XDATA, add(CFA_XSP16, literal(-13)))
          CFI (cfiCond147) V6 load(1, XDATA, add(CFA_XSP16, literal(-12)))
          CFI (cfiCond147) V7 load(1, XDATA, add(CFA_XSP16, literal(-11)))
          CFI (cfiCond147) V8 load(1, XDATA, add(CFA_XSP16, literal(-10)))
          CFI (cfiCond147) V9 load(1, XDATA, add(CFA_XSP16, literal(-9)))
          CFI (cfiCond147) V10 load(1, XDATA, add(CFA_XSP16, literal(-8)))
          CFI (cfiCond147) V11 load(1, XDATA, add(CFA_XSP16, literal(-7)))
          CFI (cfiCond147) R7 load(1, XDATA, add(CFA_XSP16, literal(-6)))
          CFI (cfiCond147) ?RET_LOW load(1, XDATA, add(CFA_XSP16, literal(-5)))
          CFI (cfiCond147) ?RET_HIGH load(1, XDATA, add(CFA_XSP16, literal(-4)))
          CFI (cfiCond147) ?BRET_EXT load(1, XDATA, add(CFA_XSP16, literal(-3)))
          CFI (cfiCond147) DPL0 load(1, XDATA, add(CFA_XSP16, literal(-2)))
          CFI (cfiCond147) DPH0 load(1, XDATA, add(CFA_XSP16, literal(-1)))
          CFI (cfiCond147) CFA_SP SP+-6
          CFI (cfiCond147) CFA_XSP16 add(XSP16, 63)
          CFI Block cfiCond148 Using cfiCommon0
          CFI (cfiCond148) Function zha_project_ProcessInReadRspCmd
          CFI (cfiCond148) Conditional ??CrossCallReturnLabel_105, ??CrossCallReturnLabel_60, ??CrossCallReturnLabel_85
          CFI (cfiCond148) R6 load(1, XDATA, add(CFA_XSP16, literal(-20)))
          CFI (cfiCond148) VB load(1, XDATA, add(CFA_XSP16, literal(-19)))
          CFI (cfiCond148) V0 load(1, XDATA, add(CFA_XSP16, literal(-18)))
          CFI (cfiCond148) V1 load(1, XDATA, add(CFA_XSP16, literal(-17)))
          CFI (cfiCond148) V2 load(1, XDATA, add(CFA_XSP16, literal(-16)))
          CFI (cfiCond148) V3 load(1, XDATA, add(CFA_XSP16, literal(-15)))
          CFI (cfiCond148) V4 load(1, XDATA, add(CFA_XSP16, literal(-14)))
          CFI (cfiCond148) V5 load(1, XDATA, add(CFA_XSP16, literal(-13)))
          CFI (cfiCond148) V6 load(1, XDATA, add(CFA_XSP16, literal(-12)))
          CFI (cfiCond148) V7 load(1, XDATA, add(CFA_XSP16, literal(-11)))
          CFI (cfiCond148) V8 load(1, XDATA, add(CFA_XSP16, literal(-10)))
          CFI (cfiCond148) V9 load(1, XDATA, add(CFA_XSP16, literal(-9)))
          CFI (cfiCond148) V10 load(1, XDATA, add(CFA_XSP16, literal(-8)))
          CFI (cfiCond148) V11 load(1, XDATA, add(CFA_XSP16, literal(-7)))
          CFI (cfiCond148) R7 load(1, XDATA, add(CFA_XSP16, literal(-6)))
          CFI (cfiCond148) ?RET_LOW load(1, XDATA, add(CFA_XSP16, literal(-5)))
          CFI (cfiCond148) ?RET_HIGH load(1, XDATA, add(CFA_XSP16, literal(-4)))
          CFI (cfiCond148) ?BRET_EXT load(1, XDATA, add(CFA_XSP16, literal(-3)))
          CFI (cfiCond148) DPL0 load(1, XDATA, add(CFA_XSP16, literal(-2)))
          CFI (cfiCond148) DPH0 load(1, XDATA, add(CFA_XSP16, literal(-1)))
          CFI (cfiCond148) CFA_SP SP+-6
          CFI (cfiCond148) CFA_XSP16 add(XSP16, 63)
          CFI Block cfiCond149 Using cfiCommon0
          CFI (cfiCond149) Function zha_project_ProcessInReportCmd
          CFI (cfiCond149) Conditional ??CrossCallReturnLabel_106, ??CrossCallReturnLabel_104, ??CrossCallReturnLabel_95
          CFI (cfiCond149) R6 load(1, XDATA, add(CFA_XSP16, literal(-20)))
          CFI (cfiCond149) VB load(1, XDATA, add(CFA_XSP16, literal(-19)))
          CFI (cfiCond149) V0 load(1, XDATA, add(CFA_XSP16, literal(-18)))
          CFI (cfiCond149) V1 load(1, XDATA, add(CFA_XSP16, literal(-17)))
          CFI (cfiCond149) V2 load(1, XDATA, add(CFA_XSP16, literal(-16)))
          CFI (cfiCond149) V3 load(1, XDATA, add(CFA_XSP16, literal(-15)))
          CFI (cfiCond149) V4 load(1, XDATA, add(CFA_XSP16, literal(-14)))
          CFI (cfiCond149) V5 load(1, XDATA, add(CFA_XSP16, literal(-13)))
          CFI (cfiCond149) V6 load(1, XDATA, add(CFA_XSP16, literal(-12)))
          CFI (cfiCond149) V7 load(1, XDATA, add(CFA_XSP16, literal(-11)))
          CFI (cfiCond149) V8 load(1, XDATA, add(CFA_XSP16, literal(-10)))
          CFI (cfiCond149) V9 load(1, XDATA, add(CFA_XSP16, literal(-9)))
          CFI (cfiCond149) V10 load(1, XDATA, add(CFA_XSP16, literal(-8)))
          CFI (cfiCond149) V11 load(1, XDATA, add(CFA_XSP16, literal(-7)))
          CFI (cfiCond149) R7 load(1, XDATA, add(CFA_XSP16, literal(-6)))
          CFI (cfiCond149) ?RET_LOW load(1, XDATA, add(CFA_XSP16, literal(-5)))
          CFI (cfiCond149) ?RET_HIGH load(1, XDATA, add(CFA_XSP16, literal(-4)))
          CFI (cfiCond149) ?BRET_EXT load(1, XDATA, add(CFA_XSP16, literal(-3)))
          CFI (cfiCond149) DPL0 load(1, XDATA, add(CFA_XSP16, literal(-2)))
          CFI (cfiCond149) DPH0 load(1, XDATA, add(CFA_XSP16, literal(-1)))
          CFI (cfiCond149) CFA_SP SP+-6
          CFI (cfiCond149) CFA_XSP16 add(XSP16, 63)
          CFI Block cfiCond150 Using cfiCommon0
          CFI (cfiCond150) Function zha_project_ProcessInReportCmd
          CFI (cfiCond150) Conditional ??CrossCallReturnLabel_106, ??CrossCallReturnLabel_104, ??CrossCallReturnLabel_96
          CFI (cfiCond150) R6 load(1, XDATA, add(CFA_XSP16, literal(-20)))
          CFI (cfiCond150) VB load(1, XDATA, add(CFA_XSP16, literal(-19)))
          CFI (cfiCond150) V0 load(1, XDATA, add(CFA_XSP16, literal(-18)))
          CFI (cfiCond150) V1 load(1, XDATA, add(CFA_XSP16, literal(-17)))
          CFI (cfiCond150) V2 load(1, XDATA, add(CFA_XSP16, literal(-16)))
          CFI (cfiCond150) V3 load(1, XDATA, add(CFA_XSP16, literal(-15)))
          CFI (cfiCond150) V4 load(1, XDATA, add(CFA_XSP16, literal(-14)))
          CFI (cfiCond150) V5 load(1, XDATA, add(CFA_XSP16, literal(-13)))
          CFI (cfiCond150) V6 load(1, XDATA, add(CFA_XSP16, literal(-12)))
          CFI (cfiCond150) V7 load(1, XDATA, add(CFA_XSP16, literal(-11)))
          CFI (cfiCond150) V8 load(1, XDATA, add(CFA_XSP16, literal(-10)))
          CFI (cfiCond150) V9 load(1, XDATA, add(CFA_XSP16, literal(-9)))
          CFI (cfiCond150) V10 load(1, XDATA, add(CFA_XSP16, literal(-8)))
          CFI (cfiCond150) V11 load(1, XDATA, add(CFA_XSP16, literal(-7)))
          CFI (cfiCond150) R7 load(1, XDATA, add(CFA_XSP16, literal(-6)))
          CFI (cfiCond150) ?RET_LOW load(1, XDATA, add(CFA_XSP16, literal(-5)))
          CFI (cfiCond150) ?RET_HIGH load(1, XDATA, add(CFA_XSP16, literal(-4)))
          CFI (cfiCond150) ?BRET_EXT load(1, XDATA, add(CFA_XSP16, literal(-3)))
          CFI (cfiCond150) DPL0 load(1, XDATA, add(CFA_XSP16, literal(-2)))
          CFI (cfiCond150) DPH0 load(1, XDATA, add(CFA_XSP16, literal(-1)))
          CFI (cfiCond150) CFA_SP SP+-6
          CFI (cfiCond150) CFA_XSP16 add(XSP16, 63)
          CFI Block cfiCond151 Using cfiCommon0
          CFI (cfiCond151) Function zha_project_ProcessInReportCmd
          CFI (cfiCond151) Conditional ??CrossCallReturnLabel_106, ??CrossCallReturnLabel_104, ??CrossCallReturnLabel_97
          CFI (cfiCond151) R6 load(1, XDATA, add(CFA_XSP16, literal(-20)))
          CFI (cfiCond151) VB load(1, XDATA, add(CFA_XSP16, literal(-19)))
          CFI (cfiCond151) V0 load(1, XDATA, add(CFA_XSP16, literal(-18)))
          CFI (cfiCond151) V1 load(1, XDATA, add(CFA_XSP16, literal(-17)))
          CFI (cfiCond151) V2 load(1, XDATA, add(CFA_XSP16, literal(-16)))
          CFI (cfiCond151) V3 load(1, XDATA, add(CFA_XSP16, literal(-15)))
          CFI (cfiCond151) V4 load(1, XDATA, add(CFA_XSP16, literal(-14)))
          CFI (cfiCond151) V5 load(1, XDATA, add(CFA_XSP16, literal(-13)))
          CFI (cfiCond151) V6 load(1, XDATA, add(CFA_XSP16, literal(-12)))
          CFI (cfiCond151) V7 load(1, XDATA, add(CFA_XSP16, literal(-11)))
          CFI (cfiCond151) V8 load(1, XDATA, add(CFA_XSP16, literal(-10)))
          CFI (cfiCond151) V9 load(1, XDATA, add(CFA_XSP16, literal(-9)))
          CFI (cfiCond151) V10 load(1, XDATA, add(CFA_XSP16, literal(-8)))
          CFI (cfiCond151) V11 load(1, XDATA, add(CFA_XSP16, literal(-7)))
          CFI (cfiCond151) R7 load(1, XDATA, add(CFA_XSP16, literal(-6)))
          CFI (cfiCond151) ?RET_LOW load(1, XDATA, add(CFA_XSP16, literal(-5)))
          CFI (cfiCond151) ?RET_HIGH load(1, XDATA, add(CFA_XSP16, literal(-4)))
          CFI (cfiCond151) ?BRET_EXT load(1, XDATA, add(CFA_XSP16, literal(-3)))
          CFI (cfiCond151) DPL0 load(1, XDATA, add(CFA_XSP16, literal(-2)))
          CFI (cfiCond151) DPH0 load(1, XDATA, add(CFA_XSP16, literal(-1)))
          CFI (cfiCond151) CFA_SP SP+-6
          CFI (cfiCond151) CFA_XSP16 add(XSP16, 63)
          CFI Block cfiCond152 Using cfiCommon0
          CFI (cfiCond152) Function zha_project_ProcessInReportCmd
          CFI (cfiCond152) Conditional ??CrossCallReturnLabel_106, ??CrossCallReturnLabel_104, ??CrossCallReturnLabel_98
          CFI (cfiCond152) R6 load(1, XDATA, add(CFA_XSP16, literal(-20)))
          CFI (cfiCond152) VB load(1, XDATA, add(CFA_XSP16, literal(-19)))
          CFI (cfiCond152) V0 load(1, XDATA, add(CFA_XSP16, literal(-18)))
          CFI (cfiCond152) V1 load(1, XDATA, add(CFA_XSP16, literal(-17)))
          CFI (cfiCond152) V2 load(1, XDATA, add(CFA_XSP16, literal(-16)))
          CFI (cfiCond152) V3 load(1, XDATA, add(CFA_XSP16, literal(-15)))
          CFI (cfiCond152) V4 load(1, XDATA, add(CFA_XSP16, literal(-14)))
          CFI (cfiCond152) V5 load(1, XDATA, add(CFA_XSP16, literal(-13)))
          CFI (cfiCond152) V6 load(1, XDATA, add(CFA_XSP16, literal(-12)))
          CFI (cfiCond152) V7 load(1, XDATA, add(CFA_XSP16, literal(-11)))
          CFI (cfiCond152) V8 load(1, XDATA, add(CFA_XSP16, literal(-10)))
          CFI (cfiCond152) V9 load(1, XDATA, add(CFA_XSP16, literal(-9)))
          CFI (cfiCond152) V10 load(1, XDATA, add(CFA_XSP16, literal(-8)))
          CFI (cfiCond152) V11 load(1, XDATA, add(CFA_XSP16, literal(-7)))
          CFI (cfiCond152) R7 load(1, XDATA, add(CFA_XSP16, literal(-6)))
          CFI (cfiCond152) ?RET_LOW load(1, XDATA, add(CFA_XSP16, literal(-5)))
          CFI (cfiCond152) ?RET_HIGH load(1, XDATA, add(CFA_XSP16, literal(-4)))
          CFI (cfiCond152) ?BRET_EXT load(1, XDATA, add(CFA_XSP16, literal(-3)))
          CFI (cfiCond152) DPL0 load(1, XDATA, add(CFA_XSP16, literal(-2)))
          CFI (cfiCond152) DPH0 load(1, XDATA, add(CFA_XSP16, literal(-1)))
          CFI (cfiCond152) CFA_SP SP+-6
          CFI (cfiCond152) CFA_XSP16 add(XSP16, 63)
          CFI Block cfiCond153 Using cfiCommon0
          CFI (cfiCond153) Function zha_project_ProcessInReportCmd
          CFI (cfiCond153) Conditional ??CrossCallReturnLabel_106, ??CrossCallReturnLabel_104, ??CrossCallReturnLabel_99
          CFI (cfiCond153) R6 load(1, XDATA, add(CFA_XSP16, literal(-20)))
          CFI (cfiCond153) VB load(1, XDATA, add(CFA_XSP16, literal(-19)))
          CFI (cfiCond153) V0 load(1, XDATA, add(CFA_XSP16, literal(-18)))
          CFI (cfiCond153) V1 load(1, XDATA, add(CFA_XSP16, literal(-17)))
          CFI (cfiCond153) V2 load(1, XDATA, add(CFA_XSP16, literal(-16)))
          CFI (cfiCond153) V3 load(1, XDATA, add(CFA_XSP16, literal(-15)))
          CFI (cfiCond153) V4 load(1, XDATA, add(CFA_XSP16, literal(-14)))
          CFI (cfiCond153) V5 load(1, XDATA, add(CFA_XSP16, literal(-13)))
          CFI (cfiCond153) V6 load(1, XDATA, add(CFA_XSP16, literal(-12)))
          CFI (cfiCond153) V7 load(1, XDATA, add(CFA_XSP16, literal(-11)))
          CFI (cfiCond153) V8 load(1, XDATA, add(CFA_XSP16, literal(-10)))
          CFI (cfiCond153) V9 load(1, XDATA, add(CFA_XSP16, literal(-9)))
          CFI (cfiCond153) V10 load(1, XDATA, add(CFA_XSP16, literal(-8)))
          CFI (cfiCond153) V11 load(1, XDATA, add(CFA_XSP16, literal(-7)))
          CFI (cfiCond153) R7 load(1, XDATA, add(CFA_XSP16, literal(-6)))
          CFI (cfiCond153) ?RET_LOW load(1, XDATA, add(CFA_XSP16, literal(-5)))
          CFI (cfiCond153) ?RET_HIGH load(1, XDATA, add(CFA_XSP16, literal(-4)))
          CFI (cfiCond153) ?BRET_EXT load(1, XDATA, add(CFA_XSP16, literal(-3)))
          CFI (cfiCond153) DPL0 load(1, XDATA, add(CFA_XSP16, literal(-2)))
          CFI (cfiCond153) DPH0 load(1, XDATA, add(CFA_XSP16, literal(-1)))
          CFI (cfiCond153) CFA_SP SP+-6
          CFI (cfiCond153) CFA_XSP16 add(XSP16, 63)
          CFI Block cfiCond154 Using cfiCommon0
          CFI (cfiCond154) Function zha_project_ProcessInReportCmd
          CFI (cfiCond154) Conditional ??CrossCallReturnLabel_106, ??CrossCallReturnLabel_104, ??CrossCallReturnLabel_100
          CFI (cfiCond154) R6 load(1, XDATA, add(CFA_XSP16, literal(-20)))
          CFI (cfiCond154) VB load(1, XDATA, add(CFA_XSP16, literal(-19)))
          CFI (cfiCond154) V0 load(1, XDATA, add(CFA_XSP16, literal(-18)))
          CFI (cfiCond154) V1 load(1, XDATA, add(CFA_XSP16, literal(-17)))
          CFI (cfiCond154) V2 load(1, XDATA, add(CFA_XSP16, literal(-16)))
          CFI (cfiCond154) V3 load(1, XDATA, add(CFA_XSP16, literal(-15)))
          CFI (cfiCond154) V4 load(1, XDATA, add(CFA_XSP16, literal(-14)))
          CFI (cfiCond154) V5 load(1, XDATA, add(CFA_XSP16, literal(-13)))
          CFI (cfiCond154) V6 load(1, XDATA, add(CFA_XSP16, literal(-12)))
          CFI (cfiCond154) V7 load(1, XDATA, add(CFA_XSP16, literal(-11)))
          CFI (cfiCond154) V8 load(1, XDATA, add(CFA_XSP16, literal(-10)))
          CFI (cfiCond154) V9 load(1, XDATA, add(CFA_XSP16, literal(-9)))
          CFI (cfiCond154) V10 load(1, XDATA, add(CFA_XSP16, literal(-8)))
          CFI (cfiCond154) V11 load(1, XDATA, add(CFA_XSP16, literal(-7)))
          CFI (cfiCond154) R7 load(1, XDATA, add(CFA_XSP16, literal(-6)))
          CFI (cfiCond154) ?RET_LOW load(1, XDATA, add(CFA_XSP16, literal(-5)))
          CFI (cfiCond154) ?RET_HIGH load(1, XDATA, add(CFA_XSP16, literal(-4)))
          CFI (cfiCond154) ?BRET_EXT load(1, XDATA, add(CFA_XSP16, literal(-3)))
          CFI (cfiCond154) DPL0 load(1, XDATA, add(CFA_XSP16, literal(-2)))
          CFI (cfiCond154) DPH0 load(1, XDATA, add(CFA_XSP16, literal(-1)))
          CFI (cfiCond154) CFA_SP SP+-6
          CFI (cfiCond154) CFA_XSP16 add(XSP16, 63)
          CFI Block cfiCond155 Using cfiCommon0
          CFI (cfiCond155) Function zha_project_ProcessInReportCmd
          CFI (cfiCond155) Conditional ??CrossCallReturnLabel_106, ??CrossCallReturnLabel_104, ??CrossCallReturnLabel_101
          CFI (cfiCond155) R6 load(1, XDATA, add(CFA_XSP16, literal(-20)))
          CFI (cfiCond155) VB load(1, XDATA, add(CFA_XSP16, literal(-19)))
          CFI (cfiCond155) V0 load(1, XDATA, add(CFA_XSP16, literal(-18)))
          CFI (cfiCond155) V1 load(1, XDATA, add(CFA_XSP16, literal(-17)))
          CFI (cfiCond155) V2 load(1, XDATA, add(CFA_XSP16, literal(-16)))
          CFI (cfiCond155) V3 load(1, XDATA, add(CFA_XSP16, literal(-15)))
          CFI (cfiCond155) V4 load(1, XDATA, add(CFA_XSP16, literal(-14)))
          CFI (cfiCond155) V5 load(1, XDATA, add(CFA_XSP16, literal(-13)))
          CFI (cfiCond155) V6 load(1, XDATA, add(CFA_XSP16, literal(-12)))
          CFI (cfiCond155) V7 load(1, XDATA, add(CFA_XSP16, literal(-11)))
          CFI (cfiCond155) V8 load(1, XDATA, add(CFA_XSP16, literal(-10)))
          CFI (cfiCond155) V9 load(1, XDATA, add(CFA_XSP16, literal(-9)))
          CFI (cfiCond155) V10 load(1, XDATA, add(CFA_XSP16, literal(-8)))
          CFI (cfiCond155) V11 load(1, XDATA, add(CFA_XSP16, literal(-7)))
          CFI (cfiCond155) R7 load(1, XDATA, add(CFA_XSP16, literal(-6)))
          CFI (cfiCond155) ?RET_LOW load(1, XDATA, add(CFA_XSP16, literal(-5)))
          CFI (cfiCond155) ?RET_HIGH load(1, XDATA, add(CFA_XSP16, literal(-4)))
          CFI (cfiCond155) ?BRET_EXT load(1, XDATA, add(CFA_XSP16, literal(-3)))
          CFI (cfiCond155) DPL0 load(1, XDATA, add(CFA_XSP16, literal(-2)))
          CFI (cfiCond155) DPH0 load(1, XDATA, add(CFA_XSP16, literal(-1)))
          CFI (cfiCond155) CFA_SP SP+-6
          CFI (cfiCond155) CFA_XSP16 add(XSP16, 63)
          CFI Block cfiCond156 Using cfiCommon0
          CFI (cfiCond156) Function zha_project_ProcessInReportCmd
          CFI (cfiCond156) Conditional ??CrossCallReturnLabel_106, ??CrossCallReturnLabel_104, ??CrossCallReturnLabel_102
          CFI (cfiCond156) R6 load(1, XDATA, add(CFA_XSP16, literal(-20)))
          CFI (cfiCond156) VB load(1, XDATA, add(CFA_XSP16, literal(-19)))
          CFI (cfiCond156) V0 load(1, XDATA, add(CFA_XSP16, literal(-18)))
          CFI (cfiCond156) V1 load(1, XDATA, add(CFA_XSP16, literal(-17)))
          CFI (cfiCond156) V2 load(1, XDATA, add(CFA_XSP16, literal(-16)))
          CFI (cfiCond156) V3 load(1, XDATA, add(CFA_XSP16, literal(-15)))
          CFI (cfiCond156) V4 load(1, XDATA, add(CFA_XSP16, literal(-14)))
          CFI (cfiCond156) V5 load(1, XDATA, add(CFA_XSP16, literal(-13)))
          CFI (cfiCond156) V6 load(1, XDATA, add(CFA_XSP16, literal(-12)))
          CFI (cfiCond156) V7 load(1, XDATA, add(CFA_XSP16, literal(-11)))
          CFI (cfiCond156) V8 load(1, XDATA, add(CFA_XSP16, literal(-10)))
          CFI (cfiCond156) V9 load(1, XDATA, add(CFA_XSP16, literal(-9)))
          CFI (cfiCond156) V10 load(1, XDATA, add(CFA_XSP16, literal(-8)))
          CFI (cfiCond156) V11 load(1, XDATA, add(CFA_XSP16, literal(-7)))
          CFI (cfiCond156) R7 load(1, XDATA, add(CFA_XSP16, literal(-6)))
          CFI (cfiCond156) ?RET_LOW load(1, XDATA, add(CFA_XSP16, literal(-5)))
          CFI (cfiCond156) ?RET_HIGH load(1, XDATA, add(CFA_XSP16, literal(-4)))
          CFI (cfiCond156) ?BRET_EXT load(1, XDATA, add(CFA_XSP16, literal(-3)))
          CFI (cfiCond156) DPL0 load(1, XDATA, add(CFA_XSP16, literal(-2)))
          CFI (cfiCond156) DPH0 load(1, XDATA, add(CFA_XSP16, literal(-1)))
          CFI (cfiCond156) CFA_SP SP+-6
          CFI (cfiCond156) CFA_XSP16 add(XSP16, 63)
          CFI Block cfiCond157 Using cfiCommon0
          CFI (cfiCond157) Function zha_project_ProcessInReadRspCmd
          CFI (cfiCond157) Conditional ??CrossCallReturnLabel_106, ??CrossCallReturnLabel_104, ??CrossCallReturnLabel_94
          CFI (cfiCond157) R6 load(1, XDATA, add(CFA_XSP16, literal(-20)))
          CFI (cfiCond157) VB load(1, XDATA, add(CFA_XSP16, literal(-19)))
          CFI (cfiCond157) V0 load(1, XDATA, add(CFA_XSP16, literal(-18)))
          CFI (cfiCond157) V1 load(1, XDATA, add(CFA_XSP16, literal(-17)))
          CFI (cfiCond157) V2 load(1, XDATA, add(CFA_XSP16, literal(-16)))
          CFI (cfiCond157) V3 load(1, XDATA, add(CFA_XSP16, literal(-15)))
          CFI (cfiCond157) V4 load(1, XDATA, add(CFA_XSP16, literal(-14)))
          CFI (cfiCond157) V5 load(1, XDATA, add(CFA_XSP16, literal(-13)))
          CFI (cfiCond157) V6 load(1, XDATA, add(CFA_XSP16, literal(-12)))
          CFI (cfiCond157) V7 load(1, XDATA, add(CFA_XSP16, literal(-11)))
          CFI (cfiCond157) V8 load(1, XDATA, add(CFA_XSP16, literal(-10)))
          CFI (cfiCond157) V9 load(1, XDATA, add(CFA_XSP16, literal(-9)))
          CFI (cfiCond157) V10 load(1, XDATA, add(CFA_XSP16, literal(-8)))
          CFI (cfiCond157) V11 load(1, XDATA, add(CFA_XSP16, literal(-7)))
          CFI (cfiCond157) R7 load(1, XDATA, add(CFA_XSP16, literal(-6)))
          CFI (cfiCond157) ?RET_LOW load(1, XDATA, add(CFA_XSP16, literal(-5)))
          CFI (cfiCond157) ?RET_HIGH load(1, XDATA, add(CFA_XSP16, literal(-4)))
          CFI (cfiCond157) ?BRET_EXT load(1, XDATA, add(CFA_XSP16, literal(-3)))
          CFI (cfiCond157) DPL0 load(1, XDATA, add(CFA_XSP16, literal(-2)))
          CFI (cfiCond157) DPH0 load(1, XDATA, add(CFA_XSP16, literal(-1)))
          CFI (cfiCond157) CFA_SP SP+-6
          CFI (cfiCond157) CFA_XSP16 add(XSP16, 63)
          CFI Block cfiCond158 Using cfiCommon0
          CFI (cfiCond158) Function zha_project_ProcessInReadRspCmd
          CFI (cfiCond158) Conditional ??CrossCallReturnLabel_106, ??CrossCallReturnLabel_103, ??CrossCallReturnLabel_47
          CFI (cfiCond158) R6 load(1, XDATA, add(CFA_XSP16, literal(-20)))
          CFI (cfiCond158) VB load(1, XDATA, add(CFA_XSP16, literal(-19)))
          CFI (cfiCond158) V0 load(1, XDATA, add(CFA_XSP16, literal(-18)))
          CFI (cfiCond158) V1 load(1, XDATA, add(CFA_XSP16, literal(-17)))
          CFI (cfiCond158) V2 load(1, XDATA, add(CFA_XSP16, literal(-16)))
          CFI (cfiCond158) V3 load(1, XDATA, add(CFA_XSP16, literal(-15)))
          CFI (cfiCond158) V4 load(1, XDATA, add(CFA_XSP16, literal(-14)))
          CFI (cfiCond158) V5 load(1, XDATA, add(CFA_XSP16, literal(-13)))
          CFI (cfiCond158) V6 load(1, XDATA, add(CFA_XSP16, literal(-12)))
          CFI (cfiCond158) V7 load(1, XDATA, add(CFA_XSP16, literal(-11)))
          CFI (cfiCond158) V8 load(1, XDATA, add(CFA_XSP16, literal(-10)))
          CFI (cfiCond158) V9 load(1, XDATA, add(CFA_XSP16, literal(-9)))
          CFI (cfiCond158) V10 load(1, XDATA, add(CFA_XSP16, literal(-8)))
          CFI (cfiCond158) V11 load(1, XDATA, add(CFA_XSP16, literal(-7)))
          CFI (cfiCond158) R7 load(1, XDATA, add(CFA_XSP16, literal(-6)))
          CFI (cfiCond158) ?RET_LOW load(1, XDATA, add(CFA_XSP16, literal(-5)))
          CFI (cfiCond158) ?RET_HIGH load(1, XDATA, add(CFA_XSP16, literal(-4)))
          CFI (cfiCond158) ?BRET_EXT load(1, XDATA, add(CFA_XSP16, literal(-3)))
          CFI (cfiCond158) DPL0 load(1, XDATA, add(CFA_XSP16, literal(-2)))
          CFI (cfiCond158) DPH0 load(1, XDATA, add(CFA_XSP16, literal(-1)))
          CFI (cfiCond158) CFA_SP SP+-6
          CFI (cfiCond158) CFA_XSP16 add(XSP16, 63)
          CFI Block cfiCond159 Using cfiCommon0
          CFI (cfiCond159) Function zha_project_ProcessInReportCmd
          CFI (cfiCond159) Conditional ??CrossCallReturnLabel_106, ??CrossCallReturnLabel_103, ??CrossCallReturnLabel_48
          CFI (cfiCond159) R6 load(1, XDATA, add(CFA_XSP16, literal(-20)))
          CFI (cfiCond159) VB load(1, XDATA, add(CFA_XSP16, literal(-19)))
          CFI (cfiCond159) V0 load(1, XDATA, add(CFA_XSP16, literal(-18)))
          CFI (cfiCond159) V1 load(1, XDATA, add(CFA_XSP16, literal(-17)))
          CFI (cfiCond159) V2 load(1, XDATA, add(CFA_XSP16, literal(-16)))
          CFI (cfiCond159) V3 load(1, XDATA, add(CFA_XSP16, literal(-15)))
          CFI (cfiCond159) V4 load(1, XDATA, add(CFA_XSP16, literal(-14)))
          CFI (cfiCond159) V5 load(1, XDATA, add(CFA_XSP16, literal(-13)))
          CFI (cfiCond159) V6 load(1, XDATA, add(CFA_XSP16, literal(-12)))
          CFI (cfiCond159) V7 load(1, XDATA, add(CFA_XSP16, literal(-11)))
          CFI (cfiCond159) V8 load(1, XDATA, add(CFA_XSP16, literal(-10)))
          CFI (cfiCond159) V9 load(1, XDATA, add(CFA_XSP16, literal(-9)))
          CFI (cfiCond159) V10 load(1, XDATA, add(CFA_XSP16, literal(-8)))
          CFI (cfiCond159) V11 load(1, XDATA, add(CFA_XSP16, literal(-7)))
          CFI (cfiCond159) R7 load(1, XDATA, add(CFA_XSP16, literal(-6)))
          CFI (cfiCond159) ?RET_LOW load(1, XDATA, add(CFA_XSP16, literal(-5)))
          CFI (cfiCond159) ?RET_HIGH load(1, XDATA, add(CFA_XSP16, literal(-4)))
          CFI (cfiCond159) ?BRET_EXT load(1, XDATA, add(CFA_XSP16, literal(-3)))
          CFI (cfiCond159) DPL0 load(1, XDATA, add(CFA_XSP16, literal(-2)))
          CFI (cfiCond159) DPH0 load(1, XDATA, add(CFA_XSP16, literal(-1)))
          CFI (cfiCond159) CFA_SP SP+-6
          CFI (cfiCond159) CFA_XSP16 add(XSP16, 63)
          CFI Block cfiPicker160 Using cfiCommon1
          CFI (cfiPicker160) NoFunction
          CFI (cfiPicker160) Picker
        LCALL   ?Subroutine34 & 0xFFFF
??CrossCallReturnLabel_108:
        MOV     R0,DPL
        MOV     R1,DPH
        RET
          CFI EndBlock cfiCond142
          CFI EndBlock cfiCond143
          CFI EndBlock cfiCond144
          CFI EndBlock cfiCond145
          CFI EndBlock cfiCond146
          CFI EndBlock cfiCond147
          CFI EndBlock cfiCond148
          CFI EndBlock cfiCond149
          CFI EndBlock cfiCond150
          CFI EndBlock cfiCond151
          CFI EndBlock cfiCond152
          CFI EndBlock cfiCond153
          CFI EndBlock cfiCond154
          CFI EndBlock cfiCond155
          CFI EndBlock cfiCond156
          CFI EndBlock cfiCond157
          CFI EndBlock cfiCond158
          CFI EndBlock cfiCond159
          CFI EndBlock cfiPicker160

        RSEG BANKED_CODE:CODE:NOROOT(0)
?Subroutine23:
          CFI Block cfiCond161 Using cfiCommon0
          CFI Function zha_project_ProcessInReadRspCmd
          CFI Conditional ??CrossCallReturnLabel_47
          CFI R6 load(1, XDATA, add(CFA_XSP16, literal(-20)))
          CFI VB load(1, XDATA, add(CFA_XSP16, literal(-19)))
          CFI V0 load(1, XDATA, add(CFA_XSP16, literal(-18)))
          CFI V1 load(1, XDATA, add(CFA_XSP16, literal(-17)))
          CFI V2 load(1, XDATA, add(CFA_XSP16, literal(-16)))
          CFI V3 load(1, XDATA, add(CFA_XSP16, literal(-15)))
          CFI V4 load(1, XDATA, add(CFA_XSP16, literal(-14)))
          CFI V5 load(1, XDATA, add(CFA_XSP16, literal(-13)))
          CFI V6 load(1, XDATA, add(CFA_XSP16, literal(-12)))
          CFI V7 load(1, XDATA, add(CFA_XSP16, literal(-11)))
          CFI V8 load(1, XDATA, add(CFA_XSP16, literal(-10)))
          CFI V9 load(1, XDATA, add(CFA_XSP16, literal(-9)))
          CFI V10 load(1, XDATA, add(CFA_XSP16, literal(-8)))
          CFI V11 load(1, XDATA, add(CFA_XSP16, literal(-7)))
          CFI R7 load(1, XDATA, add(CFA_XSP16, literal(-6)))
          CFI ?RET_LOW load(1, XDATA, add(CFA_XSP16, literal(-5)))
          CFI ?RET_HIGH load(1, XDATA, add(CFA_XSP16, literal(-4)))
          CFI ?BRET_EXT load(1, XDATA, add(CFA_XSP16, literal(-3)))
          CFI DPL0 load(1, XDATA, add(CFA_XSP16, literal(-2)))
          CFI DPH0 load(1, XDATA, add(CFA_XSP16, literal(-1)))
          CFI CFA_SP SP+-2
          CFI CFA_XSP16 add(XSP16, 63)
          CFI Block cfiCond162 Using cfiCommon0
          CFI (cfiCond162) Function zha_project_ProcessInReportCmd
          CFI (cfiCond162) Conditional ??CrossCallReturnLabel_48
          CFI (cfiCond162) R6 load(1, XDATA, add(CFA_XSP16, literal(-20)))
          CFI (cfiCond162) VB load(1, XDATA, add(CFA_XSP16, literal(-19)))
          CFI (cfiCond162) V0 load(1, XDATA, add(CFA_XSP16, literal(-18)))
          CFI (cfiCond162) V1 load(1, XDATA, add(CFA_XSP16, literal(-17)))
          CFI (cfiCond162) V2 load(1, XDATA, add(CFA_XSP16, literal(-16)))
          CFI (cfiCond162) V3 load(1, XDATA, add(CFA_XSP16, literal(-15)))
          CFI (cfiCond162) V4 load(1, XDATA, add(CFA_XSP16, literal(-14)))
          CFI (cfiCond162) V5 load(1, XDATA, add(CFA_XSP16, literal(-13)))
          CFI (cfiCond162) V6 load(1, XDATA, add(CFA_XSP16, literal(-12)))
          CFI (cfiCond162) V7 load(1, XDATA, add(CFA_XSP16, literal(-11)))
          CFI (cfiCond162) V8 load(1, XDATA, add(CFA_XSP16, literal(-10)))
          CFI (cfiCond162) V9 load(1, XDATA, add(CFA_XSP16, literal(-9)))
          CFI (cfiCond162) V10 load(1, XDATA, add(CFA_XSP16, literal(-8)))
          CFI (cfiCond162) V11 load(1, XDATA, add(CFA_XSP16, literal(-7)))
          CFI (cfiCond162) R7 load(1, XDATA, add(CFA_XSP16, literal(-6)))
          CFI (cfiCond162) ?RET_LOW load(1, XDATA, add(CFA_XSP16, literal(-5)))
          CFI (cfiCond162) ?RET_HIGH load(1, XDATA, add(CFA_XSP16, literal(-4)))
          CFI (cfiCond162) ?BRET_EXT load(1, XDATA, add(CFA_XSP16, literal(-3)))
          CFI (cfiCond162) DPL0 load(1, XDATA, add(CFA_XSP16, literal(-2)))
          CFI (cfiCond162) DPH0 load(1, XDATA, add(CFA_XSP16, literal(-1)))
          CFI (cfiCond162) CFA_SP SP+-2
          CFI (cfiCond162) CFA_XSP16 add(XSP16, 63)
          CFI Block cfiPicker163 Using cfiCommon1
          CFI (cfiPicker163) NoFunction
          CFI (cfiPicker163) Picker
        LCALL   ?Subroutine32 & 0xFFFF
??CrossCallReturnLabel_103:
        MOVX    A,@DPTR
        XRL     A,#0x20
        RET
          CFI EndBlock cfiCond161
          CFI EndBlock cfiCond162
          CFI EndBlock cfiPicker163

        RSEG BANKED_CODE:CODE:NOROOT(0)
?Subroutine21:
          CFI Block cfiCond164 Using cfiCommon0
          CFI Function zha_project_ProcessInReadRspCmd
          CFI Conditional ??CrossCallReturnLabel_43
          CFI R6 load(1, XDATA, add(CFA_XSP16, literal(-20)))
          CFI VB load(1, XDATA, add(CFA_XSP16, literal(-19)))
          CFI V0 load(1, XDATA, add(CFA_XSP16, literal(-18)))
          CFI V1 load(1, XDATA, add(CFA_XSP16, literal(-17)))
          CFI V2 load(1, XDATA, add(CFA_XSP16, literal(-16)))
          CFI V3 load(1, XDATA, add(CFA_XSP16, literal(-15)))
          CFI V4 load(1, XDATA, add(CFA_XSP16, literal(-14)))
          CFI V5 load(1, XDATA, add(CFA_XSP16, literal(-13)))
          CFI V6 load(1, XDATA, add(CFA_XSP16, literal(-12)))
          CFI V7 load(1, XDATA, add(CFA_XSP16, literal(-11)))
          CFI V8 load(1, XDATA, add(CFA_XSP16, literal(-10)))
          CFI V9 load(1, XDATA, add(CFA_XSP16, literal(-9)))
          CFI V10 load(1, XDATA, add(CFA_XSP16, literal(-8)))
          CFI V11 load(1, XDATA, add(CFA_XSP16, literal(-7)))
          CFI R7 load(1, XDATA, add(CFA_XSP16, literal(-6)))
          CFI ?RET_LOW load(1, XDATA, add(CFA_XSP16, literal(-5)))
          CFI ?RET_HIGH load(1, XDATA, add(CFA_XSP16, literal(-4)))
          CFI ?BRET_EXT load(1, XDATA, add(CFA_XSP16, literal(-3)))
          CFI DPL0 load(1, XDATA, add(CFA_XSP16, literal(-2)))
          CFI DPH0 load(1, XDATA, add(CFA_XSP16, literal(-1)))
          CFI CFA_SP SP+-2
          CFI CFA_XSP16 add(XSP16, 63)
          CFI Block cfiCond165 Using cfiCommon0
          CFI (cfiCond165) Function zha_project_ProcessInReportCmd
          CFI (cfiCond165) Conditional ??CrossCallReturnLabel_44
          CFI (cfiCond165) R6 load(1, XDATA, add(CFA_XSP16, literal(-20)))
          CFI (cfiCond165) VB load(1, XDATA, add(CFA_XSP16, literal(-19)))
          CFI (cfiCond165) V0 load(1, XDATA, add(CFA_XSP16, literal(-18)))
          CFI (cfiCond165) V1 load(1, XDATA, add(CFA_XSP16, literal(-17)))
          CFI (cfiCond165) V2 load(1, XDATA, add(CFA_XSP16, literal(-16)))
          CFI (cfiCond165) V3 load(1, XDATA, add(CFA_XSP16, literal(-15)))
          CFI (cfiCond165) V4 load(1, XDATA, add(CFA_XSP16, literal(-14)))
          CFI (cfiCond165) V5 load(1, XDATA, add(CFA_XSP16, literal(-13)))
          CFI (cfiCond165) V6 load(1, XDATA, add(CFA_XSP16, literal(-12)))
          CFI (cfiCond165) V7 load(1, XDATA, add(CFA_XSP16, literal(-11)))
          CFI (cfiCond165) V8 load(1, XDATA, add(CFA_XSP16, literal(-10)))
          CFI (cfiCond165) V9 load(1, XDATA, add(CFA_XSP16, literal(-9)))
          CFI (cfiCond165) V10 load(1, XDATA, add(CFA_XSP16, literal(-8)))
          CFI (cfiCond165) V11 load(1, XDATA, add(CFA_XSP16, literal(-7)))
          CFI (cfiCond165) R7 load(1, XDATA, add(CFA_XSP16, literal(-6)))
          CFI (cfiCond165) ?RET_LOW load(1, XDATA, add(CFA_XSP16, literal(-5)))
          CFI (cfiCond165) ?RET_HIGH load(1, XDATA, add(CFA_XSP16, literal(-4)))
          CFI (cfiCond165) ?BRET_EXT load(1, XDATA, add(CFA_XSP16, literal(-3)))
          CFI (cfiCond165) DPL0 load(1, XDATA, add(CFA_XSP16, literal(-2)))
          CFI (cfiCond165) DPH0 load(1, XDATA, add(CFA_XSP16, literal(-1)))
          CFI (cfiCond165) CFA_SP SP+-2
          CFI (cfiCond165) CFA_XSP16 add(XSP16, 63)
          CFI Block cfiPicker166 Using cfiCommon1
          CFI (cfiPicker166) NoFunction
          CFI (cfiPicker166) Picker
        LCALL   ?Subroutine34 & 0xFFFF
??CrossCallReturnLabel_107:
        MOVX    A,@DPTR
        MOV     ?V4,A
        INC     DPTR
        MOVX    A,@DPTR
        MOV     ?V5,A
        MOV     R0,#?V4
        RET
          CFI EndBlock cfiCond164
          CFI EndBlock cfiCond165
          CFI EndBlock cfiPicker166

        RSEG BANKED_CODE:CODE:NOROOT(0)
?Subroutine34:
          CFI Block cfiCond167 Using cfiCommon0
          CFI Function zha_project_ProcessInReadRspCmd
          CFI Conditional ??CrossCallReturnLabel_108, ??CrossCallReturnLabel_105, ??CrossCallReturnLabel_59, ??CrossCallReturnLabel_77
          CFI R6 load(1, XDATA, add(CFA_XSP16, literal(-20)))
          CFI VB load(1, XDATA, add(CFA_XSP16, literal(-19)))
          CFI V0 load(1, XDATA, add(CFA_XSP16, literal(-18)))
          CFI V1 load(1, XDATA, add(CFA_XSP16, literal(-17)))
          CFI V2 load(1, XDATA, add(CFA_XSP16, literal(-16)))
          CFI V3 load(1, XDATA, add(CFA_XSP16, literal(-15)))
          CFI V4 load(1, XDATA, add(CFA_XSP16, literal(-14)))
          CFI V5 load(1, XDATA, add(CFA_XSP16, literal(-13)))
          CFI V6 load(1, XDATA, add(CFA_XSP16, literal(-12)))
          CFI V7 load(1, XDATA, add(CFA_XSP16, literal(-11)))
          CFI V8 load(1, XDATA, add(CFA_XSP16, literal(-10)))
          CFI V9 load(1, XDATA, add(CFA_XSP16, literal(-9)))
          CFI V10 load(1, XDATA, add(CFA_XSP16, literal(-8)))
          CFI V11 load(1, XDATA, add(CFA_XSP16, literal(-7)))
          CFI R7 load(1, XDATA, add(CFA_XSP16, literal(-6)))
          CFI ?RET_LOW load(1, XDATA, add(CFA_XSP16, literal(-5)))
          CFI ?RET_HIGH load(1, XDATA, add(CFA_XSP16, literal(-4)))
          CFI ?BRET_EXT load(1, XDATA, add(CFA_XSP16, literal(-3)))
          CFI DPL0 load(1, XDATA, add(CFA_XSP16, literal(-2)))
          CFI DPH0 load(1, XDATA, add(CFA_XSP16, literal(-1)))
          CFI CFA_SP SP+-8
          CFI CFA_XSP16 add(XSP16, 63)
          CFI Block cfiCond168 Using cfiCommon0
          CFI (cfiCond168) Function zha_project_ProcessInReadRspCmd
          CFI (cfiCond168) Conditional ??CrossCallReturnLabel_108, ??CrossCallReturnLabel_105, ??CrossCallReturnLabel_59, ??CrossCallReturnLabel_78
          CFI (cfiCond168) R6 load(1, XDATA, add(CFA_XSP16, literal(-20)))
          CFI (cfiCond168) VB load(1, XDATA, add(CFA_XSP16, literal(-19)))
          CFI (cfiCond168) V0 load(1, XDATA, add(CFA_XSP16, literal(-18)))
          CFI (cfiCond168) V1 load(1, XDATA, add(CFA_XSP16, literal(-17)))
          CFI (cfiCond168) V2 load(1, XDATA, add(CFA_XSP16, literal(-16)))
          CFI (cfiCond168) V3 load(1, XDATA, add(CFA_XSP16, literal(-15)))
          CFI (cfiCond168) V4 load(1, XDATA, add(CFA_XSP16, literal(-14)))
          CFI (cfiCond168) V5 load(1, XDATA, add(CFA_XSP16, literal(-13)))
          CFI (cfiCond168) V6 load(1, XDATA, add(CFA_XSP16, literal(-12)))
          CFI (cfiCond168) V7 load(1, XDATA, add(CFA_XSP16, literal(-11)))
          CFI (cfiCond168) V8 load(1, XDATA, add(CFA_XSP16, literal(-10)))
          CFI (cfiCond168) V9 load(1, XDATA, add(CFA_XSP16, literal(-9)))
          CFI (cfiCond168) V10 load(1, XDATA, add(CFA_XSP16, literal(-8)))
          CFI (cfiCond168) V11 load(1, XDATA, add(CFA_XSP16, literal(-7)))
          CFI (cfiCond168) R7 load(1, XDATA, add(CFA_XSP16, literal(-6)))
          CFI (cfiCond168) ?RET_LOW load(1, XDATA, add(CFA_XSP16, literal(-5)))
          CFI (cfiCond168) ?RET_HIGH load(1, XDATA, add(CFA_XSP16, literal(-4)))
          CFI (cfiCond168) ?BRET_EXT load(1, XDATA, add(CFA_XSP16, literal(-3)))
          CFI (cfiCond168) DPL0 load(1, XDATA, add(CFA_XSP16, literal(-2)))
          CFI (cfiCond168) DPH0 load(1, XDATA, add(CFA_XSP16, literal(-1)))
          CFI (cfiCond168) CFA_SP SP+-8
          CFI (cfiCond168) CFA_XSP16 add(XSP16, 63)
          CFI Block cfiCond169 Using cfiCommon0
          CFI (cfiCond169) Function zha_project_ProcessInReadRspCmd
          CFI (cfiCond169) Conditional ??CrossCallReturnLabel_108, ??CrossCallReturnLabel_105, ??CrossCallReturnLabel_60, ??CrossCallReturnLabel_81
          CFI (cfiCond169) R6 load(1, XDATA, add(CFA_XSP16, literal(-20)))
          CFI (cfiCond169) VB load(1, XDATA, add(CFA_XSP16, literal(-19)))
          CFI (cfiCond169) V0 load(1, XDATA, add(CFA_XSP16, literal(-18)))
          CFI (cfiCond169) V1 load(1, XDATA, add(CFA_XSP16, literal(-17)))
          CFI (cfiCond169) V2 load(1, XDATA, add(CFA_XSP16, literal(-16)))
          CFI (cfiCond169) V3 load(1, XDATA, add(CFA_XSP16, literal(-15)))
          CFI (cfiCond169) V4 load(1, XDATA, add(CFA_XSP16, literal(-14)))
          CFI (cfiCond169) V5 load(1, XDATA, add(CFA_XSP16, literal(-13)))
          CFI (cfiCond169) V6 load(1, XDATA, add(CFA_XSP16, literal(-12)))
          CFI (cfiCond169) V7 load(1, XDATA, add(CFA_XSP16, literal(-11)))
          CFI (cfiCond169) V8 load(1, XDATA, add(CFA_XSP16, literal(-10)))
          CFI (cfiCond169) V9 load(1, XDATA, add(CFA_XSP16, literal(-9)))
          CFI (cfiCond169) V10 load(1, XDATA, add(CFA_XSP16, literal(-8)))
          CFI (cfiCond169) V11 load(1, XDATA, add(CFA_XSP16, literal(-7)))
          CFI (cfiCond169) R7 load(1, XDATA, add(CFA_XSP16, literal(-6)))
          CFI (cfiCond169) ?RET_LOW load(1, XDATA, add(CFA_XSP16, literal(-5)))
          CFI (cfiCond169) ?RET_HIGH load(1, XDATA, add(CFA_XSP16, literal(-4)))
          CFI (cfiCond169) ?BRET_EXT load(1, XDATA, add(CFA_XSP16, literal(-3)))
          CFI (cfiCond169) DPL0 load(1, XDATA, add(CFA_XSP16, literal(-2)))
          CFI (cfiCond169) DPH0 load(1, XDATA, add(CFA_XSP16, literal(-1)))
          CFI (cfiCond169) CFA_SP SP+-8
          CFI (cfiCond169) CFA_XSP16 add(XSP16, 63)
          CFI Block cfiCond170 Using cfiCommon0
          CFI (cfiCond170) Function zha_project_ProcessInReadRspCmd
          CFI (cfiCond170) Conditional ??CrossCallReturnLabel_108, ??CrossCallReturnLabel_105, ??CrossCallReturnLabel_60, ??CrossCallReturnLabel_82
          CFI (cfiCond170) R6 load(1, XDATA, add(CFA_XSP16, literal(-20)))
          CFI (cfiCond170) VB load(1, XDATA, add(CFA_XSP16, literal(-19)))
          CFI (cfiCond170) V0 load(1, XDATA, add(CFA_XSP16, literal(-18)))
          CFI (cfiCond170) V1 load(1, XDATA, add(CFA_XSP16, literal(-17)))
          CFI (cfiCond170) V2 load(1, XDATA, add(CFA_XSP16, literal(-16)))
          CFI (cfiCond170) V3 load(1, XDATA, add(CFA_XSP16, literal(-15)))
          CFI (cfiCond170) V4 load(1, XDATA, add(CFA_XSP16, literal(-14)))
          CFI (cfiCond170) V5 load(1, XDATA, add(CFA_XSP16, literal(-13)))
          CFI (cfiCond170) V6 load(1, XDATA, add(CFA_XSP16, literal(-12)))
          CFI (cfiCond170) V7 load(1, XDATA, add(CFA_XSP16, literal(-11)))
          CFI (cfiCond170) V8 load(1, XDATA, add(CFA_XSP16, literal(-10)))
          CFI (cfiCond170) V9 load(1, XDATA, add(CFA_XSP16, literal(-9)))
          CFI (cfiCond170) V10 load(1, XDATA, add(CFA_XSP16, literal(-8)))
          CFI (cfiCond170) V11 load(1, XDATA, add(CFA_XSP16, literal(-7)))
          CFI (cfiCond170) R7 load(1, XDATA, add(CFA_XSP16, literal(-6)))
          CFI (cfiCond170) ?RET_LOW load(1, XDATA, add(CFA_XSP16, literal(-5)))
          CFI (cfiCond170) ?RET_HIGH load(1, XDATA, add(CFA_XSP16, literal(-4)))
          CFI (cfiCond170) ?BRET_EXT load(1, XDATA, add(CFA_XSP16, literal(-3)))
          CFI (cfiCond170) DPL0 load(1, XDATA, add(CFA_XSP16, literal(-2)))
          CFI (cfiCond170) DPH0 load(1, XDATA, add(CFA_XSP16, literal(-1)))
          CFI (cfiCond170) CFA_SP SP+-8
          CFI (cfiCond170) CFA_XSP16 add(XSP16, 63)
          CFI Block cfiCond171 Using cfiCommon0
          CFI (cfiCond171) Function zha_project_ProcessInReadRspCmd
          CFI (cfiCond171) Conditional ??CrossCallReturnLabel_108, ??CrossCallReturnLabel_105, ??CrossCallReturnLabel_60, ??CrossCallReturnLabel_83
          CFI (cfiCond171) R6 load(1, XDATA, add(CFA_XSP16, literal(-20)))
          CFI (cfiCond171) VB load(1, XDATA, add(CFA_XSP16, literal(-19)))
          CFI (cfiCond171) V0 load(1, XDATA, add(CFA_XSP16, literal(-18)))
          CFI (cfiCond171) V1 load(1, XDATA, add(CFA_XSP16, literal(-17)))
          CFI (cfiCond171) V2 load(1, XDATA, add(CFA_XSP16, literal(-16)))
          CFI (cfiCond171) V3 load(1, XDATA, add(CFA_XSP16, literal(-15)))
          CFI (cfiCond171) V4 load(1, XDATA, add(CFA_XSP16, literal(-14)))
          CFI (cfiCond171) V5 load(1, XDATA, add(CFA_XSP16, literal(-13)))
          CFI (cfiCond171) V6 load(1, XDATA, add(CFA_XSP16, literal(-12)))
          CFI (cfiCond171) V7 load(1, XDATA, add(CFA_XSP16, literal(-11)))
          CFI (cfiCond171) V8 load(1, XDATA, add(CFA_XSP16, literal(-10)))
          CFI (cfiCond171) V9 load(1, XDATA, add(CFA_XSP16, literal(-9)))
          CFI (cfiCond171) V10 load(1, XDATA, add(CFA_XSP16, literal(-8)))
          CFI (cfiCond171) V11 load(1, XDATA, add(CFA_XSP16, literal(-7)))
          CFI (cfiCond171) R7 load(1, XDATA, add(CFA_XSP16, literal(-6)))
          CFI (cfiCond171) ?RET_LOW load(1, XDATA, add(CFA_XSP16, literal(-5)))
          CFI (cfiCond171) ?RET_HIGH load(1, XDATA, add(CFA_XSP16, literal(-4)))
          CFI (cfiCond171) ?BRET_EXT load(1, XDATA, add(CFA_XSP16, literal(-3)))
          CFI (cfiCond171) DPL0 load(1, XDATA, add(CFA_XSP16, literal(-2)))
          CFI (cfiCond171) DPH0 load(1, XDATA, add(CFA_XSP16, literal(-1)))
          CFI (cfiCond171) CFA_SP SP+-8
          CFI (cfiCond171) CFA_XSP16 add(XSP16, 63)
          CFI Block cfiCond172 Using cfiCommon0
          CFI (cfiCond172) Function zha_project_ProcessInReadRspCmd
          CFI (cfiCond172) Conditional ??CrossCallReturnLabel_108, ??CrossCallReturnLabel_105, ??CrossCallReturnLabel_60, ??CrossCallReturnLabel_84
          CFI (cfiCond172) R6 load(1, XDATA, add(CFA_XSP16, literal(-20)))
          CFI (cfiCond172) VB load(1, XDATA, add(CFA_XSP16, literal(-19)))
          CFI (cfiCond172) V0 load(1, XDATA, add(CFA_XSP16, literal(-18)))
          CFI (cfiCond172) V1 load(1, XDATA, add(CFA_XSP16, literal(-17)))
          CFI (cfiCond172) V2 load(1, XDATA, add(CFA_XSP16, literal(-16)))
          CFI (cfiCond172) V3 load(1, XDATA, add(CFA_XSP16, literal(-15)))
          CFI (cfiCond172) V4 load(1, XDATA, add(CFA_XSP16, literal(-14)))
          CFI (cfiCond172) V5 load(1, XDATA, add(CFA_XSP16, literal(-13)))
          CFI (cfiCond172) V6 load(1, XDATA, add(CFA_XSP16, literal(-12)))
          CFI (cfiCond172) V7 load(1, XDATA, add(CFA_XSP16, literal(-11)))
          CFI (cfiCond172) V8 load(1, XDATA, add(CFA_XSP16, literal(-10)))
          CFI (cfiCond172) V9 load(1, XDATA, add(CFA_XSP16, literal(-9)))
          CFI (cfiCond172) V10 load(1, XDATA, add(CFA_XSP16, literal(-8)))
          CFI (cfiCond172) V11 load(1, XDATA, add(CFA_XSP16, literal(-7)))
          CFI (cfiCond172) R7 load(1, XDATA, add(CFA_XSP16, literal(-6)))
          CFI (cfiCond172) ?RET_LOW load(1, XDATA, add(CFA_XSP16, literal(-5)))
          CFI (cfiCond172) ?RET_HIGH load(1, XDATA, add(CFA_XSP16, literal(-4)))
          CFI (cfiCond172) ?BRET_EXT load(1, XDATA, add(CFA_XSP16, literal(-3)))
          CFI (cfiCond172) DPL0 load(1, XDATA, add(CFA_XSP16, literal(-2)))
          CFI (cfiCond172) DPH0 load(1, XDATA, add(CFA_XSP16, literal(-1)))
          CFI (cfiCond172) CFA_SP SP+-8
          CFI (cfiCond172) CFA_XSP16 add(XSP16, 63)
          CFI Block cfiCond173 Using cfiCommon0
          CFI (cfiCond173) Function zha_project_ProcessInReadRspCmd
          CFI (cfiCond173) Conditional ??CrossCallReturnLabel_108, ??CrossCallReturnLabel_105, ??CrossCallReturnLabel_60, ??CrossCallReturnLabel_85
          CFI (cfiCond173) R6 load(1, XDATA, add(CFA_XSP16, literal(-20)))
          CFI (cfiCond173) VB load(1, XDATA, add(CFA_XSP16, literal(-19)))
          CFI (cfiCond173) V0 load(1, XDATA, add(CFA_XSP16, literal(-18)))
          CFI (cfiCond173) V1 load(1, XDATA, add(CFA_XSP16, literal(-17)))
          CFI (cfiCond173) V2 load(1, XDATA, add(CFA_XSP16, literal(-16)))
          CFI (cfiCond173) V3 load(1, XDATA, add(CFA_XSP16, literal(-15)))
          CFI (cfiCond173) V4 load(1, XDATA, add(CFA_XSP16, literal(-14)))
          CFI (cfiCond173) V5 load(1, XDATA, add(CFA_XSP16, literal(-13)))
          CFI (cfiCond173) V6 load(1, XDATA, add(CFA_XSP16, literal(-12)))
          CFI (cfiCond173) V7 load(1, XDATA, add(CFA_XSP16, literal(-11)))
          CFI (cfiCond173) V8 load(1, XDATA, add(CFA_XSP16, literal(-10)))
          CFI (cfiCond173) V9 load(1, XDATA, add(CFA_XSP16, literal(-9)))
          CFI (cfiCond173) V10 load(1, XDATA, add(CFA_XSP16, literal(-8)))
          CFI (cfiCond173) V11 load(1, XDATA, add(CFA_XSP16, literal(-7)))
          CFI (cfiCond173) R7 load(1, XDATA, add(CFA_XSP16, literal(-6)))
          CFI (cfiCond173) ?RET_LOW load(1, XDATA, add(CFA_XSP16, literal(-5)))
          CFI (cfiCond173) ?RET_HIGH load(1, XDATA, add(CFA_XSP16, literal(-4)))
          CFI (cfiCond173) ?BRET_EXT load(1, XDATA, add(CFA_XSP16, literal(-3)))
          CFI (cfiCond173) DPL0 load(1, XDATA, add(CFA_XSP16, literal(-2)))
          CFI (cfiCond173) DPH0 load(1, XDATA, add(CFA_XSP16, literal(-1)))
          CFI (cfiCond173) CFA_SP SP+-8
          CFI (cfiCond173) CFA_XSP16 add(XSP16, 63)
          CFI Block cfiCond174 Using cfiCommon0
          CFI (cfiCond174) Function zha_project_ProcessInReportCmd
          CFI (cfiCond174) Conditional ??CrossCallReturnLabel_108, ??CrossCallReturnLabel_106, ??CrossCallReturnLabel_104, ??CrossCallReturnLabel_95
          CFI (cfiCond174) R6 load(1, XDATA, add(CFA_XSP16, literal(-20)))
          CFI (cfiCond174) VB load(1, XDATA, add(CFA_XSP16, literal(-19)))
          CFI (cfiCond174) V0 load(1, XDATA, add(CFA_XSP16, literal(-18)))
          CFI (cfiCond174) V1 load(1, XDATA, add(CFA_XSP16, literal(-17)))
          CFI (cfiCond174) V2 load(1, XDATA, add(CFA_XSP16, literal(-16)))
          CFI (cfiCond174) V3 load(1, XDATA, add(CFA_XSP16, literal(-15)))
          CFI (cfiCond174) V4 load(1, XDATA, add(CFA_XSP16, literal(-14)))
          CFI (cfiCond174) V5 load(1, XDATA, add(CFA_XSP16, literal(-13)))
          CFI (cfiCond174) V6 load(1, XDATA, add(CFA_XSP16, literal(-12)))
          CFI (cfiCond174) V7 load(1, XDATA, add(CFA_XSP16, literal(-11)))
          CFI (cfiCond174) V8 load(1, XDATA, add(CFA_XSP16, literal(-10)))
          CFI (cfiCond174) V9 load(1, XDATA, add(CFA_XSP16, literal(-9)))
          CFI (cfiCond174) V10 load(1, XDATA, add(CFA_XSP16, literal(-8)))
          CFI (cfiCond174) V11 load(1, XDATA, add(CFA_XSP16, literal(-7)))
          CFI (cfiCond174) R7 load(1, XDATA, add(CFA_XSP16, literal(-6)))
          CFI (cfiCond174) ?RET_LOW load(1, XDATA, add(CFA_XSP16, literal(-5)))
          CFI (cfiCond174) ?RET_HIGH load(1, XDATA, add(CFA_XSP16, literal(-4)))
          CFI (cfiCond174) ?BRET_EXT load(1, XDATA, add(CFA_XSP16, literal(-3)))
          CFI (cfiCond174) DPL0 load(1, XDATA, add(CFA_XSP16, literal(-2)))
          CFI (cfiCond174) DPH0 load(1, XDATA, add(CFA_XSP16, literal(-1)))
          CFI (cfiCond174) CFA_SP SP+-8
          CFI (cfiCond174) CFA_XSP16 add(XSP16, 63)
          CFI Block cfiCond175 Using cfiCommon0
          CFI (cfiCond175) Function zha_project_ProcessInReportCmd
          CFI (cfiCond175) Conditional ??CrossCallReturnLabel_108, ??CrossCallReturnLabel_106, ??CrossCallReturnLabel_104, ??CrossCallReturnLabel_96
          CFI (cfiCond175) R6 load(1, XDATA, add(CFA_XSP16, literal(-20)))
          CFI (cfiCond175) VB load(1, XDATA, add(CFA_XSP16, literal(-19)))
          CFI (cfiCond175) V0 load(1, XDATA, add(CFA_XSP16, literal(-18)))
          CFI (cfiCond175) V1 load(1, XDATA, add(CFA_XSP16, literal(-17)))
          CFI (cfiCond175) V2 load(1, XDATA, add(CFA_XSP16, literal(-16)))
          CFI (cfiCond175) V3 load(1, XDATA, add(CFA_XSP16, literal(-15)))
          CFI (cfiCond175) V4 load(1, XDATA, add(CFA_XSP16, literal(-14)))
          CFI (cfiCond175) V5 load(1, XDATA, add(CFA_XSP16, literal(-13)))
          CFI (cfiCond175) V6 load(1, XDATA, add(CFA_XSP16, literal(-12)))
          CFI (cfiCond175) V7 load(1, XDATA, add(CFA_XSP16, literal(-11)))
          CFI (cfiCond175) V8 load(1, XDATA, add(CFA_XSP16, literal(-10)))
          CFI (cfiCond175) V9 load(1, XDATA, add(CFA_XSP16, literal(-9)))
          CFI (cfiCond175) V10 load(1, XDATA, add(CFA_XSP16, literal(-8)))
          CFI (cfiCond175) V11 load(1, XDATA, add(CFA_XSP16, literal(-7)))
          CFI (cfiCond175) R7 load(1, XDATA, add(CFA_XSP16, literal(-6)))
          CFI (cfiCond175) ?RET_LOW load(1, XDATA, add(CFA_XSP16, literal(-5)))
          CFI (cfiCond175) ?RET_HIGH load(1, XDATA, add(CFA_XSP16, literal(-4)))
          CFI (cfiCond175) ?BRET_EXT load(1, XDATA, add(CFA_XSP16, literal(-3)))
          CFI (cfiCond175) DPL0 load(1, XDATA, add(CFA_XSP16, literal(-2)))
          CFI (cfiCond175) DPH0 load(1, XDATA, add(CFA_XSP16, literal(-1)))
          CFI (cfiCond175) CFA_SP SP+-8
          CFI (cfiCond175) CFA_XSP16 add(XSP16, 63)
          CFI Block cfiCond176 Using cfiCommon0
          CFI (cfiCond176) Function zha_project_ProcessInReportCmd
          CFI (cfiCond176) Conditional ??CrossCallReturnLabel_108, ??CrossCallReturnLabel_106, ??CrossCallReturnLabel_104, ??CrossCallReturnLabel_97
          CFI (cfiCond176) R6 load(1, XDATA, add(CFA_XSP16, literal(-20)))
          CFI (cfiCond176) VB load(1, XDATA, add(CFA_XSP16, literal(-19)))
          CFI (cfiCond176) V0 load(1, XDATA, add(CFA_XSP16, literal(-18)))
          CFI (cfiCond176) V1 load(1, XDATA, add(CFA_XSP16, literal(-17)))
          CFI (cfiCond176) V2 load(1, XDATA, add(CFA_XSP16, literal(-16)))
          CFI (cfiCond176) V3 load(1, XDATA, add(CFA_XSP16, literal(-15)))
          CFI (cfiCond176) V4 load(1, XDATA, add(CFA_XSP16, literal(-14)))
          CFI (cfiCond176) V5 load(1, XDATA, add(CFA_XSP16, literal(-13)))
          CFI (cfiCond176) V6 load(1, XDATA, add(CFA_XSP16, literal(-12)))
          CFI (cfiCond176) V7 load(1, XDATA, add(CFA_XSP16, literal(-11)))
          CFI (cfiCond176) V8 load(1, XDATA, add(CFA_XSP16, literal(-10)))
          CFI (cfiCond176) V9 load(1, XDATA, add(CFA_XSP16, literal(-9)))
          CFI (cfiCond176) V10 load(1, XDATA, add(CFA_XSP16, literal(-8)))
          CFI (cfiCond176) V11 load(1, XDATA, add(CFA_XSP16, literal(-7)))
          CFI (cfiCond176) R7 load(1, XDATA, add(CFA_XSP16, literal(-6)))
          CFI (cfiCond176) ?RET_LOW load(1, XDATA, add(CFA_XSP16, literal(-5)))
          CFI (cfiCond176) ?RET_HIGH load(1, XDATA, add(CFA_XSP16, literal(-4)))
          CFI (cfiCond176) ?BRET_EXT load(1, XDATA, add(CFA_XSP16, literal(-3)))
          CFI (cfiCond176) DPL0 load(1, XDATA, add(CFA_XSP16, literal(-2)))
          CFI (cfiCond176) DPH0 load(1, XDATA, add(CFA_XSP16, literal(-1)))
          CFI (cfiCond176) CFA_SP SP+-8
          CFI (cfiCond176) CFA_XSP16 add(XSP16, 63)
          CFI Block cfiCond177 Using cfiCommon0
          CFI (cfiCond177) Function zha_project_ProcessInReportCmd
          CFI (cfiCond177) Conditional ??CrossCallReturnLabel_108, ??CrossCallReturnLabel_106, ??CrossCallReturnLabel_104, ??CrossCallReturnLabel_98
          CFI (cfiCond177) R6 load(1, XDATA, add(CFA_XSP16, literal(-20)))
          CFI (cfiCond177) VB load(1, XDATA, add(CFA_XSP16, literal(-19)))
          CFI (cfiCond177) V0 load(1, XDATA, add(CFA_XSP16, literal(-18)))
          CFI (cfiCond177) V1 load(1, XDATA, add(CFA_XSP16, literal(-17)))
          CFI (cfiCond177) V2 load(1, XDATA, add(CFA_XSP16, literal(-16)))
          CFI (cfiCond177) V3 load(1, XDATA, add(CFA_XSP16, literal(-15)))
          CFI (cfiCond177) V4 load(1, XDATA, add(CFA_XSP16, literal(-14)))
          CFI (cfiCond177) V5 load(1, XDATA, add(CFA_XSP16, literal(-13)))
          CFI (cfiCond177) V6 load(1, XDATA, add(CFA_XSP16, literal(-12)))
          CFI (cfiCond177) V7 load(1, XDATA, add(CFA_XSP16, literal(-11)))
          CFI (cfiCond177) V8 load(1, XDATA, add(CFA_XSP16, literal(-10)))
          CFI (cfiCond177) V9 load(1, XDATA, add(CFA_XSP16, literal(-9)))
          CFI (cfiCond177) V10 load(1, XDATA, add(CFA_XSP16, literal(-8)))
          CFI (cfiCond177) V11 load(1, XDATA, add(CFA_XSP16, literal(-7)))
          CFI (cfiCond177) R7 load(1, XDATA, add(CFA_XSP16, literal(-6)))
          CFI (cfiCond177) ?RET_LOW load(1, XDATA, add(CFA_XSP16, literal(-5)))
          CFI (cfiCond177) ?RET_HIGH load(1, XDATA, add(CFA_XSP16, literal(-4)))
          CFI (cfiCond177) ?BRET_EXT load(1, XDATA, add(CFA_XSP16, literal(-3)))
          CFI (cfiCond177) DPL0 load(1, XDATA, add(CFA_XSP16, literal(-2)))
          CFI (cfiCond177) DPH0 load(1, XDATA, add(CFA_XSP16, literal(-1)))
          CFI (cfiCond177) CFA_SP SP+-8
          CFI (cfiCond177) CFA_XSP16 add(XSP16, 63)
          CFI Block cfiCond178 Using cfiCommon0
          CFI (cfiCond178) Function zha_project_ProcessInReportCmd
          CFI (cfiCond178) Conditional ??CrossCallReturnLabel_108, ??CrossCallReturnLabel_106, ??CrossCallReturnLabel_104, ??CrossCallReturnLabel_99
          CFI (cfiCond178) R6 load(1, XDATA, add(CFA_XSP16, literal(-20)))
          CFI (cfiCond178) VB load(1, XDATA, add(CFA_XSP16, literal(-19)))
          CFI (cfiCond178) V0 load(1, XDATA, add(CFA_XSP16, literal(-18)))
          CFI (cfiCond178) V1 load(1, XDATA, add(CFA_XSP16, literal(-17)))
          CFI (cfiCond178) V2 load(1, XDATA, add(CFA_XSP16, literal(-16)))
          CFI (cfiCond178) V3 load(1, XDATA, add(CFA_XSP16, literal(-15)))
          CFI (cfiCond178) V4 load(1, XDATA, add(CFA_XSP16, literal(-14)))
          CFI (cfiCond178) V5 load(1, XDATA, add(CFA_XSP16, literal(-13)))
          CFI (cfiCond178) V6 load(1, XDATA, add(CFA_XSP16, literal(-12)))
          CFI (cfiCond178) V7 load(1, XDATA, add(CFA_XSP16, literal(-11)))
          CFI (cfiCond178) V8 load(1, XDATA, add(CFA_XSP16, literal(-10)))
          CFI (cfiCond178) V9 load(1, XDATA, add(CFA_XSP16, literal(-9)))
          CFI (cfiCond178) V10 load(1, XDATA, add(CFA_XSP16, literal(-8)))
          CFI (cfiCond178) V11 load(1, XDATA, add(CFA_XSP16, literal(-7)))
          CFI (cfiCond178) R7 load(1, XDATA, add(CFA_XSP16, literal(-6)))
          CFI (cfiCond178) ?RET_LOW load(1, XDATA, add(CFA_XSP16, literal(-5)))
          CFI (cfiCond178) ?RET_HIGH load(1, XDATA, add(CFA_XSP16, literal(-4)))
          CFI (cfiCond178) ?BRET_EXT load(1, XDATA, add(CFA_XSP16, literal(-3)))
          CFI (cfiCond178) DPL0 load(1, XDATA, add(CFA_XSP16, literal(-2)))
          CFI (cfiCond178) DPH0 load(1, XDATA, add(CFA_XSP16, literal(-1)))
          CFI (cfiCond178) CFA_SP SP+-8
          CFI (cfiCond178) CFA_XSP16 add(XSP16, 63)
          CFI Block cfiCond179 Using cfiCommon0
          CFI (cfiCond179) Function zha_project_ProcessInReportCmd
          CFI (cfiCond179) Conditional ??CrossCallReturnLabel_108, ??CrossCallReturnLabel_106, ??CrossCallReturnLabel_104, ??CrossCallReturnLabel_100
          CFI (cfiCond179) R6 load(1, XDATA, add(CFA_XSP16, literal(-20)))
          CFI (cfiCond179) VB load(1, XDATA, add(CFA_XSP16, literal(-19)))
          CFI (cfiCond179) V0 load(1, XDATA, add(CFA_XSP16, literal(-18)))
          CFI (cfiCond179) V1 load(1, XDATA, add(CFA_XSP16, literal(-17)))
          CFI (cfiCond179) V2 load(1, XDATA, add(CFA_XSP16, literal(-16)))
          CFI (cfiCond179) V3 load(1, XDATA, add(CFA_XSP16, literal(-15)))
          CFI (cfiCond179) V4 load(1, XDATA, add(CFA_XSP16, literal(-14)))
          CFI (cfiCond179) V5 load(1, XDATA, add(CFA_XSP16, literal(-13)))
          CFI (cfiCond179) V6 load(1, XDATA, add(CFA_XSP16, literal(-12)))
          CFI (cfiCond179) V7 load(1, XDATA, add(CFA_XSP16, literal(-11)))
          CFI (cfiCond179) V8 load(1, XDATA, add(CFA_XSP16, literal(-10)))
          CFI (cfiCond179) V9 load(1, XDATA, add(CFA_XSP16, literal(-9)))
          CFI (cfiCond179) V10 load(1, XDATA, add(CFA_XSP16, literal(-8)))
          CFI (cfiCond179) V11 load(1, XDATA, add(CFA_XSP16, literal(-7)))
          CFI (cfiCond179) R7 load(1, XDATA, add(CFA_XSP16, literal(-6)))
          CFI (cfiCond179) ?RET_LOW load(1, XDATA, add(CFA_XSP16, literal(-5)))
          CFI (cfiCond179) ?RET_HIGH load(1, XDATA, add(CFA_XSP16, literal(-4)))
          CFI (cfiCond179) ?BRET_EXT load(1, XDATA, add(CFA_XSP16, literal(-3)))
          CFI (cfiCond179) DPL0 load(1, XDATA, add(CFA_XSP16, literal(-2)))
          CFI (cfiCond179) DPH0 load(1, XDATA, add(CFA_XSP16, literal(-1)))
          CFI (cfiCond179) CFA_SP SP+-8
          CFI (cfiCond179) CFA_XSP16 add(XSP16, 63)
          CFI Block cfiCond180 Using cfiCommon0
          CFI (cfiCond180) Function zha_project_ProcessInReportCmd
          CFI (cfiCond180) Conditional ??CrossCallReturnLabel_108, ??CrossCallReturnLabel_106, ??CrossCallReturnLabel_104, ??CrossCallReturnLabel_101
          CFI (cfiCond180) R6 load(1, XDATA, add(CFA_XSP16, literal(-20)))
          CFI (cfiCond180) VB load(1, XDATA, add(CFA_XSP16, literal(-19)))
          CFI (cfiCond180) V0 load(1, XDATA, add(CFA_XSP16, literal(-18)))
          CFI (cfiCond180) V1 load(1, XDATA, add(CFA_XSP16, literal(-17)))
          CFI (cfiCond180) V2 load(1, XDATA, add(CFA_XSP16, literal(-16)))
          CFI (cfiCond180) V3 load(1, XDATA, add(CFA_XSP16, literal(-15)))
          CFI (cfiCond180) V4 load(1, XDATA, add(CFA_XSP16, literal(-14)))
          CFI (cfiCond180) V5 load(1, XDATA, add(CFA_XSP16, literal(-13)))
          CFI (cfiCond180) V6 load(1, XDATA, add(CFA_XSP16, literal(-12)))
          CFI (cfiCond180) V7 load(1, XDATA, add(CFA_XSP16, literal(-11)))
          CFI (cfiCond180) V8 load(1, XDATA, add(CFA_XSP16, literal(-10)))
          CFI (cfiCond180) V9 load(1, XDATA, add(CFA_XSP16, literal(-9)))
          CFI (cfiCond180) V10 load(1, XDATA, add(CFA_XSP16, literal(-8)))
          CFI (cfiCond180) V11 load(1, XDATA, add(CFA_XSP16, literal(-7)))
          CFI (cfiCond180) R7 load(1, XDATA, add(CFA_XSP16, literal(-6)))
          CFI (cfiCond180) ?RET_LOW load(1, XDATA, add(CFA_XSP16, literal(-5)))
          CFI (cfiCond180) ?RET_HIGH load(1, XDATA, add(CFA_XSP16, literal(-4)))
          CFI (cfiCond180) ?BRET_EXT load(1, XDATA, add(CFA_XSP16, literal(-3)))
          CFI (cfiCond180) DPL0 load(1, XDATA, add(CFA_XSP16, literal(-2)))
          CFI (cfiCond180) DPH0 load(1, XDATA, add(CFA_XSP16, literal(-1)))
          CFI (cfiCond180) CFA_SP SP+-8
          CFI (cfiCond180) CFA_XSP16 add(XSP16, 63)
          CFI Block cfiCond181 Using cfiCommon0
          CFI (cfiCond181) Function zha_project_ProcessInReportCmd
          CFI (cfiCond181) Conditional ??CrossCallReturnLabel_108, ??CrossCallReturnLabel_106, ??CrossCallReturnLabel_104, ??CrossCallReturnLabel_102
          CFI (cfiCond181) R6 load(1, XDATA, add(CFA_XSP16, literal(-20)))
          CFI (cfiCond181) VB load(1, XDATA, add(CFA_XSP16, literal(-19)))
          CFI (cfiCond181) V0 load(1, XDATA, add(CFA_XSP16, literal(-18)))
          CFI (cfiCond181) V1 load(1, XDATA, add(CFA_XSP16, literal(-17)))
          CFI (cfiCond181) V2 load(1, XDATA, add(CFA_XSP16, literal(-16)))
          CFI (cfiCond181) V3 load(1, XDATA, add(CFA_XSP16, literal(-15)))
          CFI (cfiCond181) V4 load(1, XDATA, add(CFA_XSP16, literal(-14)))
          CFI (cfiCond181) V5 load(1, XDATA, add(CFA_XSP16, literal(-13)))
          CFI (cfiCond181) V6 load(1, XDATA, add(CFA_XSP16, literal(-12)))
          CFI (cfiCond181) V7 load(1, XDATA, add(CFA_XSP16, literal(-11)))
          CFI (cfiCond181) V8 load(1, XDATA, add(CFA_XSP16, literal(-10)))
          CFI (cfiCond181) V9 load(1, XDATA, add(CFA_XSP16, literal(-9)))
          CFI (cfiCond181) V10 load(1, XDATA, add(CFA_XSP16, literal(-8)))
          CFI (cfiCond181) V11 load(1, XDATA, add(CFA_XSP16, literal(-7)))
          CFI (cfiCond181) R7 load(1, XDATA, add(CFA_XSP16, literal(-6)))
          CFI (cfiCond181) ?RET_LOW load(1, XDATA, add(CFA_XSP16, literal(-5)))
          CFI (cfiCond181) ?RET_HIGH load(1, XDATA, add(CFA_XSP16, literal(-4)))
          CFI (cfiCond181) ?BRET_EXT load(1, XDATA, add(CFA_XSP16, literal(-3)))
          CFI (cfiCond181) DPL0 load(1, XDATA, add(CFA_XSP16, literal(-2)))
          CFI (cfiCond181) DPH0 load(1, XDATA, add(CFA_XSP16, literal(-1)))
          CFI (cfiCond181) CFA_SP SP+-8
          CFI (cfiCond181) CFA_XSP16 add(XSP16, 63)
          CFI Block cfiCond182 Using cfiCommon0
          CFI (cfiCond182) Function zha_project_ProcessInReadRspCmd
          CFI (cfiCond182) Conditional ??CrossCallReturnLabel_108, ??CrossCallReturnLabel_106, ??CrossCallReturnLabel_104, ??CrossCallReturnLabel_94
          CFI (cfiCond182) R6 load(1, XDATA, add(CFA_XSP16, literal(-20)))
          CFI (cfiCond182) VB load(1, XDATA, add(CFA_XSP16, literal(-19)))
          CFI (cfiCond182) V0 load(1, XDATA, add(CFA_XSP16, literal(-18)))
          CFI (cfiCond182) V1 load(1, XDATA, add(CFA_XSP16, literal(-17)))
          CFI (cfiCond182) V2 load(1, XDATA, add(CFA_XSP16, literal(-16)))
          CFI (cfiCond182) V3 load(1, XDATA, add(CFA_XSP16, literal(-15)))
          CFI (cfiCond182) V4 load(1, XDATA, add(CFA_XSP16, literal(-14)))
          CFI (cfiCond182) V5 load(1, XDATA, add(CFA_XSP16, literal(-13)))
          CFI (cfiCond182) V6 load(1, XDATA, add(CFA_XSP16, literal(-12)))
          CFI (cfiCond182) V7 load(1, XDATA, add(CFA_XSP16, literal(-11)))
          CFI (cfiCond182) V8 load(1, XDATA, add(CFA_XSP16, literal(-10)))
          CFI (cfiCond182) V9 load(1, XDATA, add(CFA_XSP16, literal(-9)))
          CFI (cfiCond182) V10 load(1, XDATA, add(CFA_XSP16, literal(-8)))
          CFI (cfiCond182) V11 load(1, XDATA, add(CFA_XSP16, literal(-7)))
          CFI (cfiCond182) R7 load(1, XDATA, add(CFA_XSP16, literal(-6)))
          CFI (cfiCond182) ?RET_LOW load(1, XDATA, add(CFA_XSP16, literal(-5)))
          CFI (cfiCond182) ?RET_HIGH load(1, XDATA, add(CFA_XSP16, literal(-4)))
          CFI (cfiCond182) ?BRET_EXT load(1, XDATA, add(CFA_XSP16, literal(-3)))
          CFI (cfiCond182) DPL0 load(1, XDATA, add(CFA_XSP16, literal(-2)))
          CFI (cfiCond182) DPH0 load(1, XDATA, add(CFA_XSP16, literal(-1)))
          CFI (cfiCond182) CFA_SP SP+-8
          CFI (cfiCond182) CFA_XSP16 add(XSP16, 63)
          CFI Block cfiCond183 Using cfiCommon0
          CFI (cfiCond183) Function zha_project_ProcessInReadRspCmd
          CFI (cfiCond183) Conditional ??CrossCallReturnLabel_108, ??CrossCallReturnLabel_106, ??CrossCallReturnLabel_103, ??CrossCallReturnLabel_47
          CFI (cfiCond183) R6 load(1, XDATA, add(CFA_XSP16, literal(-20)))
          CFI (cfiCond183) VB load(1, XDATA, add(CFA_XSP16, literal(-19)))
          CFI (cfiCond183) V0 load(1, XDATA, add(CFA_XSP16, literal(-18)))
          CFI (cfiCond183) V1 load(1, XDATA, add(CFA_XSP16, literal(-17)))
          CFI (cfiCond183) V2 load(1, XDATA, add(CFA_XSP16, literal(-16)))
          CFI (cfiCond183) V3 load(1, XDATA, add(CFA_XSP16, literal(-15)))
          CFI (cfiCond183) V4 load(1, XDATA, add(CFA_XSP16, literal(-14)))
          CFI (cfiCond183) V5 load(1, XDATA, add(CFA_XSP16, literal(-13)))
          CFI (cfiCond183) V6 load(1, XDATA, add(CFA_XSP16, literal(-12)))
          CFI (cfiCond183) V7 load(1, XDATA, add(CFA_XSP16, literal(-11)))
          CFI (cfiCond183) V8 load(1, XDATA, add(CFA_XSP16, literal(-10)))
          CFI (cfiCond183) V9 load(1, XDATA, add(CFA_XSP16, literal(-9)))
          CFI (cfiCond183) V10 load(1, XDATA, add(CFA_XSP16, literal(-8)))
          CFI (cfiCond183) V11 load(1, XDATA, add(CFA_XSP16, literal(-7)))
          CFI (cfiCond183) R7 load(1, XDATA, add(CFA_XSP16, literal(-6)))
          CFI (cfiCond183) ?RET_LOW load(1, XDATA, add(CFA_XSP16, literal(-5)))
          CFI (cfiCond183) ?RET_HIGH load(1, XDATA, add(CFA_XSP16, literal(-4)))
          CFI (cfiCond183) ?BRET_EXT load(1, XDATA, add(CFA_XSP16, literal(-3)))
          CFI (cfiCond183) DPL0 load(1, XDATA, add(CFA_XSP16, literal(-2)))
          CFI (cfiCond183) DPH0 load(1, XDATA, add(CFA_XSP16, literal(-1)))
          CFI (cfiCond183) CFA_SP SP+-8
          CFI (cfiCond183) CFA_XSP16 add(XSP16, 63)
          CFI Block cfiCond184 Using cfiCommon0
          CFI (cfiCond184) Function zha_project_ProcessInReportCmd
          CFI (cfiCond184) Conditional ??CrossCallReturnLabel_108, ??CrossCallReturnLabel_106, ??CrossCallReturnLabel_103, ??CrossCallReturnLabel_48
          CFI (cfiCond184) R6 load(1, XDATA, add(CFA_XSP16, literal(-20)))
          CFI (cfiCond184) VB load(1, XDATA, add(CFA_XSP16, literal(-19)))
          CFI (cfiCond184) V0 load(1, XDATA, add(CFA_XSP16, literal(-18)))
          CFI (cfiCond184) V1 load(1, XDATA, add(CFA_XSP16, literal(-17)))
          CFI (cfiCond184) V2 load(1, XDATA, add(CFA_XSP16, literal(-16)))
          CFI (cfiCond184) V3 load(1, XDATA, add(CFA_XSP16, literal(-15)))
          CFI (cfiCond184) V4 load(1, XDATA, add(CFA_XSP16, literal(-14)))
          CFI (cfiCond184) V5 load(1, XDATA, add(CFA_XSP16, literal(-13)))
          CFI (cfiCond184) V6 load(1, XDATA, add(CFA_XSP16, literal(-12)))
          CFI (cfiCond184) V7 load(1, XDATA, add(CFA_XSP16, literal(-11)))
          CFI (cfiCond184) V8 load(1, XDATA, add(CFA_XSP16, literal(-10)))
          CFI (cfiCond184) V9 load(1, XDATA, add(CFA_XSP16, literal(-9)))
          CFI (cfiCond184) V10 load(1, XDATA, add(CFA_XSP16, literal(-8)))
          CFI (cfiCond184) V11 load(1, XDATA, add(CFA_XSP16, literal(-7)))
          CFI (cfiCond184) R7 load(1, XDATA, add(CFA_XSP16, literal(-6)))
          CFI (cfiCond184) ?RET_LOW load(1, XDATA, add(CFA_XSP16, literal(-5)))
          CFI (cfiCond184) ?RET_HIGH load(1, XDATA, add(CFA_XSP16, literal(-4)))
          CFI (cfiCond184) ?BRET_EXT load(1, XDATA, add(CFA_XSP16, literal(-3)))
          CFI (cfiCond184) DPL0 load(1, XDATA, add(CFA_XSP16, literal(-2)))
          CFI (cfiCond184) DPH0 load(1, XDATA, add(CFA_XSP16, literal(-1)))
          CFI (cfiCond184) CFA_SP SP+-8
          CFI (cfiCond184) CFA_XSP16 add(XSP16, 63)
          CFI Block cfiCond185 Using cfiCommon0
          CFI (cfiCond185) Function zha_project_ProcessInReadRspCmd
          CFI (cfiCond185) Conditional ??CrossCallReturnLabel_107, ??CrossCallReturnLabel_43
          CFI (cfiCond185) R6 load(1, XDATA, add(CFA_XSP16, literal(-20)))
          CFI (cfiCond185) VB load(1, XDATA, add(CFA_XSP16, literal(-19)))
          CFI (cfiCond185) V0 load(1, XDATA, add(CFA_XSP16, literal(-18)))
          CFI (cfiCond185) V1 load(1, XDATA, add(CFA_XSP16, literal(-17)))
          CFI (cfiCond185) V2 load(1, XDATA, add(CFA_XSP16, literal(-16)))
          CFI (cfiCond185) V3 load(1, XDATA, add(CFA_XSP16, literal(-15)))
          CFI (cfiCond185) V4 load(1, XDATA, add(CFA_XSP16, literal(-14)))
          CFI (cfiCond185) V5 load(1, XDATA, add(CFA_XSP16, literal(-13)))
          CFI (cfiCond185) V6 load(1, XDATA, add(CFA_XSP16, literal(-12)))
          CFI (cfiCond185) V7 load(1, XDATA, add(CFA_XSP16, literal(-11)))
          CFI (cfiCond185) V8 load(1, XDATA, add(CFA_XSP16, literal(-10)))
          CFI (cfiCond185) V9 load(1, XDATA, add(CFA_XSP16, literal(-9)))
          CFI (cfiCond185) V10 load(1, XDATA, add(CFA_XSP16, literal(-8)))
          CFI (cfiCond185) V11 load(1, XDATA, add(CFA_XSP16, literal(-7)))
          CFI (cfiCond185) R7 load(1, XDATA, add(CFA_XSP16, literal(-6)))
          CFI (cfiCond185) ?RET_LOW load(1, XDATA, add(CFA_XSP16, literal(-5)))
          CFI (cfiCond185) ?RET_HIGH load(1, XDATA, add(CFA_XSP16, literal(-4)))
          CFI (cfiCond185) ?BRET_EXT load(1, XDATA, add(CFA_XSP16, literal(-3)))
          CFI (cfiCond185) DPL0 load(1, XDATA, add(CFA_XSP16, literal(-2)))
          CFI (cfiCond185) DPH0 load(1, XDATA, add(CFA_XSP16, literal(-1)))
          CFI (cfiCond185) CFA_SP SP+-4
          CFI (cfiCond185) CFA_XSP16 add(XSP16, 63)
          CFI Block cfiCond186 Using cfiCommon0
          CFI (cfiCond186) Function zha_project_ProcessInReportCmd
          CFI (cfiCond186) Conditional ??CrossCallReturnLabel_107, ??CrossCallReturnLabel_44
          CFI (cfiCond186) R6 load(1, XDATA, add(CFA_XSP16, literal(-20)))
          CFI (cfiCond186) VB load(1, XDATA, add(CFA_XSP16, literal(-19)))
          CFI (cfiCond186) V0 load(1, XDATA, add(CFA_XSP16, literal(-18)))
          CFI (cfiCond186) V1 load(1, XDATA, add(CFA_XSP16, literal(-17)))
          CFI (cfiCond186) V2 load(1, XDATA, add(CFA_XSP16, literal(-16)))
          CFI (cfiCond186) V3 load(1, XDATA, add(CFA_XSP16, literal(-15)))
          CFI (cfiCond186) V4 load(1, XDATA, add(CFA_XSP16, literal(-14)))
          CFI (cfiCond186) V5 load(1, XDATA, add(CFA_XSP16, literal(-13)))
          CFI (cfiCond186) V6 load(1, XDATA, add(CFA_XSP16, literal(-12)))
          CFI (cfiCond186) V7 load(1, XDATA, add(CFA_XSP16, literal(-11)))
          CFI (cfiCond186) V8 load(1, XDATA, add(CFA_XSP16, literal(-10)))
          CFI (cfiCond186) V9 load(1, XDATA, add(CFA_XSP16, literal(-9)))
          CFI (cfiCond186) V10 load(1, XDATA, add(CFA_XSP16, literal(-8)))
          CFI (cfiCond186) V11 load(1, XDATA, add(CFA_XSP16, literal(-7)))
          CFI (cfiCond186) R7 load(1, XDATA, add(CFA_XSP16, literal(-6)))
          CFI (cfiCond186) ?RET_LOW load(1, XDATA, add(CFA_XSP16, literal(-5)))
          CFI (cfiCond186) ?RET_HIGH load(1, XDATA, add(CFA_XSP16, literal(-4)))
          CFI (cfiCond186) ?BRET_EXT load(1, XDATA, add(CFA_XSP16, literal(-3)))
          CFI (cfiCond186) DPL0 load(1, XDATA, add(CFA_XSP16, literal(-2)))
          CFI (cfiCond186) DPH0 load(1, XDATA, add(CFA_XSP16, literal(-1)))
          CFI (cfiCond186) CFA_SP SP+-4
          CFI (cfiCond186) CFA_XSP16 add(XSP16, 63)
          CFI Block cfiPicker187 Using cfiCommon1
          CFI (cfiPicker187) NoFunction
          CFI (cfiPicker187) Picker
        MUL     AB
        MOV     R0,A
        MOV     R1,B
        MOV     A,?V0
        ADD     A,R0
        MOV     DPL,A
        MOV     A,?V1
        ADDC    A,R1
        MOV     DPH,A
        INC     DPTR
        RET
          CFI EndBlock cfiCond167
          CFI EndBlock cfiCond168
          CFI EndBlock cfiCond169
          CFI EndBlock cfiCond170
          CFI EndBlock cfiCond171
          CFI EndBlock cfiCond172
          CFI EndBlock cfiCond173
          CFI EndBlock cfiCond174
          CFI EndBlock cfiCond175
          CFI EndBlock cfiCond176
          CFI EndBlock cfiCond177
          CFI EndBlock cfiCond178
          CFI EndBlock cfiCond179
          CFI EndBlock cfiCond180
          CFI EndBlock cfiCond181
          CFI EndBlock cfiCond182
          CFI EndBlock cfiCond183
          CFI EndBlock cfiCond184
          CFI EndBlock cfiCond185
          CFI EndBlock cfiCond186
          CFI EndBlock cfiPicker187

        RSEG BANKED_CODE:CODE:NOROOT(0)
?Subroutine20:
          CFI Block cfiCond188 Using cfiCommon0
          CFI Function zha_project_ProcessInReadRspCmd
          CFI Conditional ??CrossCallReturnLabel_41
          CFI R6 load(1, XDATA, add(CFA_XSP16, literal(-20)))
          CFI VB load(1, XDATA, add(CFA_XSP16, literal(-19)))
          CFI V0 load(1, XDATA, add(CFA_XSP16, literal(-18)))
          CFI V1 load(1, XDATA, add(CFA_XSP16, literal(-17)))
          CFI V2 load(1, XDATA, add(CFA_XSP16, literal(-16)))
          CFI V3 load(1, XDATA, add(CFA_XSP16, literal(-15)))
          CFI V4 load(1, XDATA, add(CFA_XSP16, literal(-14)))
          CFI V5 load(1, XDATA, add(CFA_XSP16, literal(-13)))
          CFI V6 load(1, XDATA, add(CFA_XSP16, literal(-12)))
          CFI V7 load(1, XDATA, add(CFA_XSP16, literal(-11)))
          CFI V8 load(1, XDATA, add(CFA_XSP16, literal(-10)))
          CFI V9 load(1, XDATA, add(CFA_XSP16, literal(-9)))
          CFI V10 load(1, XDATA, add(CFA_XSP16, literal(-8)))
          CFI V11 load(1, XDATA, add(CFA_XSP16, literal(-7)))
          CFI R7 load(1, XDATA, add(CFA_XSP16, literal(-6)))
          CFI ?RET_LOW load(1, XDATA, add(CFA_XSP16, literal(-5)))
          CFI ?RET_HIGH load(1, XDATA, add(CFA_XSP16, literal(-4)))
          CFI ?BRET_EXT load(1, XDATA, add(CFA_XSP16, literal(-3)))
          CFI DPL0 load(1, XDATA, add(CFA_XSP16, literal(-2)))
          CFI DPH0 load(1, XDATA, add(CFA_XSP16, literal(-1)))
          CFI CFA_SP SP+-2
          CFI CFA_XSP16 add(XSP16, 63)
          CFI Block cfiCond189 Using cfiCommon0
          CFI (cfiCond189) Function zha_project_ProcessInReportCmd
          CFI (cfiCond189) Conditional ??CrossCallReturnLabel_42
          CFI (cfiCond189) R6 load(1, XDATA, add(CFA_XSP16, literal(-20)))
          CFI (cfiCond189) VB load(1, XDATA, add(CFA_XSP16, literal(-19)))
          CFI (cfiCond189) V0 load(1, XDATA, add(CFA_XSP16, literal(-18)))
          CFI (cfiCond189) V1 load(1, XDATA, add(CFA_XSP16, literal(-17)))
          CFI (cfiCond189) V2 load(1, XDATA, add(CFA_XSP16, literal(-16)))
          CFI (cfiCond189) V3 load(1, XDATA, add(CFA_XSP16, literal(-15)))
          CFI (cfiCond189) V4 load(1, XDATA, add(CFA_XSP16, literal(-14)))
          CFI (cfiCond189) V5 load(1, XDATA, add(CFA_XSP16, literal(-13)))
          CFI (cfiCond189) V6 load(1, XDATA, add(CFA_XSP16, literal(-12)))
          CFI (cfiCond189) V7 load(1, XDATA, add(CFA_XSP16, literal(-11)))
          CFI (cfiCond189) V8 load(1, XDATA, add(CFA_XSP16, literal(-10)))
          CFI (cfiCond189) V9 load(1, XDATA, add(CFA_XSP16, literal(-9)))
          CFI (cfiCond189) V10 load(1, XDATA, add(CFA_XSP16, literal(-8)))
          CFI (cfiCond189) V11 load(1, XDATA, add(CFA_XSP16, literal(-7)))
          CFI (cfiCond189) R7 load(1, XDATA, add(CFA_XSP16, literal(-6)))
          CFI (cfiCond189) ?RET_LOW load(1, XDATA, add(CFA_XSP16, literal(-5)))
          CFI (cfiCond189) ?RET_HIGH load(1, XDATA, add(CFA_XSP16, literal(-4)))
          CFI (cfiCond189) ?BRET_EXT load(1, XDATA, add(CFA_XSP16, literal(-3)))
          CFI (cfiCond189) DPL0 load(1, XDATA, add(CFA_XSP16, literal(-2)))
          CFI (cfiCond189) DPH0 load(1, XDATA, add(CFA_XSP16, literal(-1)))
          CFI (cfiCond189) CFA_SP SP+-2
          CFI (cfiCond189) CFA_XSP16 add(XSP16, 63)
          CFI Block cfiPicker190 Using cfiCommon1
          CFI (cfiPicker190) NoFunction
          CFI (cfiPicker190) Picker
        MOV     DPL,?V2
        MOV     DPH,?V3
        MOVX    A,@DPTR
        MOV     DPL,?XSP + 0
        MOV     DPH,?XSP + 1
        MOVX    @DPTR,A
        INC     DPTR
        CLR     A
        RET
          CFI EndBlock cfiCond188
          CFI EndBlock cfiCond189
          CFI EndBlock cfiPicker190

        RSEG BANKED_CODE:CODE:NOROOT(0)
?Subroutine15:
          CFI Block cfiCond191 Using cfiCommon0
          CFI Function zha_project_ProcessInReadRspCmd
          CFI Conditional ??CrossCallReturnLabel_37
          CFI R6 load(1, XDATA, add(CFA_XSP16, literal(-20)))
          CFI VB load(1, XDATA, add(CFA_XSP16, literal(-19)))
          CFI V0 load(1, XDATA, add(CFA_XSP16, literal(-18)))
          CFI V1 load(1, XDATA, add(CFA_XSP16, literal(-17)))
          CFI V2 load(1, XDATA, add(CFA_XSP16, literal(-16)))
          CFI V3 load(1, XDATA, add(CFA_XSP16, literal(-15)))
          CFI V4 load(1, XDATA, add(CFA_XSP16, literal(-14)))
          CFI V5 load(1, XDATA, add(CFA_XSP16, literal(-13)))
          CFI V6 load(1, XDATA, add(CFA_XSP16, literal(-12)))
          CFI V7 load(1, XDATA, add(CFA_XSP16, literal(-11)))
          CFI V8 load(1, XDATA, add(CFA_XSP16, literal(-10)))
          CFI V9 load(1, XDATA, add(CFA_XSP16, literal(-9)))
          CFI V10 load(1, XDATA, add(CFA_XSP16, literal(-8)))
          CFI V11 load(1, XDATA, add(CFA_XSP16, literal(-7)))
          CFI R7 load(1, XDATA, add(CFA_XSP16, literal(-6)))
          CFI ?RET_LOW load(1, XDATA, add(CFA_XSP16, literal(-5)))
          CFI ?RET_HIGH load(1, XDATA, add(CFA_XSP16, literal(-4)))
          CFI ?BRET_EXT load(1, XDATA, add(CFA_XSP16, literal(-3)))
          CFI DPL0 load(1, XDATA, add(CFA_XSP16, literal(-2)))
          CFI DPH0 load(1, XDATA, add(CFA_XSP16, literal(-1)))
          CFI CFA_SP SP+-2
          CFI CFA_XSP16 add(XSP16, 63)
          CFI Block cfiCond192 Using cfiCommon0
          CFI (cfiCond192) Function zha_project_ProcessInReportCmd
          CFI (cfiCond192) Conditional ??CrossCallReturnLabel_38
          CFI (cfiCond192) R6 load(1, XDATA, add(CFA_XSP16, literal(-20)))
          CFI (cfiCond192) VB load(1, XDATA, add(CFA_XSP16, literal(-19)))
          CFI (cfiCond192) V0 load(1, XDATA, add(CFA_XSP16, literal(-18)))
          CFI (cfiCond192) V1 load(1, XDATA, add(CFA_XSP16, literal(-17)))
          CFI (cfiCond192) V2 load(1, XDATA, add(CFA_XSP16, literal(-16)))
          CFI (cfiCond192) V3 load(1, XDATA, add(CFA_XSP16, literal(-15)))
          CFI (cfiCond192) V4 load(1, XDATA, add(CFA_XSP16, literal(-14)))
          CFI (cfiCond192) V5 load(1, XDATA, add(CFA_XSP16, literal(-13)))
          CFI (cfiCond192) V6 load(1, XDATA, add(CFA_XSP16, literal(-12)))
          CFI (cfiCond192) V7 load(1, XDATA, add(CFA_XSP16, literal(-11)))
          CFI (cfiCond192) V8 load(1, XDATA, add(CFA_XSP16, literal(-10)))
          CFI (cfiCond192) V9 load(1, XDATA, add(CFA_XSP16, literal(-9)))
          CFI (cfiCond192) V10 load(1, XDATA, add(CFA_XSP16, literal(-8)))
          CFI (cfiCond192) V11 load(1, XDATA, add(CFA_XSP16, literal(-7)))
          CFI (cfiCond192) R7 load(1, XDATA, add(CFA_XSP16, literal(-6)))
          CFI (cfiCond192) ?RET_LOW load(1, XDATA, add(CFA_XSP16, literal(-5)))
          CFI (cfiCond192) ?RET_HIGH load(1, XDATA, add(CFA_XSP16, literal(-4)))
          CFI (cfiCond192) ?BRET_EXT load(1, XDATA, add(CFA_XSP16, literal(-3)))
          CFI (cfiCond192) DPL0 load(1, XDATA, add(CFA_XSP16, literal(-2)))
          CFI (cfiCond192) DPH0 load(1, XDATA, add(CFA_XSP16, literal(-1)))
          CFI (cfiCond192) CFA_SP SP+-2
          CFI (cfiCond192) CFA_XSP16 add(XSP16, 63)
          CFI Block cfiPicker193 Using cfiCommon1
          CFI (cfiPicker193) NoFunction
          CFI (cfiPicker193) Picker
        LCALL   ?Subroutine26 & 0xFFFF
??CrossCallReturnLabel_93:
        XRL     A,#0x7
        RET
          CFI EndBlock cfiCond191
          CFI EndBlock cfiCond192
          CFI EndBlock cfiPicker193

        RSEG BANKED_CODE:CODE:NOROOT(0)
?Subroutine13:
          CFI Block cfiCond194 Using cfiCommon0
          CFI Function zha_project_ProcessInReadRspCmd
          CFI Conditional ??CrossCallReturnLabel_32
          CFI R6 load(1, XDATA, add(CFA_XSP16, literal(-20)))
          CFI VB load(1, XDATA, add(CFA_XSP16, literal(-19)))
          CFI V0 load(1, XDATA, add(CFA_XSP16, literal(-18)))
          CFI V1 load(1, XDATA, add(CFA_XSP16, literal(-17)))
          CFI V2 load(1, XDATA, add(CFA_XSP16, literal(-16)))
          CFI V3 load(1, XDATA, add(CFA_XSP16, literal(-15)))
          CFI V4 load(1, XDATA, add(CFA_XSP16, literal(-14)))
          CFI V5 load(1, XDATA, add(CFA_XSP16, literal(-13)))
          CFI V6 load(1, XDATA, add(CFA_XSP16, literal(-12)))
          CFI V7 load(1, XDATA, add(CFA_XSP16, literal(-11)))
          CFI V8 load(1, XDATA, add(CFA_XSP16, literal(-10)))
          CFI V9 load(1, XDATA, add(CFA_XSP16, literal(-9)))
          CFI V10 load(1, XDATA, add(CFA_XSP16, literal(-8)))
          CFI V11 load(1, XDATA, add(CFA_XSP16, literal(-7)))
          CFI R7 load(1, XDATA, add(CFA_XSP16, literal(-6)))
          CFI ?RET_LOW load(1, XDATA, add(CFA_XSP16, literal(-5)))
          CFI ?RET_HIGH load(1, XDATA, add(CFA_XSP16, literal(-4)))
          CFI ?BRET_EXT load(1, XDATA, add(CFA_XSP16, literal(-3)))
          CFI DPL0 load(1, XDATA, add(CFA_XSP16, literal(-2)))
          CFI DPH0 load(1, XDATA, add(CFA_XSP16, literal(-1)))
          CFI CFA_SP SP+-2
          CFI CFA_XSP16 add(XSP16, 63)
          CFI Block cfiCond195 Using cfiCommon0
          CFI (cfiCond195) Function zha_project_ProcessInReportCmd
          CFI (cfiCond195) Conditional ??CrossCallReturnLabel_33
          CFI (cfiCond195) R6 load(1, XDATA, add(CFA_XSP16, literal(-20)))
          CFI (cfiCond195) VB load(1, XDATA, add(CFA_XSP16, literal(-19)))
          CFI (cfiCond195) V0 load(1, XDATA, add(CFA_XSP16, literal(-18)))
          CFI (cfiCond195) V1 load(1, XDATA, add(CFA_XSP16, literal(-17)))
          CFI (cfiCond195) V2 load(1, XDATA, add(CFA_XSP16, literal(-16)))
          CFI (cfiCond195) V3 load(1, XDATA, add(CFA_XSP16, literal(-15)))
          CFI (cfiCond195) V4 load(1, XDATA, add(CFA_XSP16, literal(-14)))
          CFI (cfiCond195) V5 load(1, XDATA, add(CFA_XSP16, literal(-13)))
          CFI (cfiCond195) V6 load(1, XDATA, add(CFA_XSP16, literal(-12)))
          CFI (cfiCond195) V7 load(1, XDATA, add(CFA_XSP16, literal(-11)))
          CFI (cfiCond195) V8 load(1, XDATA, add(CFA_XSP16, literal(-10)))
          CFI (cfiCond195) V9 load(1, XDATA, add(CFA_XSP16, literal(-9)))
          CFI (cfiCond195) V10 load(1, XDATA, add(CFA_XSP16, literal(-8)))
          CFI (cfiCond195) V11 load(1, XDATA, add(CFA_XSP16, literal(-7)))
          CFI (cfiCond195) R7 load(1, XDATA, add(CFA_XSP16, literal(-6)))
          CFI (cfiCond195) ?RET_LOW load(1, XDATA, add(CFA_XSP16, literal(-5)))
          CFI (cfiCond195) ?RET_HIGH load(1, XDATA, add(CFA_XSP16, literal(-4)))
          CFI (cfiCond195) ?BRET_EXT load(1, XDATA, add(CFA_XSP16, literal(-3)))
          CFI (cfiCond195) DPL0 load(1, XDATA, add(CFA_XSP16, literal(-2)))
          CFI (cfiCond195) DPH0 load(1, XDATA, add(CFA_XSP16, literal(-1)))
          CFI (cfiCond195) CFA_SP SP+-2
          CFI (cfiCond195) CFA_XSP16 add(XSP16, 63)
          CFI Block cfiPicker196 Using cfiCommon1
          CFI (cfiPicker196) NoFunction
          CFI (cfiPicker196) Picker
        MOV     DPL,?V2
        MOV     DPH,?V3
        LCALL   ?Subroutine29 & 0xFFFF
??CrossCallReturnLabel_55:
        LCALL   ?Subroutine27 & 0xFFFF
??CrossCallReturnLabel_127:
        RET
          CFI EndBlock cfiCond194
          CFI EndBlock cfiCond195
          CFI EndBlock cfiPicker196

        RSEG BANKED_CODE:CODE:NOROOT(0)
?Subroutine29:
          CFI Block cfiCond197 Using cfiCommon0
          CFI Function zha_project_event_loop
          CFI Conditional ??CrossCallReturnLabel_56, ??CrossCallReturnLabel_34
          CFI R6 load(1, XDATA, add(CFA_XSP16, literal(-12)))
          CFI VB load(1, XDATA, add(CFA_XSP16, literal(-11)))
          CFI V0 load(1, XDATA, add(CFA_XSP16, literal(-10)))
          CFI V1 load(1, XDATA, add(CFA_XSP16, literal(-9)))
          CFI V2 load(1, XDATA, add(CFA_XSP16, literal(-8)))
          CFI V3 load(1, XDATA, add(CFA_XSP16, literal(-7)))
          CFI R7 load(1, XDATA, add(CFA_XSP16, literal(-6)))
          CFI ?RET_LOW load(1, XDATA, add(CFA_XSP16, literal(-5)))
          CFI ?RET_HIGH load(1, XDATA, add(CFA_XSP16, literal(-4)))
          CFI ?BRET_EXT load(1, XDATA, add(CFA_XSP16, literal(-3)))
          CFI DPL0 load(1, XDATA, add(CFA_XSP16, literal(-2)))
          CFI DPH0 load(1, XDATA, add(CFA_XSP16, literal(-1)))
          CFI CFA_SP SP+-4
          CFI CFA_XSP16 add(XSP16, 66)
          CFI Block cfiCond198 Using cfiCommon0
          CFI (cfiCond198) Function zha_project_event_loop
          CFI (cfiCond198) Conditional ??CrossCallReturnLabel_56, ??CrossCallReturnLabel_35
          CFI (cfiCond198) R6 load(1, XDATA, add(CFA_XSP16, literal(-12)))
          CFI (cfiCond198) VB load(1, XDATA, add(CFA_XSP16, literal(-11)))
          CFI (cfiCond198) V0 load(1, XDATA, add(CFA_XSP16, literal(-10)))
          CFI (cfiCond198) V1 load(1, XDATA, add(CFA_XSP16, literal(-9)))
          CFI (cfiCond198) V2 load(1, XDATA, add(CFA_XSP16, literal(-8)))
          CFI (cfiCond198) V3 load(1, XDATA, add(CFA_XSP16, literal(-7)))
          CFI (cfiCond198) R7 load(1, XDATA, add(CFA_XSP16, literal(-6)))
          CFI (cfiCond198) ?RET_LOW load(1, XDATA, add(CFA_XSP16, literal(-5)))
          CFI (cfiCond198) ?RET_HIGH load(1, XDATA, add(CFA_XSP16, literal(-4)))
          CFI (cfiCond198) ?BRET_EXT load(1, XDATA, add(CFA_XSP16, literal(-3)))
          CFI (cfiCond198) DPL0 load(1, XDATA, add(CFA_XSP16, literal(-2)))
          CFI (cfiCond198) DPH0 load(1, XDATA, add(CFA_XSP16, literal(-1)))
          CFI (cfiCond198) CFA_SP SP+-4
          CFI (cfiCond198) CFA_XSP16 add(XSP16, 66)
          CFI Block cfiCond199 Using cfiCommon0
          CFI (cfiCond199) Function zha_project_event_loop
          CFI (cfiCond199) Conditional ??CrossCallReturnLabel_56, ??CrossCallReturnLabel_36
          CFI (cfiCond199) R6 load(1, XDATA, add(CFA_XSP16, literal(-12)))
          CFI (cfiCond199) VB load(1, XDATA, add(CFA_XSP16, literal(-11)))
          CFI (cfiCond199) V0 load(1, XDATA, add(CFA_XSP16, literal(-10)))
          CFI (cfiCond199) V1 load(1, XDATA, add(CFA_XSP16, literal(-9)))
          CFI (cfiCond199) V2 load(1, XDATA, add(CFA_XSP16, literal(-8)))
          CFI (cfiCond199) V3 load(1, XDATA, add(CFA_XSP16, literal(-7)))
          CFI (cfiCond199) R7 load(1, XDATA, add(CFA_XSP16, literal(-6)))
          CFI (cfiCond199) ?RET_LOW load(1, XDATA, add(CFA_XSP16, literal(-5)))
          CFI (cfiCond199) ?RET_HIGH load(1, XDATA, add(CFA_XSP16, literal(-4)))
          CFI (cfiCond199) ?BRET_EXT load(1, XDATA, add(CFA_XSP16, literal(-3)))
          CFI (cfiCond199) DPL0 load(1, XDATA, add(CFA_XSP16, literal(-2)))
          CFI (cfiCond199) DPH0 load(1, XDATA, add(CFA_XSP16, literal(-1)))
          CFI (cfiCond199) CFA_SP SP+-4
          CFI (cfiCond199) CFA_XSP16 add(XSP16, 66)
          CFI Block cfiCond200 Using cfiCommon0
          CFI (cfiCond200) Function zha_project_ProcessInReadRspCmd
          CFI (cfiCond200) Conditional ??CrossCallReturnLabel_55, ??CrossCallReturnLabel_32
          CFI (cfiCond200) R6 load(1, XDATA, add(CFA_XSP16, literal(-20)))
          CFI (cfiCond200) VB load(1, XDATA, add(CFA_XSP16, literal(-19)))
          CFI (cfiCond200) V0 load(1, XDATA, add(CFA_XSP16, literal(-18)))
          CFI (cfiCond200) V1 load(1, XDATA, add(CFA_XSP16, literal(-17)))
          CFI (cfiCond200) V2 load(1, XDATA, add(CFA_XSP16, literal(-16)))
          CFI (cfiCond200) V3 load(1, XDATA, add(CFA_XSP16, literal(-15)))
          CFI (cfiCond200) V4 load(1, XDATA, add(CFA_XSP16, literal(-14)))
          CFI (cfiCond200) V5 load(1, XDATA, add(CFA_XSP16, literal(-13)))
          CFI (cfiCond200) V6 load(1, XDATA, add(CFA_XSP16, literal(-12)))
          CFI (cfiCond200) V7 load(1, XDATA, add(CFA_XSP16, literal(-11)))
          CFI (cfiCond200) V8 load(1, XDATA, add(CFA_XSP16, literal(-10)))
          CFI (cfiCond200) V9 load(1, XDATA, add(CFA_XSP16, literal(-9)))
          CFI (cfiCond200) V10 load(1, XDATA, add(CFA_XSP16, literal(-8)))
          CFI (cfiCond200) V11 load(1, XDATA, add(CFA_XSP16, literal(-7)))
          CFI (cfiCond200) R7 load(1, XDATA, add(CFA_XSP16, literal(-6)))
          CFI (cfiCond200) ?RET_LOW load(1, XDATA, add(CFA_XSP16, literal(-5)))
          CFI (cfiCond200) ?RET_HIGH load(1, XDATA, add(CFA_XSP16, literal(-4)))
          CFI (cfiCond200) ?BRET_EXT load(1, XDATA, add(CFA_XSP16, literal(-3)))
          CFI (cfiCond200) DPL0 load(1, XDATA, add(CFA_XSP16, literal(-2)))
          CFI (cfiCond200) DPH0 load(1, XDATA, add(CFA_XSP16, literal(-1)))
          CFI (cfiCond200) CFA_SP SP+-4
          CFI (cfiCond200) CFA_XSP16 add(XSP16, 63)
          CFI Block cfiCond201 Using cfiCommon0
          CFI (cfiCond201) Function zha_project_ProcessInReportCmd
          CFI (cfiCond201) Conditional ??CrossCallReturnLabel_55, ??CrossCallReturnLabel_33
          CFI (cfiCond201) R6 load(1, XDATA, add(CFA_XSP16, literal(-20)))
          CFI (cfiCond201) VB load(1, XDATA, add(CFA_XSP16, literal(-19)))
          CFI (cfiCond201) V0 load(1, XDATA, add(CFA_XSP16, literal(-18)))
          CFI (cfiCond201) V1 load(1, XDATA, add(CFA_XSP16, literal(-17)))
          CFI (cfiCond201) V2 load(1, XDATA, add(CFA_XSP16, literal(-16)))
          CFI (cfiCond201) V3 load(1, XDATA, add(CFA_XSP16, literal(-15)))
          CFI (cfiCond201) V4 load(1, XDATA, add(CFA_XSP16, literal(-14)))
          CFI (cfiCond201) V5 load(1, XDATA, add(CFA_XSP16, literal(-13)))
          CFI (cfiCond201) V6 load(1, XDATA, add(CFA_XSP16, literal(-12)))
          CFI (cfiCond201) V7 load(1, XDATA, add(CFA_XSP16, literal(-11)))
          CFI (cfiCond201) V8 load(1, XDATA, add(CFA_XSP16, literal(-10)))
          CFI (cfiCond201) V9 load(1, XDATA, add(CFA_XSP16, literal(-9)))
          CFI (cfiCond201) V10 load(1, XDATA, add(CFA_XSP16, literal(-8)))
          CFI (cfiCond201) V11 load(1, XDATA, add(CFA_XSP16, literal(-7)))
          CFI (cfiCond201) R7 load(1, XDATA, add(CFA_XSP16, literal(-6)))
          CFI (cfiCond201) ?RET_LOW load(1, XDATA, add(CFA_XSP16, literal(-5)))
          CFI (cfiCond201) ?RET_HIGH load(1, XDATA, add(CFA_XSP16, literal(-4)))
          CFI (cfiCond201) ?BRET_EXT load(1, XDATA, add(CFA_XSP16, literal(-3)))
          CFI (cfiCond201) DPL0 load(1, XDATA, add(CFA_XSP16, literal(-2)))
          CFI (cfiCond201) DPH0 load(1, XDATA, add(CFA_XSP16, literal(-1)))
          CFI (cfiCond201) CFA_SP SP+-4
          CFI (cfiCond201) CFA_XSP16 add(XSP16, 63)
          CFI Block cfiCond202 Using cfiCommon0
          CFI (cfiCond202) Function zha_project_ProcessZDOMsgs
          CFI (cfiCond202) Conditional ??CrossCallReturnLabel_53
          CFI (cfiCond202) R6 load(1, XDATA, add(CFA_XSP16, literal(-14)))
          CFI (cfiCond202) VB load(1, XDATA, add(CFA_XSP16, literal(-13)))
          CFI (cfiCond202) V0 load(1, XDATA, add(CFA_XSP16, literal(-12)))
          CFI (cfiCond202) V1 load(1, XDATA, add(CFA_XSP16, literal(-11)))
          CFI (cfiCond202) V2 load(1, XDATA, add(CFA_XSP16, literal(-10)))
          CFI (cfiCond202) V3 load(1, XDATA, add(CFA_XSP16, literal(-9)))
          CFI (cfiCond202) V4 load(1, XDATA, add(CFA_XSP16, literal(-8)))
          CFI (cfiCond202) V5 load(1, XDATA, add(CFA_XSP16, literal(-7)))
          CFI (cfiCond202) R7 load(1, XDATA, add(CFA_XSP16, literal(-6)))
          CFI (cfiCond202) ?RET_LOW load(1, XDATA, add(CFA_XSP16, literal(-5)))
          CFI (cfiCond202) ?RET_HIGH load(1, XDATA, add(CFA_XSP16, literal(-4)))
          CFI (cfiCond202) ?BRET_EXT load(1, XDATA, add(CFA_XSP16, literal(-3)))
          CFI (cfiCond202) DPL0 load(1, XDATA, add(CFA_XSP16, literal(-2)))
          CFI (cfiCond202) DPH0 load(1, XDATA, add(CFA_XSP16, literal(-1)))
          CFI (cfiCond202) CFA_SP SP+-2
          CFI (cfiCond202) CFA_XSP16 add(XSP16, 25)
          CFI Block cfiCond203 Using cfiCommon0
          CFI (cfiCond203) Function zha_project_ProcessZDOMsgs
          CFI (cfiCond203) Conditional ??CrossCallReturnLabel_54
          CFI (cfiCond203) R6 load(1, XDATA, add(CFA_XSP16, literal(-14)))
          CFI (cfiCond203) VB load(1, XDATA, add(CFA_XSP16, literal(-13)))
          CFI (cfiCond203) V0 load(1, XDATA, add(CFA_XSP16, literal(-12)))
          CFI (cfiCond203) V1 load(1, XDATA, add(CFA_XSP16, literal(-11)))
          CFI (cfiCond203) V2 load(1, XDATA, add(CFA_XSP16, literal(-10)))
          CFI (cfiCond203) V3 load(1, XDATA, add(CFA_XSP16, literal(-9)))
          CFI (cfiCond203) V4 load(1, XDATA, add(CFA_XSP16, literal(-8)))
          CFI (cfiCond203) V5 load(1, XDATA, add(CFA_XSP16, literal(-7)))
          CFI (cfiCond203) R7 load(1, XDATA, add(CFA_XSP16, literal(-6)))
          CFI (cfiCond203) ?RET_LOW load(1, XDATA, add(CFA_XSP16, literal(-5)))
          CFI (cfiCond203) ?RET_HIGH load(1, XDATA, add(CFA_XSP16, literal(-4)))
          CFI (cfiCond203) ?BRET_EXT load(1, XDATA, add(CFA_XSP16, literal(-3)))
          CFI (cfiCond203) DPL0 load(1, XDATA, add(CFA_XSP16, literal(-2)))
          CFI (cfiCond203) DPH0 load(1, XDATA, add(CFA_XSP16, literal(-1)))
          CFI (cfiCond203) CFA_SP SP+-2
          CFI (cfiCond203) CFA_XSP16 add(XSP16, 25)
          CFI Block cfiPicker204 Using cfiCommon1
          CFI (cfiPicker204) NoFunction
          CFI (cfiPicker204) Picker
        MOVX    A,@DPTR
        MOV     R4,A
        INC     DPTR
        MOVX    A,@DPTR
        MOV     R5,A
        RET
          CFI EndBlock cfiCond197
          CFI EndBlock cfiCond198
          CFI EndBlock cfiCond199
          CFI EndBlock cfiCond200
          CFI EndBlock cfiCond201
          CFI EndBlock cfiCond202
          CFI EndBlock cfiCond203
          CFI EndBlock cfiPicker204

        RSEG BANKED_CODE:CODE:NOROOT(0)
?Subroutine12:
          CFI Block cfiCond205 Using cfiCommon0
          CFI Function zha_project_ProcessInReadRspCmd
          CFI Conditional ??CrossCallReturnLabel_30
          CFI R6 load(1, XDATA, add(CFA_XSP16, literal(-20)))
          CFI VB load(1, XDATA, add(CFA_XSP16, literal(-19)))
          CFI V0 load(1, XDATA, add(CFA_XSP16, literal(-18)))
          CFI V1 load(1, XDATA, add(CFA_XSP16, literal(-17)))
          CFI V2 load(1, XDATA, add(CFA_XSP16, literal(-16)))
          CFI V3 load(1, XDATA, add(CFA_XSP16, literal(-15)))
          CFI V4 load(1, XDATA, add(CFA_XSP16, literal(-14)))
          CFI V5 load(1, XDATA, add(CFA_XSP16, literal(-13)))
          CFI V6 load(1, XDATA, add(CFA_XSP16, literal(-12)))
          CFI V7 load(1, XDATA, add(CFA_XSP16, literal(-11)))
          CFI V8 load(1, XDATA, add(CFA_XSP16, literal(-10)))
          CFI V9 load(1, XDATA, add(CFA_XSP16, literal(-9)))
          CFI V10 load(1, XDATA, add(CFA_XSP16, literal(-8)))
          CFI V11 load(1, XDATA, add(CFA_XSP16, literal(-7)))
          CFI R7 load(1, XDATA, add(CFA_XSP16, literal(-6)))
          CFI ?RET_LOW load(1, XDATA, add(CFA_XSP16, literal(-5)))
          CFI ?RET_HIGH load(1, XDATA, add(CFA_XSP16, literal(-4)))
          CFI ?BRET_EXT load(1, XDATA, add(CFA_XSP16, literal(-3)))
          CFI DPL0 load(1, XDATA, add(CFA_XSP16, literal(-2)))
          CFI DPH0 load(1, XDATA, add(CFA_XSP16, literal(-1)))
          CFI CFA_SP SP+-2
          CFI CFA_XSP16 add(XSP16, 63)
          CFI Block cfiCond206 Using cfiCommon0
          CFI (cfiCond206) Function zha_project_ProcessInReportCmd
          CFI (cfiCond206) Conditional ??CrossCallReturnLabel_31
          CFI (cfiCond206) R6 load(1, XDATA, add(CFA_XSP16, literal(-20)))
          CFI (cfiCond206) VB load(1, XDATA, add(CFA_XSP16, literal(-19)))
          CFI (cfiCond206) V0 load(1, XDATA, add(CFA_XSP16, literal(-18)))
          CFI (cfiCond206) V1 load(1, XDATA, add(CFA_XSP16, literal(-17)))
          CFI (cfiCond206) V2 load(1, XDATA, add(CFA_XSP16, literal(-16)))
          CFI (cfiCond206) V3 load(1, XDATA, add(CFA_XSP16, literal(-15)))
          CFI (cfiCond206) V4 load(1, XDATA, add(CFA_XSP16, literal(-14)))
          CFI (cfiCond206) V5 load(1, XDATA, add(CFA_XSP16, literal(-13)))
          CFI (cfiCond206) V6 load(1, XDATA, add(CFA_XSP16, literal(-12)))
          CFI (cfiCond206) V7 load(1, XDATA, add(CFA_XSP16, literal(-11)))
          CFI (cfiCond206) V8 load(1, XDATA, add(CFA_XSP16, literal(-10)))
          CFI (cfiCond206) V9 load(1, XDATA, add(CFA_XSP16, literal(-9)))
          CFI (cfiCond206) V10 load(1, XDATA, add(CFA_XSP16, literal(-8)))
          CFI (cfiCond206) V11 load(1, XDATA, add(CFA_XSP16, literal(-7)))
          CFI (cfiCond206) R7 load(1, XDATA, add(CFA_XSP16, literal(-6)))
          CFI (cfiCond206) ?RET_LOW load(1, XDATA, add(CFA_XSP16, literal(-5)))
          CFI (cfiCond206) ?RET_HIGH load(1, XDATA, add(CFA_XSP16, literal(-4)))
          CFI (cfiCond206) ?BRET_EXT load(1, XDATA, add(CFA_XSP16, literal(-3)))
          CFI (cfiCond206) DPL0 load(1, XDATA, add(CFA_XSP16, literal(-2)))
          CFI (cfiCond206) DPH0 load(1, XDATA, add(CFA_XSP16, literal(-1)))
          CFI (cfiCond206) CFA_SP SP+-2
          CFI (cfiCond206) CFA_XSP16 add(XSP16, 63)
          CFI Block cfiPicker207 Using cfiCommon1
          CFI (cfiPicker207) NoFunction
          CFI (cfiPicker207) Picker
        MOV     ?V10,R2
        MOV     ?V11,R3
        MOV     A,R2
        ADD     A,#0x17
        MOV     DPL,A
        CLR     A
        ADDC    A,?V11
        MOV     DPH,A
        MOVX    A,@DPTR
        MOV     ?V0,A
        INC     DPTR
        MOVX    A,@DPTR
        MOV     ?V1,A
        MOV     A,R2
        ADD     A,#0xa
        MOV     ?V8,A
        CLR     A
        ADDC    A,?V11
        MOV     ?V9,A
        MOV     DPL,R2
        MOV     DPH,R3
        INC     DPTR
        INC     DPTR
        INC     DPTR
        INC     DPTR
        INC     DPTR
        INC     DPTR
        INC     DPTR
        INC     DPTR
        MOVX    A,@DPTR
        MOV     ?V2,A
        INC     DPTR
        MOVX    A,@DPTR
        MOV     ?V3,A
        MOV     R0,#?V2
        RET
          CFI EndBlock cfiCond205
          CFI EndBlock cfiCond206
          CFI EndBlock cfiPicker207

        RSEG BANKED_CODE:CODE:NOROOT(0)
?Subroutine11:
          CFI Block cfiCond208 Using cfiCommon0
          CFI Function zha_project_ProcessInReadRspCmd
          CFI Conditional ??CrossCallReturnLabel_111
          CFI R6 load(1, XDATA, add(CFA_XSP16, literal(-20)))
          CFI VB load(1, XDATA, add(CFA_XSP16, literal(-19)))
          CFI V0 load(1, XDATA, add(CFA_XSP16, literal(-18)))
          CFI V1 load(1, XDATA, add(CFA_XSP16, literal(-17)))
          CFI V2 load(1, XDATA, add(CFA_XSP16, literal(-16)))
          CFI V3 load(1, XDATA, add(CFA_XSP16, literal(-15)))
          CFI V4 load(1, XDATA, add(CFA_XSP16, literal(-14)))
          CFI V5 load(1, XDATA, add(CFA_XSP16, literal(-13)))
          CFI V6 load(1, XDATA, add(CFA_XSP16, literal(-12)))
          CFI V7 load(1, XDATA, add(CFA_XSP16, literal(-11)))
          CFI V8 load(1, XDATA, add(CFA_XSP16, literal(-10)))
          CFI V9 load(1, XDATA, add(CFA_XSP16, literal(-9)))
          CFI V10 load(1, XDATA, add(CFA_XSP16, literal(-8)))
          CFI V11 load(1, XDATA, add(CFA_XSP16, literal(-7)))
          CFI R7 load(1, XDATA, add(CFA_XSP16, literal(-6)))
          CFI ?RET_LOW load(1, XDATA, add(CFA_XSP16, literal(-5)))
          CFI ?RET_HIGH load(1, XDATA, add(CFA_XSP16, literal(-4)))
          CFI ?BRET_EXT load(1, XDATA, add(CFA_XSP16, literal(-3)))
          CFI DPL0 load(1, XDATA, add(CFA_XSP16, literal(-2)))
          CFI DPH0 load(1, XDATA, add(CFA_XSP16, literal(-1)))
          CFI CFA_SP SP+-2
          CFI CFA_XSP16 add(XSP16, 63)
          CFI Block cfiCond209 Using cfiCommon0
          CFI (cfiCond209) Function zha_project_ProcessInReportCmd
          CFI (cfiCond209) Conditional ??CrossCallReturnLabel_112
          CFI (cfiCond209) R6 load(1, XDATA, add(CFA_XSP16, literal(-20)))
          CFI (cfiCond209) VB load(1, XDATA, add(CFA_XSP16, literal(-19)))
          CFI (cfiCond209) V0 load(1, XDATA, add(CFA_XSP16, literal(-18)))
          CFI (cfiCond209) V1 load(1, XDATA, add(CFA_XSP16, literal(-17)))
          CFI (cfiCond209) V2 load(1, XDATA, add(CFA_XSP16, literal(-16)))
          CFI (cfiCond209) V3 load(1, XDATA, add(CFA_XSP16, literal(-15)))
          CFI (cfiCond209) V4 load(1, XDATA, add(CFA_XSP16, literal(-14)))
          CFI (cfiCond209) V5 load(1, XDATA, add(CFA_XSP16, literal(-13)))
          CFI (cfiCond209) V6 load(1, XDATA, add(CFA_XSP16, literal(-12)))
          CFI (cfiCond209) V7 load(1, XDATA, add(CFA_XSP16, literal(-11)))
          CFI (cfiCond209) V8 load(1, XDATA, add(CFA_XSP16, literal(-10)))
          CFI (cfiCond209) V9 load(1, XDATA, add(CFA_XSP16, literal(-9)))
          CFI (cfiCond209) V10 load(1, XDATA, add(CFA_XSP16, literal(-8)))
          CFI (cfiCond209) V11 load(1, XDATA, add(CFA_XSP16, literal(-7)))
          CFI (cfiCond209) R7 load(1, XDATA, add(CFA_XSP16, literal(-6)))
          CFI (cfiCond209) ?RET_LOW load(1, XDATA, add(CFA_XSP16, literal(-5)))
          CFI (cfiCond209) ?RET_HIGH load(1, XDATA, add(CFA_XSP16, literal(-4)))
          CFI (cfiCond209) ?BRET_EXT load(1, XDATA, add(CFA_XSP16, literal(-3)))
          CFI (cfiCond209) DPL0 load(1, XDATA, add(CFA_XSP16, literal(-2)))
          CFI (cfiCond209) DPH0 load(1, XDATA, add(CFA_XSP16, literal(-1)))
          CFI (cfiCond209) CFA_SP SP+-2
          CFI (cfiCond209) CFA_XSP16 add(XSP16, 63)
          CFI Block cfiPicker210 Using cfiCommon1
          CFI (cfiPicker210) NoFunction
          CFI (cfiPicker210) Picker
        INC     DPTR
        INC     DPTR
        INC     DPTR
        LCALL   ?Subroutine30 & 0xFFFF
??CrossCallReturnLabel_57:
          CFI EndBlock cfiCond208
          CFI EndBlock cfiCond209
          CFI EndBlock cfiPicker210
        REQUIRE ??Subroutine42_0
        ; // Fall through to label ??Subroutine42_0

        RSEG BANKED_CODE:CODE:NOROOT(0)
??Subroutine42_0:
          CFI Block cfiCond211 Using cfiCommon0
          CFI Function zha_project_ProcessInReadRspCmd
          CFI Conditional ??CrossCallReturnLabel_109
          CFI R6 load(1, XDATA, add(CFA_XSP16, literal(-20)))
          CFI VB load(1, XDATA, add(CFA_XSP16, literal(-19)))
          CFI V0 load(1, XDATA, add(CFA_XSP16, literal(-18)))
          CFI V1 load(1, XDATA, add(CFA_XSP16, literal(-17)))
          CFI V2 load(1, XDATA, add(CFA_XSP16, literal(-16)))
          CFI V3 load(1, XDATA, add(CFA_XSP16, literal(-15)))
          CFI V4 load(1, XDATA, add(CFA_XSP16, literal(-14)))
          CFI V5 load(1, XDATA, add(CFA_XSP16, literal(-13)))
          CFI V6 load(1, XDATA, add(CFA_XSP16, literal(-12)))
          CFI V7 load(1, XDATA, add(CFA_XSP16, literal(-11)))
          CFI V8 load(1, XDATA, add(CFA_XSP16, literal(-10)))
          CFI V9 load(1, XDATA, add(CFA_XSP16, literal(-9)))
          CFI V10 load(1, XDATA, add(CFA_XSP16, literal(-8)))
          CFI V11 load(1, XDATA, add(CFA_XSP16, literal(-7)))
          CFI R7 load(1, XDATA, add(CFA_XSP16, literal(-6)))
          CFI ?RET_LOW load(1, XDATA, add(CFA_XSP16, literal(-5)))
          CFI ?RET_HIGH load(1, XDATA, add(CFA_XSP16, literal(-4)))
          CFI ?BRET_EXT load(1, XDATA, add(CFA_XSP16, literal(-3)))
          CFI DPL0 load(1, XDATA, add(CFA_XSP16, literal(-2)))
          CFI DPH0 load(1, XDATA, add(CFA_XSP16, literal(-1)))
          CFI CFA_SP SP+-2
          CFI CFA_XSP16 add(XSP16, 63)
          CFI Block cfiCond212 Using cfiCommon0
          CFI (cfiCond212) Function zha_project_ProcessInReportCmd
          CFI (cfiCond212) Conditional ??CrossCallReturnLabel_110
          CFI (cfiCond212) R6 load(1, XDATA, add(CFA_XSP16, literal(-20)))
          CFI (cfiCond212) VB load(1, XDATA, add(CFA_XSP16, literal(-19)))
          CFI (cfiCond212) V0 load(1, XDATA, add(CFA_XSP16, literal(-18)))
          CFI (cfiCond212) V1 load(1, XDATA, add(CFA_XSP16, literal(-17)))
          CFI (cfiCond212) V2 load(1, XDATA, add(CFA_XSP16, literal(-16)))
          CFI (cfiCond212) V3 load(1, XDATA, add(CFA_XSP16, literal(-15)))
          CFI (cfiCond212) V4 load(1, XDATA, add(CFA_XSP16, literal(-14)))
          CFI (cfiCond212) V5 load(1, XDATA, add(CFA_XSP16, literal(-13)))
          CFI (cfiCond212) V6 load(1, XDATA, add(CFA_XSP16, literal(-12)))
          CFI (cfiCond212) V7 load(1, XDATA, add(CFA_XSP16, literal(-11)))
          CFI (cfiCond212) V8 load(1, XDATA, add(CFA_XSP16, literal(-10)))
          CFI (cfiCond212) V9 load(1, XDATA, add(CFA_XSP16, literal(-9)))
          CFI (cfiCond212) V10 load(1, XDATA, add(CFA_XSP16, literal(-8)))
          CFI (cfiCond212) V11 load(1, XDATA, add(CFA_XSP16, literal(-7)))
          CFI (cfiCond212) R7 load(1, XDATA, add(CFA_XSP16, literal(-6)))
          CFI (cfiCond212) ?RET_LOW load(1, XDATA, add(CFA_XSP16, literal(-5)))
          CFI (cfiCond212) ?RET_HIGH load(1, XDATA, add(CFA_XSP16, literal(-4)))
          CFI (cfiCond212) ?BRET_EXT load(1, XDATA, add(CFA_XSP16, literal(-3)))
          CFI (cfiCond212) DPL0 load(1, XDATA, add(CFA_XSP16, literal(-2)))
          CFI (cfiCond212) DPH0 load(1, XDATA, add(CFA_XSP16, literal(-1)))
          CFI (cfiCond212) CFA_SP SP+-2
          CFI (cfiCond212) CFA_XSP16 add(XSP16, 63)
          CFI Block cfiCond213 Using cfiCommon0
          CFI (cfiCond213) Function zha_project_ProcessInReadRspCmd
          CFI (cfiCond213) Conditional ??CrossCallReturnLabel_111
          CFI (cfiCond213) R6 load(1, XDATA, add(CFA_XSP16, literal(-20)))
          CFI (cfiCond213) VB load(1, XDATA, add(CFA_XSP16, literal(-19)))
          CFI (cfiCond213) V0 load(1, XDATA, add(CFA_XSP16, literal(-18)))
          CFI (cfiCond213) V1 load(1, XDATA, add(CFA_XSP16, literal(-17)))
          CFI (cfiCond213) V2 load(1, XDATA, add(CFA_XSP16, literal(-16)))
          CFI (cfiCond213) V3 load(1, XDATA, add(CFA_XSP16, literal(-15)))
          CFI (cfiCond213) V4 load(1, XDATA, add(CFA_XSP16, literal(-14)))
          CFI (cfiCond213) V5 load(1, XDATA, add(CFA_XSP16, literal(-13)))
          CFI (cfiCond213) V6 load(1, XDATA, add(CFA_XSP16, literal(-12)))
          CFI (cfiCond213) V7 load(1, XDATA, add(CFA_XSP16, literal(-11)))
          CFI (cfiCond213) V8 load(1, XDATA, add(CFA_XSP16, literal(-10)))
          CFI (cfiCond213) V9 load(1, XDATA, add(CFA_XSP16, literal(-9)))
          CFI (cfiCond213) V10 load(1, XDATA, add(CFA_XSP16, literal(-8)))
          CFI (cfiCond213) V11 load(1, XDATA, add(CFA_XSP16, literal(-7)))
          CFI (cfiCond213) R7 load(1, XDATA, add(CFA_XSP16, literal(-6)))
          CFI (cfiCond213) ?RET_LOW load(1, XDATA, add(CFA_XSP16, literal(-5)))
          CFI (cfiCond213) ?RET_HIGH load(1, XDATA, add(CFA_XSP16, literal(-4)))
          CFI (cfiCond213) ?BRET_EXT load(1, XDATA, add(CFA_XSP16, literal(-3)))
          CFI (cfiCond213) DPL0 load(1, XDATA, add(CFA_XSP16, literal(-2)))
          CFI (cfiCond213) DPH0 load(1, XDATA, add(CFA_XSP16, literal(-1)))
          CFI (cfiCond213) CFA_SP SP+-2
          CFI (cfiCond213) CFA_XSP16 add(XSP16, 63)
          CFI Block cfiCond214 Using cfiCommon0
          CFI (cfiCond214) Function zha_project_ProcessInReportCmd
          CFI (cfiCond214) Conditional ??CrossCallReturnLabel_112
          CFI (cfiCond214) R6 load(1, XDATA, add(CFA_XSP16, literal(-20)))
          CFI (cfiCond214) VB load(1, XDATA, add(CFA_XSP16, literal(-19)))
          CFI (cfiCond214) V0 load(1, XDATA, add(CFA_XSP16, literal(-18)))
          CFI (cfiCond214) V1 load(1, XDATA, add(CFA_XSP16, literal(-17)))
          CFI (cfiCond214) V2 load(1, XDATA, add(CFA_XSP16, literal(-16)))
          CFI (cfiCond214) V3 load(1, XDATA, add(CFA_XSP16, literal(-15)))
          CFI (cfiCond214) V4 load(1, XDATA, add(CFA_XSP16, literal(-14)))
          CFI (cfiCond214) V5 load(1, XDATA, add(CFA_XSP16, literal(-13)))
          CFI (cfiCond214) V6 load(1, XDATA, add(CFA_XSP16, literal(-12)))
          CFI (cfiCond214) V7 load(1, XDATA, add(CFA_XSP16, literal(-11)))
          CFI (cfiCond214) V8 load(1, XDATA, add(CFA_XSP16, literal(-10)))
          CFI (cfiCond214) V9 load(1, XDATA, add(CFA_XSP16, literal(-9)))
          CFI (cfiCond214) V10 load(1, XDATA, add(CFA_XSP16, literal(-8)))
          CFI (cfiCond214) V11 load(1, XDATA, add(CFA_XSP16, literal(-7)))
          CFI (cfiCond214) R7 load(1, XDATA, add(CFA_XSP16, literal(-6)))
          CFI (cfiCond214) ?RET_LOW load(1, XDATA, add(CFA_XSP16, literal(-5)))
          CFI (cfiCond214) ?RET_HIGH load(1, XDATA, add(CFA_XSP16, literal(-4)))
          CFI (cfiCond214) ?BRET_EXT load(1, XDATA, add(CFA_XSP16, literal(-3)))
          CFI (cfiCond214) DPL0 load(1, XDATA, add(CFA_XSP16, literal(-2)))
          CFI (cfiCond214) DPH0 load(1, XDATA, add(CFA_XSP16, literal(-1)))
          CFI (cfiCond214) CFA_SP SP+-2
          CFI (cfiCond214) CFA_XSP16 add(XSP16, 63)
          CFI Block cfiPicker215 Using cfiCommon1
          CFI (cfiPicker215) NoFunction
          CFI (cfiPicker215) Picker
        MOVX    A,@DPTR
        MOV     R4,A
        MOV     R5,#0x0
        LCALL   ?Subroutine27 & 0xFFFF
??CrossCallReturnLabel_128:
        RET
          CFI EndBlock cfiCond211
          CFI EndBlock cfiCond212
          CFI EndBlock cfiCond213
          CFI EndBlock cfiCond214
          CFI EndBlock cfiPicker215

        RSEG BANKED_CODE:CODE:NOROOT(0)
?Subroutine27:
          CFI Block cfiCond216 Using cfiCommon0
          CFI Function zha_project_ProcessInReadRspCmd
          CFI Conditional ??CrossCallReturnLabel_127, ??CrossCallReturnLabel_32
          CFI R6 load(1, XDATA, add(CFA_XSP16, literal(-20)))
          CFI VB load(1, XDATA, add(CFA_XSP16, literal(-19)))
          CFI V0 load(1, XDATA, add(CFA_XSP16, literal(-18)))
          CFI V1 load(1, XDATA, add(CFA_XSP16, literal(-17)))
          CFI V2 load(1, XDATA, add(CFA_XSP16, literal(-16)))
          CFI V3 load(1, XDATA, add(CFA_XSP16, literal(-15)))
          CFI V4 load(1, XDATA, add(CFA_XSP16, literal(-14)))
          CFI V5 load(1, XDATA, add(CFA_XSP16, literal(-13)))
          CFI V6 load(1, XDATA, add(CFA_XSP16, literal(-12)))
          CFI V7 load(1, XDATA, add(CFA_XSP16, literal(-11)))
          CFI V8 load(1, XDATA, add(CFA_XSP16, literal(-10)))
          CFI V9 load(1, XDATA, add(CFA_XSP16, literal(-9)))
          CFI V10 load(1, XDATA, add(CFA_XSP16, literal(-8)))
          CFI V11 load(1, XDATA, add(CFA_XSP16, literal(-7)))
          CFI R7 load(1, XDATA, add(CFA_XSP16, literal(-6)))
          CFI ?RET_LOW load(1, XDATA, add(CFA_XSP16, literal(-5)))
          CFI ?RET_HIGH load(1, XDATA, add(CFA_XSP16, literal(-4)))
          CFI ?BRET_EXT load(1, XDATA, add(CFA_XSP16, literal(-3)))
          CFI DPL0 load(1, XDATA, add(CFA_XSP16, literal(-2)))
          CFI DPH0 load(1, XDATA, add(CFA_XSP16, literal(-1)))
          CFI CFA_SP SP+-4
          CFI CFA_XSP16 add(XSP16, 63)
          CFI Block cfiCond217 Using cfiCommon0
          CFI (cfiCond217) Function zha_project_ProcessInReportCmd
          CFI (cfiCond217) Conditional ??CrossCallReturnLabel_127, ??CrossCallReturnLabel_33
          CFI (cfiCond217) R6 load(1, XDATA, add(CFA_XSP16, literal(-20)))
          CFI (cfiCond217) VB load(1, XDATA, add(CFA_XSP16, literal(-19)))
          CFI (cfiCond217) V0 load(1, XDATA, add(CFA_XSP16, literal(-18)))
          CFI (cfiCond217) V1 load(1, XDATA, add(CFA_XSP16, literal(-17)))
          CFI (cfiCond217) V2 load(1, XDATA, add(CFA_XSP16, literal(-16)))
          CFI (cfiCond217) V3 load(1, XDATA, add(CFA_XSP16, literal(-15)))
          CFI (cfiCond217) V4 load(1, XDATA, add(CFA_XSP16, literal(-14)))
          CFI (cfiCond217) V5 load(1, XDATA, add(CFA_XSP16, literal(-13)))
          CFI (cfiCond217) V6 load(1, XDATA, add(CFA_XSP16, literal(-12)))
          CFI (cfiCond217) V7 load(1, XDATA, add(CFA_XSP16, literal(-11)))
          CFI (cfiCond217) V8 load(1, XDATA, add(CFA_XSP16, literal(-10)))
          CFI (cfiCond217) V9 load(1, XDATA, add(CFA_XSP16, literal(-9)))
          CFI (cfiCond217) V10 load(1, XDATA, add(CFA_XSP16, literal(-8)))
          CFI (cfiCond217) V11 load(1, XDATA, add(CFA_XSP16, literal(-7)))
          CFI (cfiCond217) R7 load(1, XDATA, add(CFA_XSP16, literal(-6)))
          CFI (cfiCond217) ?RET_LOW load(1, XDATA, add(CFA_XSP16, literal(-5)))
          CFI (cfiCond217) ?RET_HIGH load(1, XDATA, add(CFA_XSP16, literal(-4)))
          CFI (cfiCond217) ?BRET_EXT load(1, XDATA, add(CFA_XSP16, literal(-3)))
          CFI (cfiCond217) DPL0 load(1, XDATA, add(CFA_XSP16, literal(-2)))
          CFI (cfiCond217) DPH0 load(1, XDATA, add(CFA_XSP16, literal(-1)))
          CFI (cfiCond217) CFA_SP SP+-4
          CFI (cfiCond217) CFA_XSP16 add(XSP16, 63)
          CFI Block cfiCond218 Using cfiCommon0
          CFI (cfiCond218) Function zha_project_ProcessInReadRspCmd
          CFI (cfiCond218) Conditional ??CrossCallReturnLabel_128, ??CrossCallReturnLabel_111
          CFI (cfiCond218) R6 load(1, XDATA, add(CFA_XSP16, literal(-20)))
          CFI (cfiCond218) VB load(1, XDATA, add(CFA_XSP16, literal(-19)))
          CFI (cfiCond218) V0 load(1, XDATA, add(CFA_XSP16, literal(-18)))
          CFI (cfiCond218) V1 load(1, XDATA, add(CFA_XSP16, literal(-17)))
          CFI (cfiCond218) V2 load(1, XDATA, add(CFA_XSP16, literal(-16)))
          CFI (cfiCond218) V3 load(1, XDATA, add(CFA_XSP16, literal(-15)))
          CFI (cfiCond218) V4 load(1, XDATA, add(CFA_XSP16, literal(-14)))
          CFI (cfiCond218) V5 load(1, XDATA, add(CFA_XSP16, literal(-13)))
          CFI (cfiCond218) V6 load(1, XDATA, add(CFA_XSP16, literal(-12)))
          CFI (cfiCond218) V7 load(1, XDATA, add(CFA_XSP16, literal(-11)))
          CFI (cfiCond218) V8 load(1, XDATA, add(CFA_XSP16, literal(-10)))
          CFI (cfiCond218) V9 load(1, XDATA, add(CFA_XSP16, literal(-9)))
          CFI (cfiCond218) V10 load(1, XDATA, add(CFA_XSP16, literal(-8)))
          CFI (cfiCond218) V11 load(1, XDATA, add(CFA_XSP16, literal(-7)))
          CFI (cfiCond218) R7 load(1, XDATA, add(CFA_XSP16, literal(-6)))
          CFI (cfiCond218) ?RET_LOW load(1, XDATA, add(CFA_XSP16, literal(-5)))
          CFI (cfiCond218) ?RET_HIGH load(1, XDATA, add(CFA_XSP16, literal(-4)))
          CFI (cfiCond218) ?BRET_EXT load(1, XDATA, add(CFA_XSP16, literal(-3)))
          CFI (cfiCond218) DPL0 load(1, XDATA, add(CFA_XSP16, literal(-2)))
          CFI (cfiCond218) DPH0 load(1, XDATA, add(CFA_XSP16, literal(-1)))
          CFI (cfiCond218) CFA_SP SP+-4
          CFI (cfiCond218) CFA_XSP16 add(XSP16, 63)
          CFI Block cfiCond219 Using cfiCommon0
          CFI (cfiCond219) Function zha_project_ProcessInReportCmd
          CFI (cfiCond219) Conditional ??CrossCallReturnLabel_128, ??CrossCallReturnLabel_112
          CFI (cfiCond219) R6 load(1, XDATA, add(CFA_XSP16, literal(-20)))
          CFI (cfiCond219) VB load(1, XDATA, add(CFA_XSP16, literal(-19)))
          CFI (cfiCond219) V0 load(1, XDATA, add(CFA_XSP16, literal(-18)))
          CFI (cfiCond219) V1 load(1, XDATA, add(CFA_XSP16, literal(-17)))
          CFI (cfiCond219) V2 load(1, XDATA, add(CFA_XSP16, literal(-16)))
          CFI (cfiCond219) V3 load(1, XDATA, add(CFA_XSP16, literal(-15)))
          CFI (cfiCond219) V4 load(1, XDATA, add(CFA_XSP16, literal(-14)))
          CFI (cfiCond219) V5 load(1, XDATA, add(CFA_XSP16, literal(-13)))
          CFI (cfiCond219) V6 load(1, XDATA, add(CFA_XSP16, literal(-12)))
          CFI (cfiCond219) V7 load(1, XDATA, add(CFA_XSP16, literal(-11)))
          CFI (cfiCond219) V8 load(1, XDATA, add(CFA_XSP16, literal(-10)))
          CFI (cfiCond219) V9 load(1, XDATA, add(CFA_XSP16, literal(-9)))
          CFI (cfiCond219) V10 load(1, XDATA, add(CFA_XSP16, literal(-8)))
          CFI (cfiCond219) V11 load(1, XDATA, add(CFA_XSP16, literal(-7)))
          CFI (cfiCond219) R7 load(1, XDATA, add(CFA_XSP16, literal(-6)))
          CFI (cfiCond219) ?RET_LOW load(1, XDATA, add(CFA_XSP16, literal(-5)))
          CFI (cfiCond219) ?RET_HIGH load(1, XDATA, add(CFA_XSP16, literal(-4)))
          CFI (cfiCond219) ?BRET_EXT load(1, XDATA, add(CFA_XSP16, literal(-3)))
          CFI (cfiCond219) DPL0 load(1, XDATA, add(CFA_XSP16, literal(-2)))
          CFI (cfiCond219) DPH0 load(1, XDATA, add(CFA_XSP16, literal(-1)))
          CFI (cfiCond219) CFA_SP SP+-4
          CFI (cfiCond219) CFA_XSP16 add(XSP16, 63)
          CFI Block cfiCond220 Using cfiCommon0
          CFI (cfiCond220) Function zha_project_ProcessInReadRspCmd
          CFI (cfiCond220) Conditional ??CrossCallReturnLabel_128, ??CrossCallReturnLabel_109
          CFI (cfiCond220) R6 load(1, XDATA, add(CFA_XSP16, literal(-20)))
          CFI (cfiCond220) VB load(1, XDATA, add(CFA_XSP16, literal(-19)))
          CFI (cfiCond220) V0 load(1, XDATA, add(CFA_XSP16, literal(-18)))
          CFI (cfiCond220) V1 load(1, XDATA, add(CFA_XSP16, literal(-17)))
          CFI (cfiCond220) V2 load(1, XDATA, add(CFA_XSP16, literal(-16)))
          CFI (cfiCond220) V3 load(1, XDATA, add(CFA_XSP16, literal(-15)))
          CFI (cfiCond220) V4 load(1, XDATA, add(CFA_XSP16, literal(-14)))
          CFI (cfiCond220) V5 load(1, XDATA, add(CFA_XSP16, literal(-13)))
          CFI (cfiCond220) V6 load(1, XDATA, add(CFA_XSP16, literal(-12)))
          CFI (cfiCond220) V7 load(1, XDATA, add(CFA_XSP16, literal(-11)))
          CFI (cfiCond220) V8 load(1, XDATA, add(CFA_XSP16, literal(-10)))
          CFI (cfiCond220) V9 load(1, XDATA, add(CFA_XSP16, literal(-9)))
          CFI (cfiCond220) V10 load(1, XDATA, add(CFA_XSP16, literal(-8)))
          CFI (cfiCond220) V11 load(1, XDATA, add(CFA_XSP16, literal(-7)))
          CFI (cfiCond220) R7 load(1, XDATA, add(CFA_XSP16, literal(-6)))
          CFI (cfiCond220) ?RET_LOW load(1, XDATA, add(CFA_XSP16, literal(-5)))
          CFI (cfiCond220) ?RET_HIGH load(1, XDATA, add(CFA_XSP16, literal(-4)))
          CFI (cfiCond220) ?BRET_EXT load(1, XDATA, add(CFA_XSP16, literal(-3)))
          CFI (cfiCond220) DPL0 load(1, XDATA, add(CFA_XSP16, literal(-2)))
          CFI (cfiCond220) DPH0 load(1, XDATA, add(CFA_XSP16, literal(-1)))
          CFI (cfiCond220) CFA_SP SP+-4
          CFI (cfiCond220) CFA_XSP16 add(XSP16, 63)
          CFI Block cfiCond221 Using cfiCommon0
          CFI (cfiCond221) Function zha_project_ProcessInReportCmd
          CFI (cfiCond221) Conditional ??CrossCallReturnLabel_128, ??CrossCallReturnLabel_110
          CFI (cfiCond221) R6 load(1, XDATA, add(CFA_XSP16, literal(-20)))
          CFI (cfiCond221) VB load(1, XDATA, add(CFA_XSP16, literal(-19)))
          CFI (cfiCond221) V0 load(1, XDATA, add(CFA_XSP16, literal(-18)))
          CFI (cfiCond221) V1 load(1, XDATA, add(CFA_XSP16, literal(-17)))
          CFI (cfiCond221) V2 load(1, XDATA, add(CFA_XSP16, literal(-16)))
          CFI (cfiCond221) V3 load(1, XDATA, add(CFA_XSP16, literal(-15)))
          CFI (cfiCond221) V4 load(1, XDATA, add(CFA_XSP16, literal(-14)))
          CFI (cfiCond221) V5 load(1, XDATA, add(CFA_XSP16, literal(-13)))
          CFI (cfiCond221) V6 load(1, XDATA, add(CFA_XSP16, literal(-12)))
          CFI (cfiCond221) V7 load(1, XDATA, add(CFA_XSP16, literal(-11)))
          CFI (cfiCond221) V8 load(1, XDATA, add(CFA_XSP16, literal(-10)))
          CFI (cfiCond221) V9 load(1, XDATA, add(CFA_XSP16, literal(-9)))
          CFI (cfiCond221) V10 load(1, XDATA, add(CFA_XSP16, literal(-8)))
          CFI (cfiCond221) V11 load(1, XDATA, add(CFA_XSP16, literal(-7)))
          CFI (cfiCond221) R7 load(1, XDATA, add(CFA_XSP16, literal(-6)))
          CFI (cfiCond221) ?RET_LOW load(1, XDATA, add(CFA_XSP16, literal(-5)))
          CFI (cfiCond221) ?RET_HIGH load(1, XDATA, add(CFA_XSP16, literal(-4)))
          CFI (cfiCond221) ?BRET_EXT load(1, XDATA, add(CFA_XSP16, literal(-3)))
          CFI (cfiCond221) DPL0 load(1, XDATA, add(CFA_XSP16, literal(-2)))
          CFI (cfiCond221) DPH0 load(1, XDATA, add(CFA_XSP16, literal(-1)))
          CFI (cfiCond221) CFA_SP SP+-4
          CFI (cfiCond221) CFA_XSP16 add(XSP16, 63)
          CFI Block cfiCond222 Using cfiCommon0
          CFI (cfiCond222) Function zha_project_ProcessInReadRspCmd
          CFI (cfiCond222) Conditional ??CrossCallReturnLabel_129, ??CrossCallReturnLabel_113
          CFI (cfiCond222) R6 load(1, XDATA, add(CFA_XSP16, literal(-20)))
          CFI (cfiCond222) VB load(1, XDATA, add(CFA_XSP16, literal(-19)))
          CFI (cfiCond222) V0 load(1, XDATA, add(CFA_XSP16, literal(-18)))
          CFI (cfiCond222) V1 load(1, XDATA, add(CFA_XSP16, literal(-17)))
          CFI (cfiCond222) V2 load(1, XDATA, add(CFA_XSP16, literal(-16)))
          CFI (cfiCond222) V3 load(1, XDATA, add(CFA_XSP16, literal(-15)))
          CFI (cfiCond222) V4 load(1, XDATA, add(CFA_XSP16, literal(-14)))
          CFI (cfiCond222) V5 load(1, XDATA, add(CFA_XSP16, literal(-13)))
          CFI (cfiCond222) V6 load(1, XDATA, add(CFA_XSP16, literal(-12)))
          CFI (cfiCond222) V7 load(1, XDATA, add(CFA_XSP16, literal(-11)))
          CFI (cfiCond222) V8 load(1, XDATA, add(CFA_XSP16, literal(-10)))
          CFI (cfiCond222) V9 load(1, XDATA, add(CFA_XSP16, literal(-9)))
          CFI (cfiCond222) V10 load(1, XDATA, add(CFA_XSP16, literal(-8)))
          CFI (cfiCond222) V11 load(1, XDATA, add(CFA_XSP16, literal(-7)))
          CFI (cfiCond222) R7 load(1, XDATA, add(CFA_XSP16, literal(-6)))
          CFI (cfiCond222) ?RET_LOW load(1, XDATA, add(CFA_XSP16, literal(-5)))
          CFI (cfiCond222) ?RET_HIGH load(1, XDATA, add(CFA_XSP16, literal(-4)))
          CFI (cfiCond222) ?BRET_EXT load(1, XDATA, add(CFA_XSP16, literal(-3)))
          CFI (cfiCond222) DPL0 load(1, XDATA, add(CFA_XSP16, literal(-2)))
          CFI (cfiCond222) DPH0 load(1, XDATA, add(CFA_XSP16, literal(-1)))
          CFI (cfiCond222) CFA_SP SP+-4
          CFI (cfiCond222) CFA_XSP16 add(XSP16, 63)
          CFI Block cfiCond223 Using cfiCommon0
          CFI (cfiCond223) Function zha_project_ProcessInReadRspCmd
          CFI (cfiCond223) Conditional ??CrossCallReturnLabel_129, ??CrossCallReturnLabel_114
          CFI (cfiCond223) R6 load(1, XDATA, add(CFA_XSP16, literal(-20)))
          CFI (cfiCond223) VB load(1, XDATA, add(CFA_XSP16, literal(-19)))
          CFI (cfiCond223) V0 load(1, XDATA, add(CFA_XSP16, literal(-18)))
          CFI (cfiCond223) V1 load(1, XDATA, add(CFA_XSP16, literal(-17)))
          CFI (cfiCond223) V2 load(1, XDATA, add(CFA_XSP16, literal(-16)))
          CFI (cfiCond223) V3 load(1, XDATA, add(CFA_XSP16, literal(-15)))
          CFI (cfiCond223) V4 load(1, XDATA, add(CFA_XSP16, literal(-14)))
          CFI (cfiCond223) V5 load(1, XDATA, add(CFA_XSP16, literal(-13)))
          CFI (cfiCond223) V6 load(1, XDATA, add(CFA_XSP16, literal(-12)))
          CFI (cfiCond223) V7 load(1, XDATA, add(CFA_XSP16, literal(-11)))
          CFI (cfiCond223) V8 load(1, XDATA, add(CFA_XSP16, literal(-10)))
          CFI (cfiCond223) V9 load(1, XDATA, add(CFA_XSP16, literal(-9)))
          CFI (cfiCond223) V10 load(1, XDATA, add(CFA_XSP16, literal(-8)))
          CFI (cfiCond223) V11 load(1, XDATA, add(CFA_XSP16, literal(-7)))
          CFI (cfiCond223) R7 load(1, XDATA, add(CFA_XSP16, literal(-6)))
          CFI (cfiCond223) ?RET_LOW load(1, XDATA, add(CFA_XSP16, literal(-5)))
          CFI (cfiCond223) ?RET_HIGH load(1, XDATA, add(CFA_XSP16, literal(-4)))
          CFI (cfiCond223) ?BRET_EXT load(1, XDATA, add(CFA_XSP16, literal(-3)))
          CFI (cfiCond223) DPL0 load(1, XDATA, add(CFA_XSP16, literal(-2)))
          CFI (cfiCond223) DPH0 load(1, XDATA, add(CFA_XSP16, literal(-1)))
          CFI (cfiCond223) CFA_SP SP+-4
          CFI (cfiCond223) CFA_XSP16 add(XSP16, 63)
          CFI Block cfiCond224 Using cfiCommon0
          CFI (cfiCond224) Function zha_project_ProcessInReadRspCmd
          CFI (cfiCond224) Conditional ??CrossCallReturnLabel_129, ??CrossCallReturnLabel_115
          CFI (cfiCond224) R6 load(1, XDATA, add(CFA_XSP16, literal(-20)))
          CFI (cfiCond224) VB load(1, XDATA, add(CFA_XSP16, literal(-19)))
          CFI (cfiCond224) V0 load(1, XDATA, add(CFA_XSP16, literal(-18)))
          CFI (cfiCond224) V1 load(1, XDATA, add(CFA_XSP16, literal(-17)))
          CFI (cfiCond224) V2 load(1, XDATA, add(CFA_XSP16, literal(-16)))
          CFI (cfiCond224) V3 load(1, XDATA, add(CFA_XSP16, literal(-15)))
          CFI (cfiCond224) V4 load(1, XDATA, add(CFA_XSP16, literal(-14)))
          CFI (cfiCond224) V5 load(1, XDATA, add(CFA_XSP16, literal(-13)))
          CFI (cfiCond224) V6 load(1, XDATA, add(CFA_XSP16, literal(-12)))
          CFI (cfiCond224) V7 load(1, XDATA, add(CFA_XSP16, literal(-11)))
          CFI (cfiCond224) V8 load(1, XDATA, add(CFA_XSP16, literal(-10)))
          CFI (cfiCond224) V9 load(1, XDATA, add(CFA_XSP16, literal(-9)))
          CFI (cfiCond224) V10 load(1, XDATA, add(CFA_XSP16, literal(-8)))
          CFI (cfiCond224) V11 load(1, XDATA, add(CFA_XSP16, literal(-7)))
          CFI (cfiCond224) R7 load(1, XDATA, add(CFA_XSP16, literal(-6)))
          CFI (cfiCond224) ?RET_LOW load(1, XDATA, add(CFA_XSP16, literal(-5)))
          CFI (cfiCond224) ?RET_HIGH load(1, XDATA, add(CFA_XSP16, literal(-4)))
          CFI (cfiCond224) ?BRET_EXT load(1, XDATA, add(CFA_XSP16, literal(-3)))
          CFI (cfiCond224) DPL0 load(1, XDATA, add(CFA_XSP16, literal(-2)))
          CFI (cfiCond224) DPH0 load(1, XDATA, add(CFA_XSP16, literal(-1)))
          CFI (cfiCond224) CFA_SP SP+-4
          CFI (cfiCond224) CFA_XSP16 add(XSP16, 63)
          CFI Block cfiCond225 Using cfiCommon0
          CFI (cfiCond225) Function zha_project_ProcessInReportCmd
          CFI (cfiCond225) Conditional ??CrossCallReturnLabel_129, ??CrossCallReturnLabel_116
          CFI (cfiCond225) R6 load(1, XDATA, add(CFA_XSP16, literal(-20)))
          CFI (cfiCond225) VB load(1, XDATA, add(CFA_XSP16, literal(-19)))
          CFI (cfiCond225) V0 load(1, XDATA, add(CFA_XSP16, literal(-18)))
          CFI (cfiCond225) V1 load(1, XDATA, add(CFA_XSP16, literal(-17)))
          CFI (cfiCond225) V2 load(1, XDATA, add(CFA_XSP16, literal(-16)))
          CFI (cfiCond225) V3 load(1, XDATA, add(CFA_XSP16, literal(-15)))
          CFI (cfiCond225) V4 load(1, XDATA, add(CFA_XSP16, literal(-14)))
          CFI (cfiCond225) V5 load(1, XDATA, add(CFA_XSP16, literal(-13)))
          CFI (cfiCond225) V6 load(1, XDATA, add(CFA_XSP16, literal(-12)))
          CFI (cfiCond225) V7 load(1, XDATA, add(CFA_XSP16, literal(-11)))
          CFI (cfiCond225) V8 load(1, XDATA, add(CFA_XSP16, literal(-10)))
          CFI (cfiCond225) V9 load(1, XDATA, add(CFA_XSP16, literal(-9)))
          CFI (cfiCond225) V10 load(1, XDATA, add(CFA_XSP16, literal(-8)))
          CFI (cfiCond225) V11 load(1, XDATA, add(CFA_XSP16, literal(-7)))
          CFI (cfiCond225) R7 load(1, XDATA, add(CFA_XSP16, literal(-6)))
          CFI (cfiCond225) ?RET_LOW load(1, XDATA, add(CFA_XSP16, literal(-5)))
          CFI (cfiCond225) ?RET_HIGH load(1, XDATA, add(CFA_XSP16, literal(-4)))
          CFI (cfiCond225) ?BRET_EXT load(1, XDATA, add(CFA_XSP16, literal(-3)))
          CFI (cfiCond225) DPL0 load(1, XDATA, add(CFA_XSP16, literal(-2)))
          CFI (cfiCond225) DPH0 load(1, XDATA, add(CFA_XSP16, literal(-1)))
          CFI (cfiCond225) CFA_SP SP+-4
          CFI (cfiCond225) CFA_XSP16 add(XSP16, 63)
          CFI Block cfiCond226 Using cfiCommon0
          CFI (cfiCond226) Function zha_project_ProcessInReportCmd
          CFI (cfiCond226) Conditional ??CrossCallReturnLabel_129, ??CrossCallReturnLabel_117
          CFI (cfiCond226) R6 load(1, XDATA, add(CFA_XSP16, literal(-20)))
          CFI (cfiCond226) VB load(1, XDATA, add(CFA_XSP16, literal(-19)))
          CFI (cfiCond226) V0 load(1, XDATA, add(CFA_XSP16, literal(-18)))
          CFI (cfiCond226) V1 load(1, XDATA, add(CFA_XSP16, literal(-17)))
          CFI (cfiCond226) V2 load(1, XDATA, add(CFA_XSP16, literal(-16)))
          CFI (cfiCond226) V3 load(1, XDATA, add(CFA_XSP16, literal(-15)))
          CFI (cfiCond226) V4 load(1, XDATA, add(CFA_XSP16, literal(-14)))
          CFI (cfiCond226) V5 load(1, XDATA, add(CFA_XSP16, literal(-13)))
          CFI (cfiCond226) V6 load(1, XDATA, add(CFA_XSP16, literal(-12)))
          CFI (cfiCond226) V7 load(1, XDATA, add(CFA_XSP16, literal(-11)))
          CFI (cfiCond226) V8 load(1, XDATA, add(CFA_XSP16, literal(-10)))
          CFI (cfiCond226) V9 load(1, XDATA, add(CFA_XSP16, literal(-9)))
          CFI (cfiCond226) V10 load(1, XDATA, add(CFA_XSP16, literal(-8)))
          CFI (cfiCond226) V11 load(1, XDATA, add(CFA_XSP16, literal(-7)))
          CFI (cfiCond226) R7 load(1, XDATA, add(CFA_XSP16, literal(-6)))
          CFI (cfiCond226) ?RET_LOW load(1, XDATA, add(CFA_XSP16, literal(-5)))
          CFI (cfiCond226) ?RET_HIGH load(1, XDATA, add(CFA_XSP16, literal(-4)))
          CFI (cfiCond226) ?BRET_EXT load(1, XDATA, add(CFA_XSP16, literal(-3)))
          CFI (cfiCond226) DPL0 load(1, XDATA, add(CFA_XSP16, literal(-2)))
          CFI (cfiCond226) DPH0 load(1, XDATA, add(CFA_XSP16, literal(-1)))
          CFI (cfiCond226) CFA_SP SP+-4
          CFI (cfiCond226) CFA_XSP16 add(XSP16, 63)
          CFI Block cfiCond227 Using cfiCommon0
          CFI (cfiCond227) Function zha_project_ProcessInReportCmd
          CFI (cfiCond227) Conditional ??CrossCallReturnLabel_129, ??CrossCallReturnLabel_118
          CFI (cfiCond227) R6 load(1, XDATA, add(CFA_XSP16, literal(-20)))
          CFI (cfiCond227) VB load(1, XDATA, add(CFA_XSP16, literal(-19)))
          CFI (cfiCond227) V0 load(1, XDATA, add(CFA_XSP16, literal(-18)))
          CFI (cfiCond227) V1 load(1, XDATA, add(CFA_XSP16, literal(-17)))
          CFI (cfiCond227) V2 load(1, XDATA, add(CFA_XSP16, literal(-16)))
          CFI (cfiCond227) V3 load(1, XDATA, add(CFA_XSP16, literal(-15)))
          CFI (cfiCond227) V4 load(1, XDATA, add(CFA_XSP16, literal(-14)))
          CFI (cfiCond227) V5 load(1, XDATA, add(CFA_XSP16, literal(-13)))
          CFI (cfiCond227) V6 load(1, XDATA, add(CFA_XSP16, literal(-12)))
          CFI (cfiCond227) V7 load(1, XDATA, add(CFA_XSP16, literal(-11)))
          CFI (cfiCond227) V8 load(1, XDATA, add(CFA_XSP16, literal(-10)))
          CFI (cfiCond227) V9 load(1, XDATA, add(CFA_XSP16, literal(-9)))
          CFI (cfiCond227) V10 load(1, XDATA, add(CFA_XSP16, literal(-8)))
          CFI (cfiCond227) V11 load(1, XDATA, add(CFA_XSP16, literal(-7)))
          CFI (cfiCond227) R7 load(1, XDATA, add(CFA_XSP16, literal(-6)))
          CFI (cfiCond227) ?RET_LOW load(1, XDATA, add(CFA_XSP16, literal(-5)))
          CFI (cfiCond227) ?RET_HIGH load(1, XDATA, add(CFA_XSP16, literal(-4)))
          CFI (cfiCond227) ?BRET_EXT load(1, XDATA, add(CFA_XSP16, literal(-3)))
          CFI (cfiCond227) DPL0 load(1, XDATA, add(CFA_XSP16, literal(-2)))
          CFI (cfiCond227) DPH0 load(1, XDATA, add(CFA_XSP16, literal(-1)))
          CFI (cfiCond227) CFA_SP SP+-4
          CFI (cfiCond227) CFA_XSP16 add(XSP16, 63)
          CFI Block cfiCond228 Using cfiCommon0
          CFI (cfiCond228) Function zha_project_ProcessInReadRspCmd
          CFI (cfiCond228) Conditional ??CrossCallReturnLabel_129, ??CrossCallReturnLabel_119
          CFI (cfiCond228) R6 load(1, XDATA, add(CFA_XSP16, literal(-20)))
          CFI (cfiCond228) VB load(1, XDATA, add(CFA_XSP16, literal(-19)))
          CFI (cfiCond228) V0 load(1, XDATA, add(CFA_XSP16, literal(-18)))
          CFI (cfiCond228) V1 load(1, XDATA, add(CFA_XSP16, literal(-17)))
          CFI (cfiCond228) V2 load(1, XDATA, add(CFA_XSP16, literal(-16)))
          CFI (cfiCond228) V3 load(1, XDATA, add(CFA_XSP16, literal(-15)))
          CFI (cfiCond228) V4 load(1, XDATA, add(CFA_XSP16, literal(-14)))
          CFI (cfiCond228) V5 load(1, XDATA, add(CFA_XSP16, literal(-13)))
          CFI (cfiCond228) V6 load(1, XDATA, add(CFA_XSP16, literal(-12)))
          CFI (cfiCond228) V7 load(1, XDATA, add(CFA_XSP16, literal(-11)))
          CFI (cfiCond228) V8 load(1, XDATA, add(CFA_XSP16, literal(-10)))
          CFI (cfiCond228) V9 load(1, XDATA, add(CFA_XSP16, literal(-9)))
          CFI (cfiCond228) V10 load(1, XDATA, add(CFA_XSP16, literal(-8)))
          CFI (cfiCond228) V11 load(1, XDATA, add(CFA_XSP16, literal(-7)))
          CFI (cfiCond228) R7 load(1, XDATA, add(CFA_XSP16, literal(-6)))
          CFI (cfiCond228) ?RET_LOW load(1, XDATA, add(CFA_XSP16, literal(-5)))
          CFI (cfiCond228) ?RET_HIGH load(1, XDATA, add(CFA_XSP16, literal(-4)))
          CFI (cfiCond228) ?BRET_EXT load(1, XDATA, add(CFA_XSP16, literal(-3)))
          CFI (cfiCond228) DPL0 load(1, XDATA, add(CFA_XSP16, literal(-2)))
          CFI (cfiCond228) DPH0 load(1, XDATA, add(CFA_XSP16, literal(-1)))
          CFI (cfiCond228) CFA_SP SP+-4
          CFI (cfiCond228) CFA_XSP16 add(XSP16, 63)
          CFI Block cfiCond229 Using cfiCommon0
          CFI (cfiCond229) Function zha_project_ProcessInReportCmd
          CFI (cfiCond229) Conditional ??CrossCallReturnLabel_129, ??CrossCallReturnLabel_120
          CFI (cfiCond229) R6 load(1, XDATA, add(CFA_XSP16, literal(-20)))
          CFI (cfiCond229) VB load(1, XDATA, add(CFA_XSP16, literal(-19)))
          CFI (cfiCond229) V0 load(1, XDATA, add(CFA_XSP16, literal(-18)))
          CFI (cfiCond229) V1 load(1, XDATA, add(CFA_XSP16, literal(-17)))
          CFI (cfiCond229) V2 load(1, XDATA, add(CFA_XSP16, literal(-16)))
          CFI (cfiCond229) V3 load(1, XDATA, add(CFA_XSP16, literal(-15)))
          CFI (cfiCond229) V4 load(1, XDATA, add(CFA_XSP16, literal(-14)))
          CFI (cfiCond229) V5 load(1, XDATA, add(CFA_XSP16, literal(-13)))
          CFI (cfiCond229) V6 load(1, XDATA, add(CFA_XSP16, literal(-12)))
          CFI (cfiCond229) V7 load(1, XDATA, add(CFA_XSP16, literal(-11)))
          CFI (cfiCond229) V8 load(1, XDATA, add(CFA_XSP16, literal(-10)))
          CFI (cfiCond229) V9 load(1, XDATA, add(CFA_XSP16, literal(-9)))
          CFI (cfiCond229) V10 load(1, XDATA, add(CFA_XSP16, literal(-8)))
          CFI (cfiCond229) V11 load(1, XDATA, add(CFA_XSP16, literal(-7)))
          CFI (cfiCond229) R7 load(1, XDATA, add(CFA_XSP16, literal(-6)))
          CFI (cfiCond229) ?RET_LOW load(1, XDATA, add(CFA_XSP16, literal(-5)))
          CFI (cfiCond229) ?RET_HIGH load(1, XDATA, add(CFA_XSP16, literal(-4)))
          CFI (cfiCond229) ?BRET_EXT load(1, XDATA, add(CFA_XSP16, literal(-3)))
          CFI (cfiCond229) DPL0 load(1, XDATA, add(CFA_XSP16, literal(-2)))
          CFI (cfiCond229) DPH0 load(1, XDATA, add(CFA_XSP16, literal(-1)))
          CFI (cfiCond229) CFA_SP SP+-4
          CFI (cfiCond229) CFA_XSP16 add(XSP16, 63)
          CFI Block cfiCond230 Using cfiCommon0
          CFI (cfiCond230) Function zha_project_ProcessInReadRspCmd
          CFI (cfiCond230) Conditional ??CrossCallReturnLabel_129, ??CrossCallReturnLabel_121
          CFI (cfiCond230) R6 load(1, XDATA, add(CFA_XSP16, literal(-20)))
          CFI (cfiCond230) VB load(1, XDATA, add(CFA_XSP16, literal(-19)))
          CFI (cfiCond230) V0 load(1, XDATA, add(CFA_XSP16, literal(-18)))
          CFI (cfiCond230) V1 load(1, XDATA, add(CFA_XSP16, literal(-17)))
          CFI (cfiCond230) V2 load(1, XDATA, add(CFA_XSP16, literal(-16)))
          CFI (cfiCond230) V3 load(1, XDATA, add(CFA_XSP16, literal(-15)))
          CFI (cfiCond230) V4 load(1, XDATA, add(CFA_XSP16, literal(-14)))
          CFI (cfiCond230) V5 load(1, XDATA, add(CFA_XSP16, literal(-13)))
          CFI (cfiCond230) V6 load(1, XDATA, add(CFA_XSP16, literal(-12)))
          CFI (cfiCond230) V7 load(1, XDATA, add(CFA_XSP16, literal(-11)))
          CFI (cfiCond230) V8 load(1, XDATA, add(CFA_XSP16, literal(-10)))
          CFI (cfiCond230) V9 load(1, XDATA, add(CFA_XSP16, literal(-9)))
          CFI (cfiCond230) V10 load(1, XDATA, add(CFA_XSP16, literal(-8)))
          CFI (cfiCond230) V11 load(1, XDATA, add(CFA_XSP16, literal(-7)))
          CFI (cfiCond230) R7 load(1, XDATA, add(CFA_XSP16, literal(-6)))
          CFI (cfiCond230) ?RET_LOW load(1, XDATA, add(CFA_XSP16, literal(-5)))
          CFI (cfiCond230) ?RET_HIGH load(1, XDATA, add(CFA_XSP16, literal(-4)))
          CFI (cfiCond230) ?BRET_EXT load(1, XDATA, add(CFA_XSP16, literal(-3)))
          CFI (cfiCond230) DPL0 load(1, XDATA, add(CFA_XSP16, literal(-2)))
          CFI (cfiCond230) DPH0 load(1, XDATA, add(CFA_XSP16, literal(-1)))
          CFI (cfiCond230) CFA_SP SP+-4
          CFI (cfiCond230) CFA_XSP16 add(XSP16, 63)
          CFI Block cfiCond231 Using cfiCommon0
          CFI (cfiCond231) Function zha_project_ProcessInReadRspCmd
          CFI (cfiCond231) Conditional ??CrossCallReturnLabel_129, ??CrossCallReturnLabel_122
          CFI (cfiCond231) R6 load(1, XDATA, add(CFA_XSP16, literal(-20)))
          CFI (cfiCond231) VB load(1, XDATA, add(CFA_XSP16, literal(-19)))
          CFI (cfiCond231) V0 load(1, XDATA, add(CFA_XSP16, literal(-18)))
          CFI (cfiCond231) V1 load(1, XDATA, add(CFA_XSP16, literal(-17)))
          CFI (cfiCond231) V2 load(1, XDATA, add(CFA_XSP16, literal(-16)))
          CFI (cfiCond231) V3 load(1, XDATA, add(CFA_XSP16, literal(-15)))
          CFI (cfiCond231) V4 load(1, XDATA, add(CFA_XSP16, literal(-14)))
          CFI (cfiCond231) V5 load(1, XDATA, add(CFA_XSP16, literal(-13)))
          CFI (cfiCond231) V6 load(1, XDATA, add(CFA_XSP16, literal(-12)))
          CFI (cfiCond231) V7 load(1, XDATA, add(CFA_XSP16, literal(-11)))
          CFI (cfiCond231) V8 load(1, XDATA, add(CFA_XSP16, literal(-10)))
          CFI (cfiCond231) V9 load(1, XDATA, add(CFA_XSP16, literal(-9)))
          CFI (cfiCond231) V10 load(1, XDATA, add(CFA_XSP16, literal(-8)))
          CFI (cfiCond231) V11 load(1, XDATA, add(CFA_XSP16, literal(-7)))
          CFI (cfiCond231) R7 load(1, XDATA, add(CFA_XSP16, literal(-6)))
          CFI (cfiCond231) ?RET_LOW load(1, XDATA, add(CFA_XSP16, literal(-5)))
          CFI (cfiCond231) ?RET_HIGH load(1, XDATA, add(CFA_XSP16, literal(-4)))
          CFI (cfiCond231) ?BRET_EXT load(1, XDATA, add(CFA_XSP16, literal(-3)))
          CFI (cfiCond231) DPL0 load(1, XDATA, add(CFA_XSP16, literal(-2)))
          CFI (cfiCond231) DPH0 load(1, XDATA, add(CFA_XSP16, literal(-1)))
          CFI (cfiCond231) CFA_SP SP+-4
          CFI (cfiCond231) CFA_XSP16 add(XSP16, 63)
          CFI Block cfiCond232 Using cfiCommon0
          CFI (cfiCond232) Function zha_project_ProcessInReportCmd
          CFI (cfiCond232) Conditional ??CrossCallReturnLabel_129, ??CrossCallReturnLabel_123
          CFI (cfiCond232) R6 load(1, XDATA, add(CFA_XSP16, literal(-20)))
          CFI (cfiCond232) VB load(1, XDATA, add(CFA_XSP16, literal(-19)))
          CFI (cfiCond232) V0 load(1, XDATA, add(CFA_XSP16, literal(-18)))
          CFI (cfiCond232) V1 load(1, XDATA, add(CFA_XSP16, literal(-17)))
          CFI (cfiCond232) V2 load(1, XDATA, add(CFA_XSP16, literal(-16)))
          CFI (cfiCond232) V3 load(1, XDATA, add(CFA_XSP16, literal(-15)))
          CFI (cfiCond232) V4 load(1, XDATA, add(CFA_XSP16, literal(-14)))
          CFI (cfiCond232) V5 load(1, XDATA, add(CFA_XSP16, literal(-13)))
          CFI (cfiCond232) V6 load(1, XDATA, add(CFA_XSP16, literal(-12)))
          CFI (cfiCond232) V7 load(1, XDATA, add(CFA_XSP16, literal(-11)))
          CFI (cfiCond232) V8 load(1, XDATA, add(CFA_XSP16, literal(-10)))
          CFI (cfiCond232) V9 load(1, XDATA, add(CFA_XSP16, literal(-9)))
          CFI (cfiCond232) V10 load(1, XDATA, add(CFA_XSP16, literal(-8)))
          CFI (cfiCond232) V11 load(1, XDATA, add(CFA_XSP16, literal(-7)))
          CFI (cfiCond232) R7 load(1, XDATA, add(CFA_XSP16, literal(-6)))
          CFI (cfiCond232) ?RET_LOW load(1, XDATA, add(CFA_XSP16, literal(-5)))
          CFI (cfiCond232) ?RET_HIGH load(1, XDATA, add(CFA_XSP16, literal(-4)))
          CFI (cfiCond232) ?BRET_EXT load(1, XDATA, add(CFA_XSP16, literal(-3)))
          CFI (cfiCond232) DPL0 load(1, XDATA, add(CFA_XSP16, literal(-2)))
          CFI (cfiCond232) DPH0 load(1, XDATA, add(CFA_XSP16, literal(-1)))
          CFI (cfiCond232) CFA_SP SP+-4
          CFI (cfiCond232) CFA_XSP16 add(XSP16, 63)
          CFI Block cfiCond233 Using cfiCommon0
          CFI (cfiCond233) Function zha_project_ProcessInReportCmd
          CFI (cfiCond233) Conditional ??CrossCallReturnLabel_129, ??CrossCallReturnLabel_124
          CFI (cfiCond233) R6 load(1, XDATA, add(CFA_XSP16, literal(-20)))
          CFI (cfiCond233) VB load(1, XDATA, add(CFA_XSP16, literal(-19)))
          CFI (cfiCond233) V0 load(1, XDATA, add(CFA_XSP16, literal(-18)))
          CFI (cfiCond233) V1 load(1, XDATA, add(CFA_XSP16, literal(-17)))
          CFI (cfiCond233) V2 load(1, XDATA, add(CFA_XSP16, literal(-16)))
          CFI (cfiCond233) V3 load(1, XDATA, add(CFA_XSP16, literal(-15)))
          CFI (cfiCond233) V4 load(1, XDATA, add(CFA_XSP16, literal(-14)))
          CFI (cfiCond233) V5 load(1, XDATA, add(CFA_XSP16, literal(-13)))
          CFI (cfiCond233) V6 load(1, XDATA, add(CFA_XSP16, literal(-12)))
          CFI (cfiCond233) V7 load(1, XDATA, add(CFA_XSP16, literal(-11)))
          CFI (cfiCond233) V8 load(1, XDATA, add(CFA_XSP16, literal(-10)))
          CFI (cfiCond233) V9 load(1, XDATA, add(CFA_XSP16, literal(-9)))
          CFI (cfiCond233) V10 load(1, XDATA, add(CFA_XSP16, literal(-8)))
          CFI (cfiCond233) V11 load(1, XDATA, add(CFA_XSP16, literal(-7)))
          CFI (cfiCond233) R7 load(1, XDATA, add(CFA_XSP16, literal(-6)))
          CFI (cfiCond233) ?RET_LOW load(1, XDATA, add(CFA_XSP16, literal(-5)))
          CFI (cfiCond233) ?RET_HIGH load(1, XDATA, add(CFA_XSP16, literal(-4)))
          CFI (cfiCond233) ?BRET_EXT load(1, XDATA, add(CFA_XSP16, literal(-3)))
          CFI (cfiCond233) DPL0 load(1, XDATA, add(CFA_XSP16, literal(-2)))
          CFI (cfiCond233) DPH0 load(1, XDATA, add(CFA_XSP16, literal(-1)))
          CFI (cfiCond233) CFA_SP SP+-4
          CFI (cfiCond233) CFA_XSP16 add(XSP16, 63)
          CFI Block cfiPicker234 Using cfiCommon1
          CFI (cfiPicker234) NoFunction
          CFI (cfiPicker234) Picker
        MOV     DPL,?V8
        MOV     DPH,?V9
          CFI EndBlock cfiCond216
          CFI EndBlock cfiCond217
          CFI EndBlock cfiCond218
          CFI EndBlock cfiCond219
          CFI EndBlock cfiCond220
          CFI EndBlock cfiCond221
          CFI EndBlock cfiCond222
          CFI EndBlock cfiCond223
          CFI EndBlock cfiCond224
          CFI EndBlock cfiCond225
          CFI EndBlock cfiCond226
          CFI EndBlock cfiCond227
          CFI EndBlock cfiCond228
          CFI EndBlock cfiCond229
          CFI EndBlock cfiCond230
          CFI EndBlock cfiCond231
          CFI EndBlock cfiCond232
          CFI EndBlock cfiCond233
          CFI EndBlock cfiPicker234
        REQUIRE ??Subroutine43_0
        ; // Fall through to label ??Subroutine43_0

        RSEG BANKED_CODE:CODE:NOROOT(0)
??Subroutine43_0:
          CFI Block cfiCond235 Using cfiCommon0
          CFI Function zha_project_event_loop
          CFI Conditional ??CrossCallReturnLabel_125, ??CrossCallReturnLabel_62
          CFI R6 load(1, XDATA, add(CFA_XSP16, literal(-12)))
          CFI VB load(1, XDATA, add(CFA_XSP16, literal(-11)))
          CFI V0 load(1, XDATA, add(CFA_XSP16, literal(-10)))
          CFI V1 load(1, XDATA, add(CFA_XSP16, literal(-9)))
          CFI V2 load(1, XDATA, add(CFA_XSP16, literal(-8)))
          CFI V3 load(1, XDATA, add(CFA_XSP16, literal(-7)))
          CFI R7 load(1, XDATA, add(CFA_XSP16, literal(-6)))
          CFI ?RET_LOW load(1, XDATA, add(CFA_XSP16, literal(-5)))
          CFI ?RET_HIGH load(1, XDATA, add(CFA_XSP16, literal(-4)))
          CFI ?BRET_EXT load(1, XDATA, add(CFA_XSP16, literal(-3)))
          CFI DPL0 load(1, XDATA, add(CFA_XSP16, literal(-2)))
          CFI DPH0 load(1, XDATA, add(CFA_XSP16, literal(-1)))
          CFI CFA_SP SP+-4
          CFI CFA_XSP16 add(XSP16, 65)
          CFI Block cfiCond236 Using cfiCommon0
          CFI (cfiCond236) Function zha_project_ProcessZDOMsgs
          CFI (cfiCond236) Conditional ??CrossCallReturnLabel_125, ??CrossCallReturnLabel_63
          CFI (cfiCond236) R6 load(1, XDATA, add(CFA_XSP16, literal(-14)))
          CFI (cfiCond236) VB load(1, XDATA, add(CFA_XSP16, literal(-13)))
          CFI (cfiCond236) V0 load(1, XDATA, add(CFA_XSP16, literal(-12)))
          CFI (cfiCond236) V1 load(1, XDATA, add(CFA_XSP16, literal(-11)))
          CFI (cfiCond236) V2 load(1, XDATA, add(CFA_XSP16, literal(-10)))
          CFI (cfiCond236) V3 load(1, XDATA, add(CFA_XSP16, literal(-9)))
          CFI (cfiCond236) V4 load(1, XDATA, add(CFA_XSP16, literal(-8)))
          CFI (cfiCond236) V5 load(1, XDATA, add(CFA_XSP16, literal(-7)))
          CFI (cfiCond236) R7 load(1, XDATA, add(CFA_XSP16, literal(-6)))
          CFI (cfiCond236) ?RET_LOW load(1, XDATA, add(CFA_XSP16, literal(-5)))
          CFI (cfiCond236) ?RET_HIGH load(1, XDATA, add(CFA_XSP16, literal(-4)))
          CFI (cfiCond236) ?BRET_EXT load(1, XDATA, add(CFA_XSP16, literal(-3)))
          CFI (cfiCond236) DPL0 load(1, XDATA, add(CFA_XSP16, literal(-2)))
          CFI (cfiCond236) DPH0 load(1, XDATA, add(CFA_XSP16, literal(-1)))
          CFI (cfiCond236) CFA_SP SP+-4
          CFI (cfiCond236) CFA_XSP16 add(XSP16, 25)
          CFI Block cfiCond237 Using cfiCommon0
          CFI (cfiCond237) Function zha_project_ProcessZDOMsgs
          CFI (cfiCond237) Conditional ??CrossCallReturnLabel_125, ??CrossCallReturnLabel_61
          CFI (cfiCond237) R6 load(1, XDATA, add(CFA_XSP16, literal(-14)))
          CFI (cfiCond237) VB load(1, XDATA, add(CFA_XSP16, literal(-13)))
          CFI (cfiCond237) V0 load(1, XDATA, add(CFA_XSP16, literal(-12)))
          CFI (cfiCond237) V1 load(1, XDATA, add(CFA_XSP16, literal(-11)))
          CFI (cfiCond237) V2 load(1, XDATA, add(CFA_XSP16, literal(-10)))
          CFI (cfiCond237) V3 load(1, XDATA, add(CFA_XSP16, literal(-9)))
          CFI (cfiCond237) V4 load(1, XDATA, add(CFA_XSP16, literal(-8)))
          CFI (cfiCond237) V5 load(1, XDATA, add(CFA_XSP16, literal(-7)))
          CFI (cfiCond237) R7 load(1, XDATA, add(CFA_XSP16, literal(-6)))
          CFI (cfiCond237) ?RET_LOW load(1, XDATA, add(CFA_XSP16, literal(-5)))
          CFI (cfiCond237) ?RET_HIGH load(1, XDATA, add(CFA_XSP16, literal(-4)))
          CFI (cfiCond237) ?BRET_EXT load(1, XDATA, add(CFA_XSP16, literal(-3)))
          CFI (cfiCond237) DPL0 load(1, XDATA, add(CFA_XSP16, literal(-2)))
          CFI (cfiCond237) DPH0 load(1, XDATA, add(CFA_XSP16, literal(-1)))
          CFI (cfiCond237) CFA_SP SP+-4
          CFI (cfiCond237) CFA_XSP16 add(XSP16, 25)
          CFI Block cfiCond238 Using cfiCommon0
          CFI (cfiCond238) Function zha_project_ProcessInReadRspCmd
          CFI (cfiCond238) Conditional ??CrossCallReturnLabel_126, ??CrossCallReturnLabel_75
          CFI (cfiCond238) R6 load(1, XDATA, add(CFA_XSP16, literal(-20)))
          CFI (cfiCond238) VB load(1, XDATA, add(CFA_XSP16, literal(-19)))
          CFI (cfiCond238) V0 load(1, XDATA, add(CFA_XSP16, literal(-18)))
          CFI (cfiCond238) V1 load(1, XDATA, add(CFA_XSP16, literal(-17)))
          CFI (cfiCond238) V2 load(1, XDATA, add(CFA_XSP16, literal(-16)))
          CFI (cfiCond238) V3 load(1, XDATA, add(CFA_XSP16, literal(-15)))
          CFI (cfiCond238) V4 load(1, XDATA, add(CFA_XSP16, literal(-14)))
          CFI (cfiCond238) V5 load(1, XDATA, add(CFA_XSP16, literal(-13)))
          CFI (cfiCond238) V6 load(1, XDATA, add(CFA_XSP16, literal(-12)))
          CFI (cfiCond238) V7 load(1, XDATA, add(CFA_XSP16, literal(-11)))
          CFI (cfiCond238) V8 load(1, XDATA, add(CFA_XSP16, literal(-10)))
          CFI (cfiCond238) V9 load(1, XDATA, add(CFA_XSP16, literal(-9)))
          CFI (cfiCond238) V10 load(1, XDATA, add(CFA_XSP16, literal(-8)))
          CFI (cfiCond238) V11 load(1, XDATA, add(CFA_XSP16, literal(-7)))
          CFI (cfiCond238) R7 load(1, XDATA, add(CFA_XSP16, literal(-6)))
          CFI (cfiCond238) ?RET_LOW load(1, XDATA, add(CFA_XSP16, literal(-5)))
          CFI (cfiCond238) ?RET_HIGH load(1, XDATA, add(CFA_XSP16, literal(-4)))
          CFI (cfiCond238) ?BRET_EXT load(1, XDATA, add(CFA_XSP16, literal(-3)))
          CFI (cfiCond238) DPL0 load(1, XDATA, add(CFA_XSP16, literal(-2)))
          CFI (cfiCond238) DPH0 load(1, XDATA, add(CFA_XSP16, literal(-1)))
          CFI (cfiCond238) CFA_SP SP+-4
          CFI (cfiCond238) CFA_XSP16 add(XSP16, 63)
          CFI Block cfiCond239 Using cfiCommon0
          CFI (cfiCond239) Function zha_project_ProcessInReportCmd
          CFI (cfiCond239) Conditional ??CrossCallReturnLabel_126, ??CrossCallReturnLabel_76
          CFI (cfiCond239) R6 load(1, XDATA, add(CFA_XSP16, literal(-20)))
          CFI (cfiCond239) VB load(1, XDATA, add(CFA_XSP16, literal(-19)))
          CFI (cfiCond239) V0 load(1, XDATA, add(CFA_XSP16, literal(-18)))
          CFI (cfiCond239) V1 load(1, XDATA, add(CFA_XSP16, literal(-17)))
          CFI (cfiCond239) V2 load(1, XDATA, add(CFA_XSP16, literal(-16)))
          CFI (cfiCond239) V3 load(1, XDATA, add(CFA_XSP16, literal(-15)))
          CFI (cfiCond239) V4 load(1, XDATA, add(CFA_XSP16, literal(-14)))
          CFI (cfiCond239) V5 load(1, XDATA, add(CFA_XSP16, literal(-13)))
          CFI (cfiCond239) V6 load(1, XDATA, add(CFA_XSP16, literal(-12)))
          CFI (cfiCond239) V7 load(1, XDATA, add(CFA_XSP16, literal(-11)))
          CFI (cfiCond239) V8 load(1, XDATA, add(CFA_XSP16, literal(-10)))
          CFI (cfiCond239) V9 load(1, XDATA, add(CFA_XSP16, literal(-9)))
          CFI (cfiCond239) V10 load(1, XDATA, add(CFA_XSP16, literal(-8)))
          CFI (cfiCond239) V11 load(1, XDATA, add(CFA_XSP16, literal(-7)))
          CFI (cfiCond239) R7 load(1, XDATA, add(CFA_XSP16, literal(-6)))
          CFI (cfiCond239) ?RET_LOW load(1, XDATA, add(CFA_XSP16, literal(-5)))
          CFI (cfiCond239) ?RET_HIGH load(1, XDATA, add(CFA_XSP16, literal(-4)))
          CFI (cfiCond239) ?BRET_EXT load(1, XDATA, add(CFA_XSP16, literal(-3)))
          CFI (cfiCond239) DPL0 load(1, XDATA, add(CFA_XSP16, literal(-2)))
          CFI (cfiCond239) DPH0 load(1, XDATA, add(CFA_XSP16, literal(-1)))
          CFI (cfiCond239) CFA_SP SP+-4
          CFI (cfiCond239) CFA_XSP16 add(XSP16, 63)
          CFI Block cfiCond240 Using cfiCommon0
          CFI (cfiCond240) Function zha_project_ProcessInReadRspCmd
          CFI (cfiCond240) Conditional ??CrossCallReturnLabel_126, ??CrossCallReturnLabel_69
          CFI (cfiCond240) R6 load(1, XDATA, add(CFA_XSP16, literal(-20)))
          CFI (cfiCond240) VB load(1, XDATA, add(CFA_XSP16, literal(-19)))
          CFI (cfiCond240) V0 load(1, XDATA, add(CFA_XSP16, literal(-18)))
          CFI (cfiCond240) V1 load(1, XDATA, add(CFA_XSP16, literal(-17)))
          CFI (cfiCond240) V2 load(1, XDATA, add(CFA_XSP16, literal(-16)))
          CFI (cfiCond240) V3 load(1, XDATA, add(CFA_XSP16, literal(-15)))
          CFI (cfiCond240) V4 load(1, XDATA, add(CFA_XSP16, literal(-14)))
          CFI (cfiCond240) V5 load(1, XDATA, add(CFA_XSP16, literal(-13)))
          CFI (cfiCond240) V6 load(1, XDATA, add(CFA_XSP16, literal(-12)))
          CFI (cfiCond240) V7 load(1, XDATA, add(CFA_XSP16, literal(-11)))
          CFI (cfiCond240) V8 load(1, XDATA, add(CFA_XSP16, literal(-10)))
          CFI (cfiCond240) V9 load(1, XDATA, add(CFA_XSP16, literal(-9)))
          CFI (cfiCond240) V10 load(1, XDATA, add(CFA_XSP16, literal(-8)))
          CFI (cfiCond240) V11 load(1, XDATA, add(CFA_XSP16, literal(-7)))
          CFI (cfiCond240) R7 load(1, XDATA, add(CFA_XSP16, literal(-6)))
          CFI (cfiCond240) ?RET_LOW load(1, XDATA, add(CFA_XSP16, literal(-5)))
          CFI (cfiCond240) ?RET_HIGH load(1, XDATA, add(CFA_XSP16, literal(-4)))
          CFI (cfiCond240) ?BRET_EXT load(1, XDATA, add(CFA_XSP16, literal(-3)))
          CFI (cfiCond240) DPL0 load(1, XDATA, add(CFA_XSP16, literal(-2)))
          CFI (cfiCond240) DPH0 load(1, XDATA, add(CFA_XSP16, literal(-1)))
          CFI (cfiCond240) CFA_SP SP+-4
          CFI (cfiCond240) CFA_XSP16 add(XSP16, 63)
          CFI Block cfiCond241 Using cfiCommon0
          CFI (cfiCond241) Function zha_project_ProcessInReadRspCmd
          CFI (cfiCond241) Conditional ??CrossCallReturnLabel_126, ??CrossCallReturnLabel_70
          CFI (cfiCond241) R6 load(1, XDATA, add(CFA_XSP16, literal(-20)))
          CFI (cfiCond241) VB load(1, XDATA, add(CFA_XSP16, literal(-19)))
          CFI (cfiCond241) V0 load(1, XDATA, add(CFA_XSP16, literal(-18)))
          CFI (cfiCond241) V1 load(1, XDATA, add(CFA_XSP16, literal(-17)))
          CFI (cfiCond241) V2 load(1, XDATA, add(CFA_XSP16, literal(-16)))
          CFI (cfiCond241) V3 load(1, XDATA, add(CFA_XSP16, literal(-15)))
          CFI (cfiCond241) V4 load(1, XDATA, add(CFA_XSP16, literal(-14)))
          CFI (cfiCond241) V5 load(1, XDATA, add(CFA_XSP16, literal(-13)))
          CFI (cfiCond241) V6 load(1, XDATA, add(CFA_XSP16, literal(-12)))
          CFI (cfiCond241) V7 load(1, XDATA, add(CFA_XSP16, literal(-11)))
          CFI (cfiCond241) V8 load(1, XDATA, add(CFA_XSP16, literal(-10)))
          CFI (cfiCond241) V9 load(1, XDATA, add(CFA_XSP16, literal(-9)))
          CFI (cfiCond241) V10 load(1, XDATA, add(CFA_XSP16, literal(-8)))
          CFI (cfiCond241) V11 load(1, XDATA, add(CFA_XSP16, literal(-7)))
          CFI (cfiCond241) R7 load(1, XDATA, add(CFA_XSP16, literal(-6)))
          CFI (cfiCond241) ?RET_LOW load(1, XDATA, add(CFA_XSP16, literal(-5)))
          CFI (cfiCond241) ?RET_HIGH load(1, XDATA, add(CFA_XSP16, literal(-4)))
          CFI (cfiCond241) ?BRET_EXT load(1, XDATA, add(CFA_XSP16, literal(-3)))
          CFI (cfiCond241) DPL0 load(1, XDATA, add(CFA_XSP16, literal(-2)))
          CFI (cfiCond241) DPH0 load(1, XDATA, add(CFA_XSP16, literal(-1)))
          CFI (cfiCond241) CFA_SP SP+-4
          CFI (cfiCond241) CFA_XSP16 add(XSP16, 63)
          CFI Block cfiCond242 Using cfiCommon0
          CFI (cfiCond242) Function zha_project_ProcessInReadRspCmd
          CFI (cfiCond242) Conditional ??CrossCallReturnLabel_126, ??CrossCallReturnLabel_71
          CFI (cfiCond242) R6 load(1, XDATA, add(CFA_XSP16, literal(-20)))
          CFI (cfiCond242) VB load(1, XDATA, add(CFA_XSP16, literal(-19)))
          CFI (cfiCond242) V0 load(1, XDATA, add(CFA_XSP16, literal(-18)))
          CFI (cfiCond242) V1 load(1, XDATA, add(CFA_XSP16, literal(-17)))
          CFI (cfiCond242) V2 load(1, XDATA, add(CFA_XSP16, literal(-16)))
          CFI (cfiCond242) V3 load(1, XDATA, add(CFA_XSP16, literal(-15)))
          CFI (cfiCond242) V4 load(1, XDATA, add(CFA_XSP16, literal(-14)))
          CFI (cfiCond242) V5 load(1, XDATA, add(CFA_XSP16, literal(-13)))
          CFI (cfiCond242) V6 load(1, XDATA, add(CFA_XSP16, literal(-12)))
          CFI (cfiCond242) V7 load(1, XDATA, add(CFA_XSP16, literal(-11)))
          CFI (cfiCond242) V8 load(1, XDATA, add(CFA_XSP16, literal(-10)))
          CFI (cfiCond242) V9 load(1, XDATA, add(CFA_XSP16, literal(-9)))
          CFI (cfiCond242) V10 load(1, XDATA, add(CFA_XSP16, literal(-8)))
          CFI (cfiCond242) V11 load(1, XDATA, add(CFA_XSP16, literal(-7)))
          CFI (cfiCond242) R7 load(1, XDATA, add(CFA_XSP16, literal(-6)))
          CFI (cfiCond242) ?RET_LOW load(1, XDATA, add(CFA_XSP16, literal(-5)))
          CFI (cfiCond242) ?RET_HIGH load(1, XDATA, add(CFA_XSP16, literal(-4)))
          CFI (cfiCond242) ?BRET_EXT load(1, XDATA, add(CFA_XSP16, literal(-3)))
          CFI (cfiCond242) DPL0 load(1, XDATA, add(CFA_XSP16, literal(-2)))
          CFI (cfiCond242) DPH0 load(1, XDATA, add(CFA_XSP16, literal(-1)))
          CFI (cfiCond242) CFA_SP SP+-4
          CFI (cfiCond242) CFA_XSP16 add(XSP16, 63)
          CFI Block cfiCond243 Using cfiCommon0
          CFI (cfiCond243) Function zha_project_ProcessInReportCmd
          CFI (cfiCond243) Conditional ??CrossCallReturnLabel_126, ??CrossCallReturnLabel_72
          CFI (cfiCond243) R6 load(1, XDATA, add(CFA_XSP16, literal(-20)))
          CFI (cfiCond243) VB load(1, XDATA, add(CFA_XSP16, literal(-19)))
          CFI (cfiCond243) V0 load(1, XDATA, add(CFA_XSP16, literal(-18)))
          CFI (cfiCond243) V1 load(1, XDATA, add(CFA_XSP16, literal(-17)))
          CFI (cfiCond243) V2 load(1, XDATA, add(CFA_XSP16, literal(-16)))
          CFI (cfiCond243) V3 load(1, XDATA, add(CFA_XSP16, literal(-15)))
          CFI (cfiCond243) V4 load(1, XDATA, add(CFA_XSP16, literal(-14)))
          CFI (cfiCond243) V5 load(1, XDATA, add(CFA_XSP16, literal(-13)))
          CFI (cfiCond243) V6 load(1, XDATA, add(CFA_XSP16, literal(-12)))
          CFI (cfiCond243) V7 load(1, XDATA, add(CFA_XSP16, literal(-11)))
          CFI (cfiCond243) V8 load(1, XDATA, add(CFA_XSP16, literal(-10)))
          CFI (cfiCond243) V9 load(1, XDATA, add(CFA_XSP16, literal(-9)))
          CFI (cfiCond243) V10 load(1, XDATA, add(CFA_XSP16, literal(-8)))
          CFI (cfiCond243) V11 load(1, XDATA, add(CFA_XSP16, literal(-7)))
          CFI (cfiCond243) R7 load(1, XDATA, add(CFA_XSP16, literal(-6)))
          CFI (cfiCond243) ?RET_LOW load(1, XDATA, add(CFA_XSP16, literal(-5)))
          CFI (cfiCond243) ?RET_HIGH load(1, XDATA, add(CFA_XSP16, literal(-4)))
          CFI (cfiCond243) ?BRET_EXT load(1, XDATA, add(CFA_XSP16, literal(-3)))
          CFI (cfiCond243) DPL0 load(1, XDATA, add(CFA_XSP16, literal(-2)))
          CFI (cfiCond243) DPH0 load(1, XDATA, add(CFA_XSP16, literal(-1)))
          CFI (cfiCond243) CFA_SP SP+-4
          CFI (cfiCond243) CFA_XSP16 add(XSP16, 63)
          CFI Block cfiCond244 Using cfiCommon0
          CFI (cfiCond244) Function zha_project_ProcessInReportCmd
          CFI (cfiCond244) Conditional ??CrossCallReturnLabel_126, ??CrossCallReturnLabel_73
          CFI (cfiCond244) R6 load(1, XDATA, add(CFA_XSP16, literal(-20)))
          CFI (cfiCond244) VB load(1, XDATA, add(CFA_XSP16, literal(-19)))
          CFI (cfiCond244) V0 load(1, XDATA, add(CFA_XSP16, literal(-18)))
          CFI (cfiCond244) V1 load(1, XDATA, add(CFA_XSP16, literal(-17)))
          CFI (cfiCond244) V2 load(1, XDATA, add(CFA_XSP16, literal(-16)))
          CFI (cfiCond244) V3 load(1, XDATA, add(CFA_XSP16, literal(-15)))
          CFI (cfiCond244) V4 load(1, XDATA, add(CFA_XSP16, literal(-14)))
          CFI (cfiCond244) V5 load(1, XDATA, add(CFA_XSP16, literal(-13)))
          CFI (cfiCond244) V6 load(1, XDATA, add(CFA_XSP16, literal(-12)))
          CFI (cfiCond244) V7 load(1, XDATA, add(CFA_XSP16, literal(-11)))
          CFI (cfiCond244) V8 load(1, XDATA, add(CFA_XSP16, literal(-10)))
          CFI (cfiCond244) V9 load(1, XDATA, add(CFA_XSP16, literal(-9)))
          CFI (cfiCond244) V10 load(1, XDATA, add(CFA_XSP16, literal(-8)))
          CFI (cfiCond244) V11 load(1, XDATA, add(CFA_XSP16, literal(-7)))
          CFI (cfiCond244) R7 load(1, XDATA, add(CFA_XSP16, literal(-6)))
          CFI (cfiCond244) ?RET_LOW load(1, XDATA, add(CFA_XSP16, literal(-5)))
          CFI (cfiCond244) ?RET_HIGH load(1, XDATA, add(CFA_XSP16, literal(-4)))
          CFI (cfiCond244) ?BRET_EXT load(1, XDATA, add(CFA_XSP16, literal(-3)))
          CFI (cfiCond244) DPL0 load(1, XDATA, add(CFA_XSP16, literal(-2)))
          CFI (cfiCond244) DPH0 load(1, XDATA, add(CFA_XSP16, literal(-1)))
          CFI (cfiCond244) CFA_SP SP+-4
          CFI (cfiCond244) CFA_XSP16 add(XSP16, 63)
          CFI Block cfiCond245 Using cfiCommon0
          CFI (cfiCond245) Function zha_project_ProcessInReportCmd
          CFI (cfiCond245) Conditional ??CrossCallReturnLabel_126, ??CrossCallReturnLabel_74
          CFI (cfiCond245) R6 load(1, XDATA, add(CFA_XSP16, literal(-20)))
          CFI (cfiCond245) VB load(1, XDATA, add(CFA_XSP16, literal(-19)))
          CFI (cfiCond245) V0 load(1, XDATA, add(CFA_XSP16, literal(-18)))
          CFI (cfiCond245) V1 load(1, XDATA, add(CFA_XSP16, literal(-17)))
          CFI (cfiCond245) V2 load(1, XDATA, add(CFA_XSP16, literal(-16)))
          CFI (cfiCond245) V3 load(1, XDATA, add(CFA_XSP16, literal(-15)))
          CFI (cfiCond245) V4 load(1, XDATA, add(CFA_XSP16, literal(-14)))
          CFI (cfiCond245) V5 load(1, XDATA, add(CFA_XSP16, literal(-13)))
          CFI (cfiCond245) V6 load(1, XDATA, add(CFA_XSP16, literal(-12)))
          CFI (cfiCond245) V7 load(1, XDATA, add(CFA_XSP16, literal(-11)))
          CFI (cfiCond245) V8 load(1, XDATA, add(CFA_XSP16, literal(-10)))
          CFI (cfiCond245) V9 load(1, XDATA, add(CFA_XSP16, literal(-9)))
          CFI (cfiCond245) V10 load(1, XDATA, add(CFA_XSP16, literal(-8)))
          CFI (cfiCond245) V11 load(1, XDATA, add(CFA_XSP16, literal(-7)))
          CFI (cfiCond245) R7 load(1, XDATA, add(CFA_XSP16, literal(-6)))
          CFI (cfiCond245) ?RET_LOW load(1, XDATA, add(CFA_XSP16, literal(-5)))
          CFI (cfiCond245) ?RET_HIGH load(1, XDATA, add(CFA_XSP16, literal(-4)))
          CFI (cfiCond245) ?BRET_EXT load(1, XDATA, add(CFA_XSP16, literal(-3)))
          CFI (cfiCond245) DPL0 load(1, XDATA, add(CFA_XSP16, literal(-2)))
          CFI (cfiCond245) DPH0 load(1, XDATA, add(CFA_XSP16, literal(-1)))
          CFI (cfiCond245) CFA_SP SP+-4
          CFI (cfiCond245) CFA_XSP16 add(XSP16, 63)
          CFI Block cfiCond246 Using cfiCommon0
          CFI (cfiCond246) Function zha_project_HandleKeys
          CFI (cfiCond246) Conditional ??CrossCallReturnLabel_126, ??CrossCallReturnLabel_64
          CFI (cfiCond246) R6 load(1, XDATA, add(CFA_XSP16, literal(-10)))
          CFI (cfiCond246) VB load(1, XDATA, add(CFA_XSP16, literal(-9)))
          CFI (cfiCond246) V0 load(1, XDATA, add(CFA_XSP16, literal(-8)))
          CFI (cfiCond246) V1 load(1, XDATA, add(CFA_XSP16, literal(-7)))
          CFI (cfiCond246) R7 load(1, XDATA, add(CFA_XSP16, literal(-6)))
          CFI (cfiCond246) ?RET_LOW load(1, XDATA, add(CFA_XSP16, literal(-5)))
          CFI (cfiCond246) ?RET_HIGH load(1, XDATA, add(CFA_XSP16, literal(-4)))
          CFI (cfiCond246) ?BRET_EXT load(1, XDATA, add(CFA_XSP16, literal(-3)))
          CFI (cfiCond246) DPL0 load(1, XDATA, add(CFA_XSP16, literal(-2)))
          CFI (cfiCond246) DPH0 load(1, XDATA, add(CFA_XSP16, literal(-1)))
          CFI (cfiCond246) CFA_SP SP+-4
          CFI (cfiCond246) CFA_XSP16 add(XSP16, 20)
          CFI Block cfiCond247 Using cfiCommon0
          CFI (cfiCond247) Function zha_project_ProcessZDOMsgs
          CFI (cfiCond247) Conditional ??CrossCallReturnLabel_126, ??CrossCallReturnLabel_65
          CFI (cfiCond247) R6 load(1, XDATA, add(CFA_XSP16, literal(-14)))
          CFI (cfiCond247) VB load(1, XDATA, add(CFA_XSP16, literal(-13)))
          CFI (cfiCond247) V0 load(1, XDATA, add(CFA_XSP16, literal(-12)))
          CFI (cfiCond247) V1 load(1, XDATA, add(CFA_XSP16, literal(-11)))
          CFI (cfiCond247) V2 load(1, XDATA, add(CFA_XSP16, literal(-10)))
          CFI (cfiCond247) V3 load(1, XDATA, add(CFA_XSP16, literal(-9)))
          CFI (cfiCond247) V4 load(1, XDATA, add(CFA_XSP16, literal(-8)))
          CFI (cfiCond247) V5 load(1, XDATA, add(CFA_XSP16, literal(-7)))
          CFI (cfiCond247) R7 load(1, XDATA, add(CFA_XSP16, literal(-6)))
          CFI (cfiCond247) ?RET_LOW load(1, XDATA, add(CFA_XSP16, literal(-5)))
          CFI (cfiCond247) ?RET_HIGH load(1, XDATA, add(CFA_XSP16, literal(-4)))
          CFI (cfiCond247) ?BRET_EXT load(1, XDATA, add(CFA_XSP16, literal(-3)))
          CFI (cfiCond247) DPL0 load(1, XDATA, add(CFA_XSP16, literal(-2)))
          CFI (cfiCond247) DPH0 load(1, XDATA, add(CFA_XSP16, literal(-1)))
          CFI (cfiCond247) CFA_SP SP+-4
          CFI (cfiCond247) CFA_XSP16 add(XSP16, 25)
          CFI Block cfiCond248 Using cfiCommon0
          CFI (cfiCond248) Function zha_project_ProcessZDOMsgs
          CFI (cfiCond248) Conditional ??CrossCallReturnLabel_126, ??CrossCallReturnLabel_66
          CFI (cfiCond248) R6 load(1, XDATA, add(CFA_XSP16, literal(-14)))
          CFI (cfiCond248) VB load(1, XDATA, add(CFA_XSP16, literal(-13)))
          CFI (cfiCond248) V0 load(1, XDATA, add(CFA_XSP16, literal(-12)))
          CFI (cfiCond248) V1 load(1, XDATA, add(CFA_XSP16, literal(-11)))
          CFI (cfiCond248) V2 load(1, XDATA, add(CFA_XSP16, literal(-10)))
          CFI (cfiCond248) V3 load(1, XDATA, add(CFA_XSP16, literal(-9)))
          CFI (cfiCond248) V4 load(1, XDATA, add(CFA_XSP16, literal(-8)))
          CFI (cfiCond248) V5 load(1, XDATA, add(CFA_XSP16, literal(-7)))
          CFI (cfiCond248) R7 load(1, XDATA, add(CFA_XSP16, literal(-6)))
          CFI (cfiCond248) ?RET_LOW load(1, XDATA, add(CFA_XSP16, literal(-5)))
          CFI (cfiCond248) ?RET_HIGH load(1, XDATA, add(CFA_XSP16, literal(-4)))
          CFI (cfiCond248) ?BRET_EXT load(1, XDATA, add(CFA_XSP16, literal(-3)))
          CFI (cfiCond248) DPL0 load(1, XDATA, add(CFA_XSP16, literal(-2)))
          CFI (cfiCond248) DPH0 load(1, XDATA, add(CFA_XSP16, literal(-1)))
          CFI (cfiCond248) CFA_SP SP+-4
          CFI (cfiCond248) CFA_XSP16 add(XSP16, 25)
          CFI Block cfiCond249 Using cfiCommon0
          CFI (cfiCond249) Function zha_project_ProcessZDOMsgs
          CFI (cfiCond249) Conditional ??CrossCallReturnLabel_126, ??CrossCallReturnLabel_67
          CFI (cfiCond249) R6 load(1, XDATA, add(CFA_XSP16, literal(-14)))
          CFI (cfiCond249) VB load(1, XDATA, add(CFA_XSP16, literal(-13)))
          CFI (cfiCond249) V0 load(1, XDATA, add(CFA_XSP16, literal(-12)))
          CFI (cfiCond249) V1 load(1, XDATA, add(CFA_XSP16, literal(-11)))
          CFI (cfiCond249) V2 load(1, XDATA, add(CFA_XSP16, literal(-10)))
          CFI (cfiCond249) V3 load(1, XDATA, add(CFA_XSP16, literal(-9)))
          CFI (cfiCond249) V4 load(1, XDATA, add(CFA_XSP16, literal(-8)))
          CFI (cfiCond249) V5 load(1, XDATA, add(CFA_XSP16, literal(-7)))
          CFI (cfiCond249) R7 load(1, XDATA, add(CFA_XSP16, literal(-6)))
          CFI (cfiCond249) ?RET_LOW load(1, XDATA, add(CFA_XSP16, literal(-5)))
          CFI (cfiCond249) ?RET_HIGH load(1, XDATA, add(CFA_XSP16, literal(-4)))
          CFI (cfiCond249) ?BRET_EXT load(1, XDATA, add(CFA_XSP16, literal(-3)))
          CFI (cfiCond249) DPL0 load(1, XDATA, add(CFA_XSP16, literal(-2)))
          CFI (cfiCond249) DPH0 load(1, XDATA, add(CFA_XSP16, literal(-1)))
          CFI (cfiCond249) CFA_SP SP+-4
          CFI (cfiCond249) CFA_XSP16 add(XSP16, 25)
          CFI Block cfiCond250 Using cfiCommon0
          CFI (cfiCond250) Function zha_project_ProcessZDOMsgs
          CFI (cfiCond250) Conditional ??CrossCallReturnLabel_126, ??CrossCallReturnLabel_68
          CFI (cfiCond250) R6 load(1, XDATA, add(CFA_XSP16, literal(-14)))
          CFI (cfiCond250) VB load(1, XDATA, add(CFA_XSP16, literal(-13)))
          CFI (cfiCond250) V0 load(1, XDATA, add(CFA_XSP16, literal(-12)))
          CFI (cfiCond250) V1 load(1, XDATA, add(CFA_XSP16, literal(-11)))
          CFI (cfiCond250) V2 load(1, XDATA, add(CFA_XSP16, literal(-10)))
          CFI (cfiCond250) V3 load(1, XDATA, add(CFA_XSP16, literal(-9)))
          CFI (cfiCond250) V4 load(1, XDATA, add(CFA_XSP16, literal(-8)))
          CFI (cfiCond250) V5 load(1, XDATA, add(CFA_XSP16, literal(-7)))
          CFI (cfiCond250) R7 load(1, XDATA, add(CFA_XSP16, literal(-6)))
          CFI (cfiCond250) ?RET_LOW load(1, XDATA, add(CFA_XSP16, literal(-5)))
          CFI (cfiCond250) ?RET_HIGH load(1, XDATA, add(CFA_XSP16, literal(-4)))
          CFI (cfiCond250) ?BRET_EXT load(1, XDATA, add(CFA_XSP16, literal(-3)))
          CFI (cfiCond250) DPL0 load(1, XDATA, add(CFA_XSP16, literal(-2)))
          CFI (cfiCond250) DPH0 load(1, XDATA, add(CFA_XSP16, literal(-1)))
          CFI (cfiCond250) CFA_SP SP+-4
          CFI (cfiCond250) CFA_XSP16 add(XSP16, 25)
          CFI Block cfiCond251 Using cfiCommon0
          CFI (cfiCond251) Function zha_project_ProcessInReadRspCmd
          CFI (cfiCond251) Conditional ??CrossCallReturnLabel_127, ??CrossCallReturnLabel_32
          CFI (cfiCond251) R6 load(1, XDATA, add(CFA_XSP16, literal(-20)))
          CFI (cfiCond251) VB load(1, XDATA, add(CFA_XSP16, literal(-19)))
          CFI (cfiCond251) V0 load(1, XDATA, add(CFA_XSP16, literal(-18)))
          CFI (cfiCond251) V1 load(1, XDATA, add(CFA_XSP16, literal(-17)))
          CFI (cfiCond251) V2 load(1, XDATA, add(CFA_XSP16, literal(-16)))
          CFI (cfiCond251) V3 load(1, XDATA, add(CFA_XSP16, literal(-15)))
          CFI (cfiCond251) V4 load(1, XDATA, add(CFA_XSP16, literal(-14)))
          CFI (cfiCond251) V5 load(1, XDATA, add(CFA_XSP16, literal(-13)))
          CFI (cfiCond251) V6 load(1, XDATA, add(CFA_XSP16, literal(-12)))
          CFI (cfiCond251) V7 load(1, XDATA, add(CFA_XSP16, literal(-11)))
          CFI (cfiCond251) V8 load(1, XDATA, add(CFA_XSP16, literal(-10)))
          CFI (cfiCond251) V9 load(1, XDATA, add(CFA_XSP16, literal(-9)))
          CFI (cfiCond251) V10 load(1, XDATA, add(CFA_XSP16, literal(-8)))
          CFI (cfiCond251) V11 load(1, XDATA, add(CFA_XSP16, literal(-7)))
          CFI (cfiCond251) R7 load(1, XDATA, add(CFA_XSP16, literal(-6)))
          CFI (cfiCond251) ?RET_LOW load(1, XDATA, add(CFA_XSP16, literal(-5)))
          CFI (cfiCond251) ?RET_HIGH load(1, XDATA, add(CFA_XSP16, literal(-4)))
          CFI (cfiCond251) ?BRET_EXT load(1, XDATA, add(CFA_XSP16, literal(-3)))
          CFI (cfiCond251) DPL0 load(1, XDATA, add(CFA_XSP16, literal(-2)))
          CFI (cfiCond251) DPH0 load(1, XDATA, add(CFA_XSP16, literal(-1)))
          CFI (cfiCond251) CFA_SP SP+-4
          CFI (cfiCond251) CFA_XSP16 add(XSP16, 63)
          CFI Block cfiCond252 Using cfiCommon0
          CFI (cfiCond252) Function zha_project_ProcessInReportCmd
          CFI (cfiCond252) Conditional ??CrossCallReturnLabel_127, ??CrossCallReturnLabel_33
          CFI (cfiCond252) R6 load(1, XDATA, add(CFA_XSP16, literal(-20)))
          CFI (cfiCond252) VB load(1, XDATA, add(CFA_XSP16, literal(-19)))
          CFI (cfiCond252) V0 load(1, XDATA, add(CFA_XSP16, literal(-18)))
          CFI (cfiCond252) V1 load(1, XDATA, add(CFA_XSP16, literal(-17)))
          CFI (cfiCond252) V2 load(1, XDATA, add(CFA_XSP16, literal(-16)))
          CFI (cfiCond252) V3 load(1, XDATA, add(CFA_XSP16, literal(-15)))
          CFI (cfiCond252) V4 load(1, XDATA, add(CFA_XSP16, literal(-14)))
          CFI (cfiCond252) V5 load(1, XDATA, add(CFA_XSP16, literal(-13)))
          CFI (cfiCond252) V6 load(1, XDATA, add(CFA_XSP16, literal(-12)))
          CFI (cfiCond252) V7 load(1, XDATA, add(CFA_XSP16, literal(-11)))
          CFI (cfiCond252) V8 load(1, XDATA, add(CFA_XSP16, literal(-10)))
          CFI (cfiCond252) V9 load(1, XDATA, add(CFA_XSP16, literal(-9)))
          CFI (cfiCond252) V10 load(1, XDATA, add(CFA_XSP16, literal(-8)))
          CFI (cfiCond252) V11 load(1, XDATA, add(CFA_XSP16, literal(-7)))
          CFI (cfiCond252) R7 load(1, XDATA, add(CFA_XSP16, literal(-6)))
          CFI (cfiCond252) ?RET_LOW load(1, XDATA, add(CFA_XSP16, literal(-5)))
          CFI (cfiCond252) ?RET_HIGH load(1, XDATA, add(CFA_XSP16, literal(-4)))
          CFI (cfiCond252) ?BRET_EXT load(1, XDATA, add(CFA_XSP16, literal(-3)))
          CFI (cfiCond252) DPL0 load(1, XDATA, add(CFA_XSP16, literal(-2)))
          CFI (cfiCond252) DPH0 load(1, XDATA, add(CFA_XSP16, literal(-1)))
          CFI (cfiCond252) CFA_SP SP+-4
          CFI (cfiCond252) CFA_XSP16 add(XSP16, 63)
          CFI Block cfiCond253 Using cfiCommon0
          CFI (cfiCond253) Function zha_project_ProcessInReadRspCmd
          CFI (cfiCond253) Conditional ??CrossCallReturnLabel_128, ??CrossCallReturnLabel_111
          CFI (cfiCond253) R6 load(1, XDATA, add(CFA_XSP16, literal(-20)))
          CFI (cfiCond253) VB load(1, XDATA, add(CFA_XSP16, literal(-19)))
          CFI (cfiCond253) V0 load(1, XDATA, add(CFA_XSP16, literal(-18)))
          CFI (cfiCond253) V1 load(1, XDATA, add(CFA_XSP16, literal(-17)))
          CFI (cfiCond253) V2 load(1, XDATA, add(CFA_XSP16, literal(-16)))
          CFI (cfiCond253) V3 load(1, XDATA, add(CFA_XSP16, literal(-15)))
          CFI (cfiCond253) V4 load(1, XDATA, add(CFA_XSP16, literal(-14)))
          CFI (cfiCond253) V5 load(1, XDATA, add(CFA_XSP16, literal(-13)))
          CFI (cfiCond253) V6 load(1, XDATA, add(CFA_XSP16, literal(-12)))
          CFI (cfiCond253) V7 load(1, XDATA, add(CFA_XSP16, literal(-11)))
          CFI (cfiCond253) V8 load(1, XDATA, add(CFA_XSP16, literal(-10)))
          CFI (cfiCond253) V9 load(1, XDATA, add(CFA_XSP16, literal(-9)))
          CFI (cfiCond253) V10 load(1, XDATA, add(CFA_XSP16, literal(-8)))
          CFI (cfiCond253) V11 load(1, XDATA, add(CFA_XSP16, literal(-7)))
          CFI (cfiCond253) R7 load(1, XDATA, add(CFA_XSP16, literal(-6)))
          CFI (cfiCond253) ?RET_LOW load(1, XDATA, add(CFA_XSP16, literal(-5)))
          CFI (cfiCond253) ?RET_HIGH load(1, XDATA, add(CFA_XSP16, literal(-4)))
          CFI (cfiCond253) ?BRET_EXT load(1, XDATA, add(CFA_XSP16, literal(-3)))
          CFI (cfiCond253) DPL0 load(1, XDATA, add(CFA_XSP16, literal(-2)))
          CFI (cfiCond253) DPH0 load(1, XDATA, add(CFA_XSP16, literal(-1)))
          CFI (cfiCond253) CFA_SP SP+-4
          CFI (cfiCond253) CFA_XSP16 add(XSP16, 63)
          CFI Block cfiCond254 Using cfiCommon0
          CFI (cfiCond254) Function zha_project_ProcessInReportCmd
          CFI (cfiCond254) Conditional ??CrossCallReturnLabel_128, ??CrossCallReturnLabel_112
          CFI (cfiCond254) R6 load(1, XDATA, add(CFA_XSP16, literal(-20)))
          CFI (cfiCond254) VB load(1, XDATA, add(CFA_XSP16, literal(-19)))
          CFI (cfiCond254) V0 load(1, XDATA, add(CFA_XSP16, literal(-18)))
          CFI (cfiCond254) V1 load(1, XDATA, add(CFA_XSP16, literal(-17)))
          CFI (cfiCond254) V2 load(1, XDATA, add(CFA_XSP16, literal(-16)))
          CFI (cfiCond254) V3 load(1, XDATA, add(CFA_XSP16, literal(-15)))
          CFI (cfiCond254) V4 load(1, XDATA, add(CFA_XSP16, literal(-14)))
          CFI (cfiCond254) V5 load(1, XDATA, add(CFA_XSP16, literal(-13)))
          CFI (cfiCond254) V6 load(1, XDATA, add(CFA_XSP16, literal(-12)))
          CFI (cfiCond254) V7 load(1, XDATA, add(CFA_XSP16, literal(-11)))
          CFI (cfiCond254) V8 load(1, XDATA, add(CFA_XSP16, literal(-10)))
          CFI (cfiCond254) V9 load(1, XDATA, add(CFA_XSP16, literal(-9)))
          CFI (cfiCond254) V10 load(1, XDATA, add(CFA_XSP16, literal(-8)))
          CFI (cfiCond254) V11 load(1, XDATA, add(CFA_XSP16, literal(-7)))
          CFI (cfiCond254) R7 load(1, XDATA, add(CFA_XSP16, literal(-6)))
          CFI (cfiCond254) ?RET_LOW load(1, XDATA, add(CFA_XSP16, literal(-5)))
          CFI (cfiCond254) ?RET_HIGH load(1, XDATA, add(CFA_XSP16, literal(-4)))
          CFI (cfiCond254) ?BRET_EXT load(1, XDATA, add(CFA_XSP16, literal(-3)))
          CFI (cfiCond254) DPL0 load(1, XDATA, add(CFA_XSP16, literal(-2)))
          CFI (cfiCond254) DPH0 load(1, XDATA, add(CFA_XSP16, literal(-1)))
          CFI (cfiCond254) CFA_SP SP+-4
          CFI (cfiCond254) CFA_XSP16 add(XSP16, 63)
          CFI Block cfiCond255 Using cfiCommon0
          CFI (cfiCond255) Function zha_project_ProcessInReadRspCmd
          CFI (cfiCond255) Conditional ??CrossCallReturnLabel_128, ??CrossCallReturnLabel_109
          CFI (cfiCond255) R6 load(1, XDATA, add(CFA_XSP16, literal(-20)))
          CFI (cfiCond255) VB load(1, XDATA, add(CFA_XSP16, literal(-19)))
          CFI (cfiCond255) V0 load(1, XDATA, add(CFA_XSP16, literal(-18)))
          CFI (cfiCond255) V1 load(1, XDATA, add(CFA_XSP16, literal(-17)))
          CFI (cfiCond255) V2 load(1, XDATA, add(CFA_XSP16, literal(-16)))
          CFI (cfiCond255) V3 load(1, XDATA, add(CFA_XSP16, literal(-15)))
          CFI (cfiCond255) V4 load(1, XDATA, add(CFA_XSP16, literal(-14)))
          CFI (cfiCond255) V5 load(1, XDATA, add(CFA_XSP16, literal(-13)))
          CFI (cfiCond255) V6 load(1, XDATA, add(CFA_XSP16, literal(-12)))
          CFI (cfiCond255) V7 load(1, XDATA, add(CFA_XSP16, literal(-11)))
          CFI (cfiCond255) V8 load(1, XDATA, add(CFA_XSP16, literal(-10)))
          CFI (cfiCond255) V9 load(1, XDATA, add(CFA_XSP16, literal(-9)))
          CFI (cfiCond255) V10 load(1, XDATA, add(CFA_XSP16, literal(-8)))
          CFI (cfiCond255) V11 load(1, XDATA, add(CFA_XSP16, literal(-7)))
          CFI (cfiCond255) R7 load(1, XDATA, add(CFA_XSP16, literal(-6)))
          CFI (cfiCond255) ?RET_LOW load(1, XDATA, add(CFA_XSP16, literal(-5)))
          CFI (cfiCond255) ?RET_HIGH load(1, XDATA, add(CFA_XSP16, literal(-4)))
          CFI (cfiCond255) ?BRET_EXT load(1, XDATA, add(CFA_XSP16, literal(-3)))
          CFI (cfiCond255) DPL0 load(1, XDATA, add(CFA_XSP16, literal(-2)))
          CFI (cfiCond255) DPH0 load(1, XDATA, add(CFA_XSP16, literal(-1)))
          CFI (cfiCond255) CFA_SP SP+-4
          CFI (cfiCond255) CFA_XSP16 add(XSP16, 63)
          CFI Block cfiCond256 Using cfiCommon0
          CFI (cfiCond256) Function zha_project_ProcessInReportCmd
          CFI (cfiCond256) Conditional ??CrossCallReturnLabel_128, ??CrossCallReturnLabel_110
          CFI (cfiCond256) R6 load(1, XDATA, add(CFA_XSP16, literal(-20)))
          CFI (cfiCond256) VB load(1, XDATA, add(CFA_XSP16, literal(-19)))
          CFI (cfiCond256) V0 load(1, XDATA, add(CFA_XSP16, literal(-18)))
          CFI (cfiCond256) V1 load(1, XDATA, add(CFA_XSP16, literal(-17)))
          CFI (cfiCond256) V2 load(1, XDATA, add(CFA_XSP16, literal(-16)))
          CFI (cfiCond256) V3 load(1, XDATA, add(CFA_XSP16, literal(-15)))
          CFI (cfiCond256) V4 load(1, XDATA, add(CFA_XSP16, literal(-14)))
          CFI (cfiCond256) V5 load(1, XDATA, add(CFA_XSP16, literal(-13)))
          CFI (cfiCond256) V6 load(1, XDATA, add(CFA_XSP16, literal(-12)))
          CFI (cfiCond256) V7 load(1, XDATA, add(CFA_XSP16, literal(-11)))
          CFI (cfiCond256) V8 load(1, XDATA, add(CFA_XSP16, literal(-10)))
          CFI (cfiCond256) V9 load(1, XDATA, add(CFA_XSP16, literal(-9)))
          CFI (cfiCond256) V10 load(1, XDATA, add(CFA_XSP16, literal(-8)))
          CFI (cfiCond256) V11 load(1, XDATA, add(CFA_XSP16, literal(-7)))
          CFI (cfiCond256) R7 load(1, XDATA, add(CFA_XSP16, literal(-6)))
          CFI (cfiCond256) ?RET_LOW load(1, XDATA, add(CFA_XSP16, literal(-5)))
          CFI (cfiCond256) ?RET_HIGH load(1, XDATA, add(CFA_XSP16, literal(-4)))
          CFI (cfiCond256) ?BRET_EXT load(1, XDATA, add(CFA_XSP16, literal(-3)))
          CFI (cfiCond256) DPL0 load(1, XDATA, add(CFA_XSP16, literal(-2)))
          CFI (cfiCond256) DPH0 load(1, XDATA, add(CFA_XSP16, literal(-1)))
          CFI (cfiCond256) CFA_SP SP+-4
          CFI (cfiCond256) CFA_XSP16 add(XSP16, 63)
          CFI Block cfiCond257 Using cfiCommon0
          CFI (cfiCond257) Function zha_project_ProcessInReadRspCmd
          CFI (cfiCond257) Conditional ??CrossCallReturnLabel_129, ??CrossCallReturnLabel_113
          CFI (cfiCond257) R6 load(1, XDATA, add(CFA_XSP16, literal(-20)))
          CFI (cfiCond257) VB load(1, XDATA, add(CFA_XSP16, literal(-19)))
          CFI (cfiCond257) V0 load(1, XDATA, add(CFA_XSP16, literal(-18)))
          CFI (cfiCond257) V1 load(1, XDATA, add(CFA_XSP16, literal(-17)))
          CFI (cfiCond257) V2 load(1, XDATA, add(CFA_XSP16, literal(-16)))
          CFI (cfiCond257) V3 load(1, XDATA, add(CFA_XSP16, literal(-15)))
          CFI (cfiCond257) V4 load(1, XDATA, add(CFA_XSP16, literal(-14)))
          CFI (cfiCond257) V5 load(1, XDATA, add(CFA_XSP16, literal(-13)))
          CFI (cfiCond257) V6 load(1, XDATA, add(CFA_XSP16, literal(-12)))
          CFI (cfiCond257) V7 load(1, XDATA, add(CFA_XSP16, literal(-11)))
          CFI (cfiCond257) V8 load(1, XDATA, add(CFA_XSP16, literal(-10)))
          CFI (cfiCond257) V9 load(1, XDATA, add(CFA_XSP16, literal(-9)))
          CFI (cfiCond257) V10 load(1, XDATA, add(CFA_XSP16, literal(-8)))
          CFI (cfiCond257) V11 load(1, XDATA, add(CFA_XSP16, literal(-7)))
          CFI (cfiCond257) R7 load(1, XDATA, add(CFA_XSP16, literal(-6)))
          CFI (cfiCond257) ?RET_LOW load(1, XDATA, add(CFA_XSP16, literal(-5)))
          CFI (cfiCond257) ?RET_HIGH load(1, XDATA, add(CFA_XSP16, literal(-4)))
          CFI (cfiCond257) ?BRET_EXT load(1, XDATA, add(CFA_XSP16, literal(-3)))
          CFI (cfiCond257) DPL0 load(1, XDATA, add(CFA_XSP16, literal(-2)))
          CFI (cfiCond257) DPH0 load(1, XDATA, add(CFA_XSP16, literal(-1)))
          CFI (cfiCond257) CFA_SP SP+-4
          CFI (cfiCond257) CFA_XSP16 add(XSP16, 63)
          CFI Block cfiCond258 Using cfiCommon0
          CFI (cfiCond258) Function zha_project_ProcessInReadRspCmd
          CFI (cfiCond258) Conditional ??CrossCallReturnLabel_129, ??CrossCallReturnLabel_114
          CFI (cfiCond258) R6 load(1, XDATA, add(CFA_XSP16, literal(-20)))
          CFI (cfiCond258) VB load(1, XDATA, add(CFA_XSP16, literal(-19)))
          CFI (cfiCond258) V0 load(1, XDATA, add(CFA_XSP16, literal(-18)))
          CFI (cfiCond258) V1 load(1, XDATA, add(CFA_XSP16, literal(-17)))
          CFI (cfiCond258) V2 load(1, XDATA, add(CFA_XSP16, literal(-16)))
          CFI (cfiCond258) V3 load(1, XDATA, add(CFA_XSP16, literal(-15)))
          CFI (cfiCond258) V4 load(1, XDATA, add(CFA_XSP16, literal(-14)))
          CFI (cfiCond258) V5 load(1, XDATA, add(CFA_XSP16, literal(-13)))
          CFI (cfiCond258) V6 load(1, XDATA, add(CFA_XSP16, literal(-12)))
          CFI (cfiCond258) V7 load(1, XDATA, add(CFA_XSP16, literal(-11)))
          CFI (cfiCond258) V8 load(1, XDATA, add(CFA_XSP16, literal(-10)))
          CFI (cfiCond258) V9 load(1, XDATA, add(CFA_XSP16, literal(-9)))
          CFI (cfiCond258) V10 load(1, XDATA, add(CFA_XSP16, literal(-8)))
          CFI (cfiCond258) V11 load(1, XDATA, add(CFA_XSP16, literal(-7)))
          CFI (cfiCond258) R7 load(1, XDATA, add(CFA_XSP16, literal(-6)))
          CFI (cfiCond258) ?RET_LOW load(1, XDATA, add(CFA_XSP16, literal(-5)))
          CFI (cfiCond258) ?RET_HIGH load(1, XDATA, add(CFA_XSP16, literal(-4)))
          CFI (cfiCond258) ?BRET_EXT load(1, XDATA, add(CFA_XSP16, literal(-3)))
          CFI (cfiCond258) DPL0 load(1, XDATA, add(CFA_XSP16, literal(-2)))
          CFI (cfiCond258) DPH0 load(1, XDATA, add(CFA_XSP16, literal(-1)))
          CFI (cfiCond258) CFA_SP SP+-4
          CFI (cfiCond258) CFA_XSP16 add(XSP16, 63)
          CFI Block cfiCond259 Using cfiCommon0
          CFI (cfiCond259) Function zha_project_ProcessInReadRspCmd
          CFI (cfiCond259) Conditional ??CrossCallReturnLabel_129, ??CrossCallReturnLabel_115
          CFI (cfiCond259) R6 load(1, XDATA, add(CFA_XSP16, literal(-20)))
          CFI (cfiCond259) VB load(1, XDATA, add(CFA_XSP16, literal(-19)))
          CFI (cfiCond259) V0 load(1, XDATA, add(CFA_XSP16, literal(-18)))
          CFI (cfiCond259) V1 load(1, XDATA, add(CFA_XSP16, literal(-17)))
          CFI (cfiCond259) V2 load(1, XDATA, add(CFA_XSP16, literal(-16)))
          CFI (cfiCond259) V3 load(1, XDATA, add(CFA_XSP16, literal(-15)))
          CFI (cfiCond259) V4 load(1, XDATA, add(CFA_XSP16, literal(-14)))
          CFI (cfiCond259) V5 load(1, XDATA, add(CFA_XSP16, literal(-13)))
          CFI (cfiCond259) V6 load(1, XDATA, add(CFA_XSP16, literal(-12)))
          CFI (cfiCond259) V7 load(1, XDATA, add(CFA_XSP16, literal(-11)))
          CFI (cfiCond259) V8 load(1, XDATA, add(CFA_XSP16, literal(-10)))
          CFI (cfiCond259) V9 load(1, XDATA, add(CFA_XSP16, literal(-9)))
          CFI (cfiCond259) V10 load(1, XDATA, add(CFA_XSP16, literal(-8)))
          CFI (cfiCond259) V11 load(1, XDATA, add(CFA_XSP16, literal(-7)))
          CFI (cfiCond259) R7 load(1, XDATA, add(CFA_XSP16, literal(-6)))
          CFI (cfiCond259) ?RET_LOW load(1, XDATA, add(CFA_XSP16, literal(-5)))
          CFI (cfiCond259) ?RET_HIGH load(1, XDATA, add(CFA_XSP16, literal(-4)))
          CFI (cfiCond259) ?BRET_EXT load(1, XDATA, add(CFA_XSP16, literal(-3)))
          CFI (cfiCond259) DPL0 load(1, XDATA, add(CFA_XSP16, literal(-2)))
          CFI (cfiCond259) DPH0 load(1, XDATA, add(CFA_XSP16, literal(-1)))
          CFI (cfiCond259) CFA_SP SP+-4
          CFI (cfiCond259) CFA_XSP16 add(XSP16, 63)
          CFI Block cfiCond260 Using cfiCommon0
          CFI (cfiCond260) Function zha_project_ProcessInReportCmd
          CFI (cfiCond260) Conditional ??CrossCallReturnLabel_129, ??CrossCallReturnLabel_116
          CFI (cfiCond260) R6 load(1, XDATA, add(CFA_XSP16, literal(-20)))
          CFI (cfiCond260) VB load(1, XDATA, add(CFA_XSP16, literal(-19)))
          CFI (cfiCond260) V0 load(1, XDATA, add(CFA_XSP16, literal(-18)))
          CFI (cfiCond260) V1 load(1, XDATA, add(CFA_XSP16, literal(-17)))
          CFI (cfiCond260) V2 load(1, XDATA, add(CFA_XSP16, literal(-16)))
          CFI (cfiCond260) V3 load(1, XDATA, add(CFA_XSP16, literal(-15)))
          CFI (cfiCond260) V4 load(1, XDATA, add(CFA_XSP16, literal(-14)))
          CFI (cfiCond260) V5 load(1, XDATA, add(CFA_XSP16, literal(-13)))
          CFI (cfiCond260) V6 load(1, XDATA, add(CFA_XSP16, literal(-12)))
          CFI (cfiCond260) V7 load(1, XDATA, add(CFA_XSP16, literal(-11)))
          CFI (cfiCond260) V8 load(1, XDATA, add(CFA_XSP16, literal(-10)))
          CFI (cfiCond260) V9 load(1, XDATA, add(CFA_XSP16, literal(-9)))
          CFI (cfiCond260) V10 load(1, XDATA, add(CFA_XSP16, literal(-8)))
          CFI (cfiCond260) V11 load(1, XDATA, add(CFA_XSP16, literal(-7)))
          CFI (cfiCond260) R7 load(1, XDATA, add(CFA_XSP16, literal(-6)))
          CFI (cfiCond260) ?RET_LOW load(1, XDATA, add(CFA_XSP16, literal(-5)))
          CFI (cfiCond260) ?RET_HIGH load(1, XDATA, add(CFA_XSP16, literal(-4)))
          CFI (cfiCond260) ?BRET_EXT load(1, XDATA, add(CFA_XSP16, literal(-3)))
          CFI (cfiCond260) DPL0 load(1, XDATA, add(CFA_XSP16, literal(-2)))
          CFI (cfiCond260) DPH0 load(1, XDATA, add(CFA_XSP16, literal(-1)))
          CFI (cfiCond260) CFA_SP SP+-4
          CFI (cfiCond260) CFA_XSP16 add(XSP16, 63)
          CFI Block cfiCond261 Using cfiCommon0
          CFI (cfiCond261) Function zha_project_ProcessInReportCmd
          CFI (cfiCond261) Conditional ??CrossCallReturnLabel_129, ??CrossCallReturnLabel_117
          CFI (cfiCond261) R6 load(1, XDATA, add(CFA_XSP16, literal(-20)))
          CFI (cfiCond261) VB load(1, XDATA, add(CFA_XSP16, literal(-19)))
          CFI (cfiCond261) V0 load(1, XDATA, add(CFA_XSP16, literal(-18)))
          CFI (cfiCond261) V1 load(1, XDATA, add(CFA_XSP16, literal(-17)))
          CFI (cfiCond261) V2 load(1, XDATA, add(CFA_XSP16, literal(-16)))
          CFI (cfiCond261) V3 load(1, XDATA, add(CFA_XSP16, literal(-15)))
          CFI (cfiCond261) V4 load(1, XDATA, add(CFA_XSP16, literal(-14)))
          CFI (cfiCond261) V5 load(1, XDATA, add(CFA_XSP16, literal(-13)))
          CFI (cfiCond261) V6 load(1, XDATA, add(CFA_XSP16, literal(-12)))
          CFI (cfiCond261) V7 load(1, XDATA, add(CFA_XSP16, literal(-11)))
          CFI (cfiCond261) V8 load(1, XDATA, add(CFA_XSP16, literal(-10)))
          CFI (cfiCond261) V9 load(1, XDATA, add(CFA_XSP16, literal(-9)))
          CFI (cfiCond261) V10 load(1, XDATA, add(CFA_XSP16, literal(-8)))
          CFI (cfiCond261) V11 load(1, XDATA, add(CFA_XSP16, literal(-7)))
          CFI (cfiCond261) R7 load(1, XDATA, add(CFA_XSP16, literal(-6)))
          CFI (cfiCond261) ?RET_LOW load(1, XDATA, add(CFA_XSP16, literal(-5)))
          CFI (cfiCond261) ?RET_HIGH load(1, XDATA, add(CFA_XSP16, literal(-4)))
          CFI (cfiCond261) ?BRET_EXT load(1, XDATA, add(CFA_XSP16, literal(-3)))
          CFI (cfiCond261) DPL0 load(1, XDATA, add(CFA_XSP16, literal(-2)))
          CFI (cfiCond261) DPH0 load(1, XDATA, add(CFA_XSP16, literal(-1)))
          CFI (cfiCond261) CFA_SP SP+-4
          CFI (cfiCond261) CFA_XSP16 add(XSP16, 63)
          CFI Block cfiCond262 Using cfiCommon0
          CFI (cfiCond262) Function zha_project_ProcessInReportCmd
          CFI (cfiCond262) Conditional ??CrossCallReturnLabel_129, ??CrossCallReturnLabel_118
          CFI (cfiCond262) R6 load(1, XDATA, add(CFA_XSP16, literal(-20)))
          CFI (cfiCond262) VB load(1, XDATA, add(CFA_XSP16, literal(-19)))
          CFI (cfiCond262) V0 load(1, XDATA, add(CFA_XSP16, literal(-18)))
          CFI (cfiCond262) V1 load(1, XDATA, add(CFA_XSP16, literal(-17)))
          CFI (cfiCond262) V2 load(1, XDATA, add(CFA_XSP16, literal(-16)))
          CFI (cfiCond262) V3 load(1, XDATA, add(CFA_XSP16, literal(-15)))
          CFI (cfiCond262) V4 load(1, XDATA, add(CFA_XSP16, literal(-14)))
          CFI (cfiCond262) V5 load(1, XDATA, add(CFA_XSP16, literal(-13)))
          CFI (cfiCond262) V6 load(1, XDATA, add(CFA_XSP16, literal(-12)))
          CFI (cfiCond262) V7 load(1, XDATA, add(CFA_XSP16, literal(-11)))
          CFI (cfiCond262) V8 load(1, XDATA, add(CFA_XSP16, literal(-10)))
          CFI (cfiCond262) V9 load(1, XDATA, add(CFA_XSP16, literal(-9)))
          CFI (cfiCond262) V10 load(1, XDATA, add(CFA_XSP16, literal(-8)))
          CFI (cfiCond262) V11 load(1, XDATA, add(CFA_XSP16, literal(-7)))
          CFI (cfiCond262) R7 load(1, XDATA, add(CFA_XSP16, literal(-6)))
          CFI (cfiCond262) ?RET_LOW load(1, XDATA, add(CFA_XSP16, literal(-5)))
          CFI (cfiCond262) ?RET_HIGH load(1, XDATA, add(CFA_XSP16, literal(-4)))
          CFI (cfiCond262) ?BRET_EXT load(1, XDATA, add(CFA_XSP16, literal(-3)))
          CFI (cfiCond262) DPL0 load(1, XDATA, add(CFA_XSP16, literal(-2)))
          CFI (cfiCond262) DPH0 load(1, XDATA, add(CFA_XSP16, literal(-1)))
          CFI (cfiCond262) CFA_SP SP+-4
          CFI (cfiCond262) CFA_XSP16 add(XSP16, 63)
          CFI Block cfiCond263 Using cfiCommon0
          CFI (cfiCond263) Function zha_project_ProcessInReadRspCmd
          CFI (cfiCond263) Conditional ??CrossCallReturnLabel_129, ??CrossCallReturnLabel_119
          CFI (cfiCond263) R6 load(1, XDATA, add(CFA_XSP16, literal(-20)))
          CFI (cfiCond263) VB load(1, XDATA, add(CFA_XSP16, literal(-19)))
          CFI (cfiCond263) V0 load(1, XDATA, add(CFA_XSP16, literal(-18)))
          CFI (cfiCond263) V1 load(1, XDATA, add(CFA_XSP16, literal(-17)))
          CFI (cfiCond263) V2 load(1, XDATA, add(CFA_XSP16, literal(-16)))
          CFI (cfiCond263) V3 load(1, XDATA, add(CFA_XSP16, literal(-15)))
          CFI (cfiCond263) V4 load(1, XDATA, add(CFA_XSP16, literal(-14)))
          CFI (cfiCond263) V5 load(1, XDATA, add(CFA_XSP16, literal(-13)))
          CFI (cfiCond263) V6 load(1, XDATA, add(CFA_XSP16, literal(-12)))
          CFI (cfiCond263) V7 load(1, XDATA, add(CFA_XSP16, literal(-11)))
          CFI (cfiCond263) V8 load(1, XDATA, add(CFA_XSP16, literal(-10)))
          CFI (cfiCond263) V9 load(1, XDATA, add(CFA_XSP16, literal(-9)))
          CFI (cfiCond263) V10 load(1, XDATA, add(CFA_XSP16, literal(-8)))
          CFI (cfiCond263) V11 load(1, XDATA, add(CFA_XSP16, literal(-7)))
          CFI (cfiCond263) R7 load(1, XDATA, add(CFA_XSP16, literal(-6)))
          CFI (cfiCond263) ?RET_LOW load(1, XDATA, add(CFA_XSP16, literal(-5)))
          CFI (cfiCond263) ?RET_HIGH load(1, XDATA, add(CFA_XSP16, literal(-4)))
          CFI (cfiCond263) ?BRET_EXT load(1, XDATA, add(CFA_XSP16, literal(-3)))
          CFI (cfiCond263) DPL0 load(1, XDATA, add(CFA_XSP16, literal(-2)))
          CFI (cfiCond263) DPH0 load(1, XDATA, add(CFA_XSP16, literal(-1)))
          CFI (cfiCond263) CFA_SP SP+-4
          CFI (cfiCond263) CFA_XSP16 add(XSP16, 63)
          CFI Block cfiCond264 Using cfiCommon0
          CFI (cfiCond264) Function zha_project_ProcessInReportCmd
          CFI (cfiCond264) Conditional ??CrossCallReturnLabel_129, ??CrossCallReturnLabel_120
          CFI (cfiCond264) R6 load(1, XDATA, add(CFA_XSP16, literal(-20)))
          CFI (cfiCond264) VB load(1, XDATA, add(CFA_XSP16, literal(-19)))
          CFI (cfiCond264) V0 load(1, XDATA, add(CFA_XSP16, literal(-18)))
          CFI (cfiCond264) V1 load(1, XDATA, add(CFA_XSP16, literal(-17)))
          CFI (cfiCond264) V2 load(1, XDATA, add(CFA_XSP16, literal(-16)))
          CFI (cfiCond264) V3 load(1, XDATA, add(CFA_XSP16, literal(-15)))
          CFI (cfiCond264) V4 load(1, XDATA, add(CFA_XSP16, literal(-14)))
          CFI (cfiCond264) V5 load(1, XDATA, add(CFA_XSP16, literal(-13)))
          CFI (cfiCond264) V6 load(1, XDATA, add(CFA_XSP16, literal(-12)))
          CFI (cfiCond264) V7 load(1, XDATA, add(CFA_XSP16, literal(-11)))
          CFI (cfiCond264) V8 load(1, XDATA, add(CFA_XSP16, literal(-10)))
          CFI (cfiCond264) V9 load(1, XDATA, add(CFA_XSP16, literal(-9)))
          CFI (cfiCond264) V10 load(1, XDATA, add(CFA_XSP16, literal(-8)))
          CFI (cfiCond264) V11 load(1, XDATA, add(CFA_XSP16, literal(-7)))
          CFI (cfiCond264) R7 load(1, XDATA, add(CFA_XSP16, literal(-6)))
          CFI (cfiCond264) ?RET_LOW load(1, XDATA, add(CFA_XSP16, literal(-5)))
          CFI (cfiCond264) ?RET_HIGH load(1, XDATA, add(CFA_XSP16, literal(-4)))
          CFI (cfiCond264) ?BRET_EXT load(1, XDATA, add(CFA_XSP16, literal(-3)))
          CFI (cfiCond264) DPL0 load(1, XDATA, add(CFA_XSP16, literal(-2)))
          CFI (cfiCond264) DPH0 load(1, XDATA, add(CFA_XSP16, literal(-1)))
          CFI (cfiCond264) CFA_SP SP+-4
          CFI (cfiCond264) CFA_XSP16 add(XSP16, 63)
          CFI Block cfiCond265 Using cfiCommon0
          CFI (cfiCond265) Function zha_project_ProcessInReadRspCmd
          CFI (cfiCond265) Conditional ??CrossCallReturnLabel_129, ??CrossCallReturnLabel_121
          CFI (cfiCond265) R6 load(1, XDATA, add(CFA_XSP16, literal(-20)))
          CFI (cfiCond265) VB load(1, XDATA, add(CFA_XSP16, literal(-19)))
          CFI (cfiCond265) V0 load(1, XDATA, add(CFA_XSP16, literal(-18)))
          CFI (cfiCond265) V1 load(1, XDATA, add(CFA_XSP16, literal(-17)))
          CFI (cfiCond265) V2 load(1, XDATA, add(CFA_XSP16, literal(-16)))
          CFI (cfiCond265) V3 load(1, XDATA, add(CFA_XSP16, literal(-15)))
          CFI (cfiCond265) V4 load(1, XDATA, add(CFA_XSP16, literal(-14)))
          CFI (cfiCond265) V5 load(1, XDATA, add(CFA_XSP16, literal(-13)))
          CFI (cfiCond265) V6 load(1, XDATA, add(CFA_XSP16, literal(-12)))
          CFI (cfiCond265) V7 load(1, XDATA, add(CFA_XSP16, literal(-11)))
          CFI (cfiCond265) V8 load(1, XDATA, add(CFA_XSP16, literal(-10)))
          CFI (cfiCond265) V9 load(1, XDATA, add(CFA_XSP16, literal(-9)))
          CFI (cfiCond265) V10 load(1, XDATA, add(CFA_XSP16, literal(-8)))
          CFI (cfiCond265) V11 load(1, XDATA, add(CFA_XSP16, literal(-7)))
          CFI (cfiCond265) R7 load(1, XDATA, add(CFA_XSP16, literal(-6)))
          CFI (cfiCond265) ?RET_LOW load(1, XDATA, add(CFA_XSP16, literal(-5)))
          CFI (cfiCond265) ?RET_HIGH load(1, XDATA, add(CFA_XSP16, literal(-4)))
          CFI (cfiCond265) ?BRET_EXT load(1, XDATA, add(CFA_XSP16, literal(-3)))
          CFI (cfiCond265) DPL0 load(1, XDATA, add(CFA_XSP16, literal(-2)))
          CFI (cfiCond265) DPH0 load(1, XDATA, add(CFA_XSP16, literal(-1)))
          CFI (cfiCond265) CFA_SP SP+-4
          CFI (cfiCond265) CFA_XSP16 add(XSP16, 63)
          CFI Block cfiCond266 Using cfiCommon0
          CFI (cfiCond266) Function zha_project_ProcessInReadRspCmd
          CFI (cfiCond266) Conditional ??CrossCallReturnLabel_129, ??CrossCallReturnLabel_122
          CFI (cfiCond266) R6 load(1, XDATA, add(CFA_XSP16, literal(-20)))
          CFI (cfiCond266) VB load(1, XDATA, add(CFA_XSP16, literal(-19)))
          CFI (cfiCond266) V0 load(1, XDATA, add(CFA_XSP16, literal(-18)))
          CFI (cfiCond266) V1 load(1, XDATA, add(CFA_XSP16, literal(-17)))
          CFI (cfiCond266) V2 load(1, XDATA, add(CFA_XSP16, literal(-16)))
          CFI (cfiCond266) V3 load(1, XDATA, add(CFA_XSP16, literal(-15)))
          CFI (cfiCond266) V4 load(1, XDATA, add(CFA_XSP16, literal(-14)))
          CFI (cfiCond266) V5 load(1, XDATA, add(CFA_XSP16, literal(-13)))
          CFI (cfiCond266) V6 load(1, XDATA, add(CFA_XSP16, literal(-12)))
          CFI (cfiCond266) V7 load(1, XDATA, add(CFA_XSP16, literal(-11)))
          CFI (cfiCond266) V8 load(1, XDATA, add(CFA_XSP16, literal(-10)))
          CFI (cfiCond266) V9 load(1, XDATA, add(CFA_XSP16, literal(-9)))
          CFI (cfiCond266) V10 load(1, XDATA, add(CFA_XSP16, literal(-8)))
          CFI (cfiCond266) V11 load(1, XDATA, add(CFA_XSP16, literal(-7)))
          CFI (cfiCond266) R7 load(1, XDATA, add(CFA_XSP16, literal(-6)))
          CFI (cfiCond266) ?RET_LOW load(1, XDATA, add(CFA_XSP16, literal(-5)))
          CFI (cfiCond266) ?RET_HIGH load(1, XDATA, add(CFA_XSP16, literal(-4)))
          CFI (cfiCond266) ?BRET_EXT load(1, XDATA, add(CFA_XSP16, literal(-3)))
          CFI (cfiCond266) DPL0 load(1, XDATA, add(CFA_XSP16, literal(-2)))
          CFI (cfiCond266) DPH0 load(1, XDATA, add(CFA_XSP16, literal(-1)))
          CFI (cfiCond266) CFA_SP SP+-4
          CFI (cfiCond266) CFA_XSP16 add(XSP16, 63)
          CFI Block cfiCond267 Using cfiCommon0
          CFI (cfiCond267) Function zha_project_ProcessInReportCmd
          CFI (cfiCond267) Conditional ??CrossCallReturnLabel_129, ??CrossCallReturnLabel_123
          CFI (cfiCond267) R6 load(1, XDATA, add(CFA_XSP16, literal(-20)))
          CFI (cfiCond267) VB load(1, XDATA, add(CFA_XSP16, literal(-19)))
          CFI (cfiCond267) V0 load(1, XDATA, add(CFA_XSP16, literal(-18)))
          CFI (cfiCond267) V1 load(1, XDATA, add(CFA_XSP16, literal(-17)))
          CFI (cfiCond267) V2 load(1, XDATA, add(CFA_XSP16, literal(-16)))
          CFI (cfiCond267) V3 load(1, XDATA, add(CFA_XSP16, literal(-15)))
          CFI (cfiCond267) V4 load(1, XDATA, add(CFA_XSP16, literal(-14)))
          CFI (cfiCond267) V5 load(1, XDATA, add(CFA_XSP16, literal(-13)))
          CFI (cfiCond267) V6 load(1, XDATA, add(CFA_XSP16, literal(-12)))
          CFI (cfiCond267) V7 load(1, XDATA, add(CFA_XSP16, literal(-11)))
          CFI (cfiCond267) V8 load(1, XDATA, add(CFA_XSP16, literal(-10)))
          CFI (cfiCond267) V9 load(1, XDATA, add(CFA_XSP16, literal(-9)))
          CFI (cfiCond267) V10 load(1, XDATA, add(CFA_XSP16, literal(-8)))
          CFI (cfiCond267) V11 load(1, XDATA, add(CFA_XSP16, literal(-7)))
          CFI (cfiCond267) R7 load(1, XDATA, add(CFA_XSP16, literal(-6)))
          CFI (cfiCond267) ?RET_LOW load(1, XDATA, add(CFA_XSP16, literal(-5)))
          CFI (cfiCond267) ?RET_HIGH load(1, XDATA, add(CFA_XSP16, literal(-4)))
          CFI (cfiCond267) ?BRET_EXT load(1, XDATA, add(CFA_XSP16, literal(-3)))
          CFI (cfiCond267) DPL0 load(1, XDATA, add(CFA_XSP16, literal(-2)))
          CFI (cfiCond267) DPH0 load(1, XDATA, add(CFA_XSP16, literal(-1)))
          CFI (cfiCond267) CFA_SP SP+-4
          CFI (cfiCond267) CFA_XSP16 add(XSP16, 63)
          CFI Block cfiCond268 Using cfiCommon0
          CFI (cfiCond268) Function zha_project_ProcessInReportCmd
          CFI (cfiCond268) Conditional ??CrossCallReturnLabel_129, ??CrossCallReturnLabel_124
          CFI (cfiCond268) R6 load(1, XDATA, add(CFA_XSP16, literal(-20)))
          CFI (cfiCond268) VB load(1, XDATA, add(CFA_XSP16, literal(-19)))
          CFI (cfiCond268) V0 load(1, XDATA, add(CFA_XSP16, literal(-18)))
          CFI (cfiCond268) V1 load(1, XDATA, add(CFA_XSP16, literal(-17)))
          CFI (cfiCond268) V2 load(1, XDATA, add(CFA_XSP16, literal(-16)))
          CFI (cfiCond268) V3 load(1, XDATA, add(CFA_XSP16, literal(-15)))
          CFI (cfiCond268) V4 load(1, XDATA, add(CFA_XSP16, literal(-14)))
          CFI (cfiCond268) V5 load(1, XDATA, add(CFA_XSP16, literal(-13)))
          CFI (cfiCond268) V6 load(1, XDATA, add(CFA_XSP16, literal(-12)))
          CFI (cfiCond268) V7 load(1, XDATA, add(CFA_XSP16, literal(-11)))
          CFI (cfiCond268) V8 load(1, XDATA, add(CFA_XSP16, literal(-10)))
          CFI (cfiCond268) V9 load(1, XDATA, add(CFA_XSP16, literal(-9)))
          CFI (cfiCond268) V10 load(1, XDATA, add(CFA_XSP16, literal(-8)))
          CFI (cfiCond268) V11 load(1, XDATA, add(CFA_XSP16, literal(-7)))
          CFI (cfiCond268) R7 load(1, XDATA, add(CFA_XSP16, literal(-6)))
          CFI (cfiCond268) ?RET_LOW load(1, XDATA, add(CFA_XSP16, literal(-5)))
          CFI (cfiCond268) ?RET_HIGH load(1, XDATA, add(CFA_XSP16, literal(-4)))
          CFI (cfiCond268) ?BRET_EXT load(1, XDATA, add(CFA_XSP16, literal(-3)))
          CFI (cfiCond268) DPL0 load(1, XDATA, add(CFA_XSP16, literal(-2)))
          CFI (cfiCond268) DPH0 load(1, XDATA, add(CFA_XSP16, literal(-1)))
          CFI (cfiCond268) CFA_SP SP+-4
          CFI (cfiCond268) CFA_XSP16 add(XSP16, 63)
          CFI Block cfiPicker269 Using cfiCommon1
          CFI (cfiPicker269) NoFunction
          CFI (cfiPicker269) Picker
        MOVX    A,@DPTR
        MOV     R2,A
        INC     DPTR
        MOVX    A,@DPTR
        MOV     R3,A
        RET
          CFI EndBlock cfiCond235
          CFI EndBlock cfiCond236
          CFI EndBlock cfiCond237
          CFI EndBlock cfiCond238
          CFI EndBlock cfiCond239
          CFI EndBlock cfiCond240
          CFI EndBlock cfiCond241
          CFI EndBlock cfiCond242
          CFI EndBlock cfiCond243
          CFI EndBlock cfiCond244
          CFI EndBlock cfiCond245
          CFI EndBlock cfiCond246
          CFI EndBlock cfiCond247
          CFI EndBlock cfiCond248
          CFI EndBlock cfiCond249
          CFI EndBlock cfiCond250
          CFI EndBlock cfiCond251
          CFI EndBlock cfiCond252
          CFI EndBlock cfiCond253
          CFI EndBlock cfiCond254
          CFI EndBlock cfiCond255
          CFI EndBlock cfiCond256
          CFI EndBlock cfiCond257
          CFI EndBlock cfiCond258
          CFI EndBlock cfiCond259
          CFI EndBlock cfiCond260
          CFI EndBlock cfiCond261
          CFI EndBlock cfiCond262
          CFI EndBlock cfiCond263
          CFI EndBlock cfiCond264
          CFI EndBlock cfiCond265
          CFI EndBlock cfiCond266
          CFI EndBlock cfiCond267
          CFI EndBlock cfiCond268
          CFI EndBlock cfiPicker269

        RSEG BANKED_CODE:CODE:NOROOT(0)
?Subroutine10:
          CFI Block cfiCond270 Using cfiCommon0
          CFI Function zha_project_ProcessInReadRspCmd
          CFI Conditional ??CrossCallReturnLabel_10
          CFI R6 load(1, XDATA, add(CFA_XSP16, literal(-20)))
          CFI VB load(1, XDATA, add(CFA_XSP16, literal(-19)))
          CFI V0 load(1, XDATA, add(CFA_XSP16, literal(-18)))
          CFI V1 load(1, XDATA, add(CFA_XSP16, literal(-17)))
          CFI V2 load(1, XDATA, add(CFA_XSP16, literal(-16)))
          CFI V3 load(1, XDATA, add(CFA_XSP16, literal(-15)))
          CFI V4 load(1, XDATA, add(CFA_XSP16, literal(-14)))
          CFI V5 load(1, XDATA, add(CFA_XSP16, literal(-13)))
          CFI V6 load(1, XDATA, add(CFA_XSP16, literal(-12)))
          CFI V7 load(1, XDATA, add(CFA_XSP16, literal(-11)))
          CFI V8 load(1, XDATA, add(CFA_XSP16, literal(-10)))
          CFI V9 load(1, XDATA, add(CFA_XSP16, literal(-9)))
          CFI V10 load(1, XDATA, add(CFA_XSP16, literal(-8)))
          CFI V11 load(1, XDATA, add(CFA_XSP16, literal(-7)))
          CFI R7 load(1, XDATA, add(CFA_XSP16, literal(-6)))
          CFI ?RET_LOW load(1, XDATA, add(CFA_XSP16, literal(-5)))
          CFI ?RET_HIGH load(1, XDATA, add(CFA_XSP16, literal(-4)))
          CFI ?BRET_EXT load(1, XDATA, add(CFA_XSP16, literal(-3)))
          CFI DPL0 load(1, XDATA, add(CFA_XSP16, literal(-2)))
          CFI DPH0 load(1, XDATA, add(CFA_XSP16, literal(-1)))
          CFI CFA_SP SP+-2
          CFI CFA_XSP16 add(XSP16, 63)
          CFI Block cfiCond271 Using cfiCommon0
          CFI (cfiCond271) Function zha_project_ProcessInReadRspCmd
          CFI (cfiCond271) Conditional ??CrossCallReturnLabel_11
          CFI (cfiCond271) R6 load(1, XDATA, add(CFA_XSP16, literal(-20)))
          CFI (cfiCond271) VB load(1, XDATA, add(CFA_XSP16, literal(-19)))
          CFI (cfiCond271) V0 load(1, XDATA, add(CFA_XSP16, literal(-18)))
          CFI (cfiCond271) V1 load(1, XDATA, add(CFA_XSP16, literal(-17)))
          CFI (cfiCond271) V2 load(1, XDATA, add(CFA_XSP16, literal(-16)))
          CFI (cfiCond271) V3 load(1, XDATA, add(CFA_XSP16, literal(-15)))
          CFI (cfiCond271) V4 load(1, XDATA, add(CFA_XSP16, literal(-14)))
          CFI (cfiCond271) V5 load(1, XDATA, add(CFA_XSP16, literal(-13)))
          CFI (cfiCond271) V6 load(1, XDATA, add(CFA_XSP16, literal(-12)))
          CFI (cfiCond271) V7 load(1, XDATA, add(CFA_XSP16, literal(-11)))
          CFI (cfiCond271) V8 load(1, XDATA, add(CFA_XSP16, literal(-10)))
          CFI (cfiCond271) V9 load(1, XDATA, add(CFA_XSP16, literal(-9)))
          CFI (cfiCond271) V10 load(1, XDATA, add(CFA_XSP16, literal(-8)))
          CFI (cfiCond271) V11 load(1, XDATA, add(CFA_XSP16, literal(-7)))
          CFI (cfiCond271) R7 load(1, XDATA, add(CFA_XSP16, literal(-6)))
          CFI (cfiCond271) ?RET_LOW load(1, XDATA, add(CFA_XSP16, literal(-5)))
          CFI (cfiCond271) ?RET_HIGH load(1, XDATA, add(CFA_XSP16, literal(-4)))
          CFI (cfiCond271) ?BRET_EXT load(1, XDATA, add(CFA_XSP16, literal(-3)))
          CFI (cfiCond271) DPL0 load(1, XDATA, add(CFA_XSP16, literal(-2)))
          CFI (cfiCond271) DPH0 load(1, XDATA, add(CFA_XSP16, literal(-1)))
          CFI (cfiCond271) CFA_SP SP+-2
          CFI (cfiCond271) CFA_XSP16 add(XSP16, 63)
          CFI Block cfiCond272 Using cfiCommon0
          CFI (cfiCond272) Function zha_project_ProcessInReadRspCmd
          CFI (cfiCond272) Conditional ??CrossCallReturnLabel_12
          CFI (cfiCond272) R6 load(1, XDATA, add(CFA_XSP16, literal(-20)))
          CFI (cfiCond272) VB load(1, XDATA, add(CFA_XSP16, literal(-19)))
          CFI (cfiCond272) V0 load(1, XDATA, add(CFA_XSP16, literal(-18)))
          CFI (cfiCond272) V1 load(1, XDATA, add(CFA_XSP16, literal(-17)))
          CFI (cfiCond272) V2 load(1, XDATA, add(CFA_XSP16, literal(-16)))
          CFI (cfiCond272) V3 load(1, XDATA, add(CFA_XSP16, literal(-15)))
          CFI (cfiCond272) V4 load(1, XDATA, add(CFA_XSP16, literal(-14)))
          CFI (cfiCond272) V5 load(1, XDATA, add(CFA_XSP16, literal(-13)))
          CFI (cfiCond272) V6 load(1, XDATA, add(CFA_XSP16, literal(-12)))
          CFI (cfiCond272) V7 load(1, XDATA, add(CFA_XSP16, literal(-11)))
          CFI (cfiCond272) V8 load(1, XDATA, add(CFA_XSP16, literal(-10)))
          CFI (cfiCond272) V9 load(1, XDATA, add(CFA_XSP16, literal(-9)))
          CFI (cfiCond272) V10 load(1, XDATA, add(CFA_XSP16, literal(-8)))
          CFI (cfiCond272) V11 load(1, XDATA, add(CFA_XSP16, literal(-7)))
          CFI (cfiCond272) R7 load(1, XDATA, add(CFA_XSP16, literal(-6)))
          CFI (cfiCond272) ?RET_LOW load(1, XDATA, add(CFA_XSP16, literal(-5)))
          CFI (cfiCond272) ?RET_HIGH load(1, XDATA, add(CFA_XSP16, literal(-4)))
          CFI (cfiCond272) ?BRET_EXT load(1, XDATA, add(CFA_XSP16, literal(-3)))
          CFI (cfiCond272) DPL0 load(1, XDATA, add(CFA_XSP16, literal(-2)))
          CFI (cfiCond272) DPH0 load(1, XDATA, add(CFA_XSP16, literal(-1)))
          CFI (cfiCond272) CFA_SP SP+-2
          CFI (cfiCond272) CFA_XSP16 add(XSP16, 63)
          CFI Block cfiCond273 Using cfiCommon0
          CFI (cfiCond273) Function zha_project_ProcessInReadRspCmd
          CFI (cfiCond273) Conditional ??CrossCallReturnLabel_13
          CFI (cfiCond273) R6 load(1, XDATA, add(CFA_XSP16, literal(-20)))
          CFI (cfiCond273) VB load(1, XDATA, add(CFA_XSP16, literal(-19)))
          CFI (cfiCond273) V0 load(1, XDATA, add(CFA_XSP16, literal(-18)))
          CFI (cfiCond273) V1 load(1, XDATA, add(CFA_XSP16, literal(-17)))
          CFI (cfiCond273) V2 load(1, XDATA, add(CFA_XSP16, literal(-16)))
          CFI (cfiCond273) V3 load(1, XDATA, add(CFA_XSP16, literal(-15)))
          CFI (cfiCond273) V4 load(1, XDATA, add(CFA_XSP16, literal(-14)))
          CFI (cfiCond273) V5 load(1, XDATA, add(CFA_XSP16, literal(-13)))
          CFI (cfiCond273) V6 load(1, XDATA, add(CFA_XSP16, literal(-12)))
          CFI (cfiCond273) V7 load(1, XDATA, add(CFA_XSP16, literal(-11)))
          CFI (cfiCond273) V8 load(1, XDATA, add(CFA_XSP16, literal(-10)))
          CFI (cfiCond273) V9 load(1, XDATA, add(CFA_XSP16, literal(-9)))
          CFI (cfiCond273) V10 load(1, XDATA, add(CFA_XSP16, literal(-8)))
          CFI (cfiCond273) V11 load(1, XDATA, add(CFA_XSP16, literal(-7)))
          CFI (cfiCond273) R7 load(1, XDATA, add(CFA_XSP16, literal(-6)))
          CFI (cfiCond273) ?RET_LOW load(1, XDATA, add(CFA_XSP16, literal(-5)))
          CFI (cfiCond273) ?RET_HIGH load(1, XDATA, add(CFA_XSP16, literal(-4)))
          CFI (cfiCond273) ?BRET_EXT load(1, XDATA, add(CFA_XSP16, literal(-3)))
          CFI (cfiCond273) DPL0 load(1, XDATA, add(CFA_XSP16, literal(-2)))
          CFI (cfiCond273) DPH0 load(1, XDATA, add(CFA_XSP16, literal(-1)))
          CFI (cfiCond273) CFA_SP SP+-2
          CFI (cfiCond273) CFA_XSP16 add(XSP16, 63)
          CFI Block cfiCond274 Using cfiCommon0
          CFI (cfiCond274) Function zha_project_ProcessInReadRspCmd
          CFI (cfiCond274) Conditional ??CrossCallReturnLabel_14
          CFI (cfiCond274) R6 load(1, XDATA, add(CFA_XSP16, literal(-20)))
          CFI (cfiCond274) VB load(1, XDATA, add(CFA_XSP16, literal(-19)))
          CFI (cfiCond274) V0 load(1, XDATA, add(CFA_XSP16, literal(-18)))
          CFI (cfiCond274) V1 load(1, XDATA, add(CFA_XSP16, literal(-17)))
          CFI (cfiCond274) V2 load(1, XDATA, add(CFA_XSP16, literal(-16)))
          CFI (cfiCond274) V3 load(1, XDATA, add(CFA_XSP16, literal(-15)))
          CFI (cfiCond274) V4 load(1, XDATA, add(CFA_XSP16, literal(-14)))
          CFI (cfiCond274) V5 load(1, XDATA, add(CFA_XSP16, literal(-13)))
          CFI (cfiCond274) V6 load(1, XDATA, add(CFA_XSP16, literal(-12)))
          CFI (cfiCond274) V7 load(1, XDATA, add(CFA_XSP16, literal(-11)))
          CFI (cfiCond274) V8 load(1, XDATA, add(CFA_XSP16, literal(-10)))
          CFI (cfiCond274) V9 load(1, XDATA, add(CFA_XSP16, literal(-9)))
          CFI (cfiCond274) V10 load(1, XDATA, add(CFA_XSP16, literal(-8)))
          CFI (cfiCond274) V11 load(1, XDATA, add(CFA_XSP16, literal(-7)))
          CFI (cfiCond274) R7 load(1, XDATA, add(CFA_XSP16, literal(-6)))
          CFI (cfiCond274) ?RET_LOW load(1, XDATA, add(CFA_XSP16, literal(-5)))
          CFI (cfiCond274) ?RET_HIGH load(1, XDATA, add(CFA_XSP16, literal(-4)))
          CFI (cfiCond274) ?BRET_EXT load(1, XDATA, add(CFA_XSP16, literal(-3)))
          CFI (cfiCond274) DPL0 load(1, XDATA, add(CFA_XSP16, literal(-2)))
          CFI (cfiCond274) DPH0 load(1, XDATA, add(CFA_XSP16, literal(-1)))
          CFI (cfiCond274) CFA_SP SP+-2
          CFI (cfiCond274) CFA_XSP16 add(XSP16, 63)
          CFI Block cfiCond275 Using cfiCommon0
          CFI (cfiCond275) Function zha_project_ProcessInReadRspCmd
          CFI (cfiCond275) Conditional ??CrossCallReturnLabel_15
          CFI (cfiCond275) R6 load(1, XDATA, add(CFA_XSP16, literal(-20)))
          CFI (cfiCond275) VB load(1, XDATA, add(CFA_XSP16, literal(-19)))
          CFI (cfiCond275) V0 load(1, XDATA, add(CFA_XSP16, literal(-18)))
          CFI (cfiCond275) V1 load(1, XDATA, add(CFA_XSP16, literal(-17)))
          CFI (cfiCond275) V2 load(1, XDATA, add(CFA_XSP16, literal(-16)))
          CFI (cfiCond275) V3 load(1, XDATA, add(CFA_XSP16, literal(-15)))
          CFI (cfiCond275) V4 load(1, XDATA, add(CFA_XSP16, literal(-14)))
          CFI (cfiCond275) V5 load(1, XDATA, add(CFA_XSP16, literal(-13)))
          CFI (cfiCond275) V6 load(1, XDATA, add(CFA_XSP16, literal(-12)))
          CFI (cfiCond275) V7 load(1, XDATA, add(CFA_XSP16, literal(-11)))
          CFI (cfiCond275) V8 load(1, XDATA, add(CFA_XSP16, literal(-10)))
          CFI (cfiCond275) V9 load(1, XDATA, add(CFA_XSP16, literal(-9)))
          CFI (cfiCond275) V10 load(1, XDATA, add(CFA_XSP16, literal(-8)))
          CFI (cfiCond275) V11 load(1, XDATA, add(CFA_XSP16, literal(-7)))
          CFI (cfiCond275) R7 load(1, XDATA, add(CFA_XSP16, literal(-6)))
          CFI (cfiCond275) ?RET_LOW load(1, XDATA, add(CFA_XSP16, literal(-5)))
          CFI (cfiCond275) ?RET_HIGH load(1, XDATA, add(CFA_XSP16, literal(-4)))
          CFI (cfiCond275) ?BRET_EXT load(1, XDATA, add(CFA_XSP16, literal(-3)))
          CFI (cfiCond275) DPL0 load(1, XDATA, add(CFA_XSP16, literal(-2)))
          CFI (cfiCond275) DPH0 load(1, XDATA, add(CFA_XSP16, literal(-1)))
          CFI (cfiCond275) CFA_SP SP+-2
          CFI (cfiCond275) CFA_XSP16 add(XSP16, 63)
          CFI Block cfiCond276 Using cfiCommon0
          CFI (cfiCond276) Function zha_project_ProcessInReadRspCmd
          CFI (cfiCond276) Conditional ??CrossCallReturnLabel_16
          CFI (cfiCond276) R6 load(1, XDATA, add(CFA_XSP16, literal(-20)))
          CFI (cfiCond276) VB load(1, XDATA, add(CFA_XSP16, literal(-19)))
          CFI (cfiCond276) V0 load(1, XDATA, add(CFA_XSP16, literal(-18)))
          CFI (cfiCond276) V1 load(1, XDATA, add(CFA_XSP16, literal(-17)))
          CFI (cfiCond276) V2 load(1, XDATA, add(CFA_XSP16, literal(-16)))
          CFI (cfiCond276) V3 load(1, XDATA, add(CFA_XSP16, literal(-15)))
          CFI (cfiCond276) V4 load(1, XDATA, add(CFA_XSP16, literal(-14)))
          CFI (cfiCond276) V5 load(1, XDATA, add(CFA_XSP16, literal(-13)))
          CFI (cfiCond276) V6 load(1, XDATA, add(CFA_XSP16, literal(-12)))
          CFI (cfiCond276) V7 load(1, XDATA, add(CFA_XSP16, literal(-11)))
          CFI (cfiCond276) V8 load(1, XDATA, add(CFA_XSP16, literal(-10)))
          CFI (cfiCond276) V9 load(1, XDATA, add(CFA_XSP16, literal(-9)))
          CFI (cfiCond276) V10 load(1, XDATA, add(CFA_XSP16, literal(-8)))
          CFI (cfiCond276) V11 load(1, XDATA, add(CFA_XSP16, literal(-7)))
          CFI (cfiCond276) R7 load(1, XDATA, add(CFA_XSP16, literal(-6)))
          CFI (cfiCond276) ?RET_LOW load(1, XDATA, add(CFA_XSP16, literal(-5)))
          CFI (cfiCond276) ?RET_HIGH load(1, XDATA, add(CFA_XSP16, literal(-4)))
          CFI (cfiCond276) ?BRET_EXT load(1, XDATA, add(CFA_XSP16, literal(-3)))
          CFI (cfiCond276) DPL0 load(1, XDATA, add(CFA_XSP16, literal(-2)))
          CFI (cfiCond276) DPH0 load(1, XDATA, add(CFA_XSP16, literal(-1)))
          CFI (cfiCond276) CFA_SP SP+-2
          CFI (cfiCond276) CFA_XSP16 add(XSP16, 63)
          CFI Block cfiCond277 Using cfiCommon0
          CFI (cfiCond277) Function zha_project_ProcessInReadRspCmd
          CFI (cfiCond277) Conditional ??CrossCallReturnLabel_17
          CFI (cfiCond277) R6 load(1, XDATA, add(CFA_XSP16, literal(-20)))
          CFI (cfiCond277) VB load(1, XDATA, add(CFA_XSP16, literal(-19)))
          CFI (cfiCond277) V0 load(1, XDATA, add(CFA_XSP16, literal(-18)))
          CFI (cfiCond277) V1 load(1, XDATA, add(CFA_XSP16, literal(-17)))
          CFI (cfiCond277) V2 load(1, XDATA, add(CFA_XSP16, literal(-16)))
          CFI (cfiCond277) V3 load(1, XDATA, add(CFA_XSP16, literal(-15)))
          CFI (cfiCond277) V4 load(1, XDATA, add(CFA_XSP16, literal(-14)))
          CFI (cfiCond277) V5 load(1, XDATA, add(CFA_XSP16, literal(-13)))
          CFI (cfiCond277) V6 load(1, XDATA, add(CFA_XSP16, literal(-12)))
          CFI (cfiCond277) V7 load(1, XDATA, add(CFA_XSP16, literal(-11)))
          CFI (cfiCond277) V8 load(1, XDATA, add(CFA_XSP16, literal(-10)))
          CFI (cfiCond277) V9 load(1, XDATA, add(CFA_XSP16, literal(-9)))
          CFI (cfiCond277) V10 load(1, XDATA, add(CFA_XSP16, literal(-8)))
          CFI (cfiCond277) V11 load(1, XDATA, add(CFA_XSP16, literal(-7)))
          CFI (cfiCond277) R7 load(1, XDATA, add(CFA_XSP16, literal(-6)))
          CFI (cfiCond277) ?RET_LOW load(1, XDATA, add(CFA_XSP16, literal(-5)))
          CFI (cfiCond277) ?RET_HIGH load(1, XDATA, add(CFA_XSP16, literal(-4)))
          CFI (cfiCond277) ?BRET_EXT load(1, XDATA, add(CFA_XSP16, literal(-3)))
          CFI (cfiCond277) DPL0 load(1, XDATA, add(CFA_XSP16, literal(-2)))
          CFI (cfiCond277) DPH0 load(1, XDATA, add(CFA_XSP16, literal(-1)))
          CFI (cfiCond277) CFA_SP SP+-2
          CFI (cfiCond277) CFA_XSP16 add(XSP16, 63)
          CFI Block cfiCond278 Using cfiCommon0
          CFI (cfiCond278) Function zha_project_ProcessInReadRspCmd
          CFI (cfiCond278) Conditional ??CrossCallReturnLabel_18
          CFI (cfiCond278) R6 load(1, XDATA, add(CFA_XSP16, literal(-20)))
          CFI (cfiCond278) VB load(1, XDATA, add(CFA_XSP16, literal(-19)))
          CFI (cfiCond278) V0 load(1, XDATA, add(CFA_XSP16, literal(-18)))
          CFI (cfiCond278) V1 load(1, XDATA, add(CFA_XSP16, literal(-17)))
          CFI (cfiCond278) V2 load(1, XDATA, add(CFA_XSP16, literal(-16)))
          CFI (cfiCond278) V3 load(1, XDATA, add(CFA_XSP16, literal(-15)))
          CFI (cfiCond278) V4 load(1, XDATA, add(CFA_XSP16, literal(-14)))
          CFI (cfiCond278) V5 load(1, XDATA, add(CFA_XSP16, literal(-13)))
          CFI (cfiCond278) V6 load(1, XDATA, add(CFA_XSP16, literal(-12)))
          CFI (cfiCond278) V7 load(1, XDATA, add(CFA_XSP16, literal(-11)))
          CFI (cfiCond278) V8 load(1, XDATA, add(CFA_XSP16, literal(-10)))
          CFI (cfiCond278) V9 load(1, XDATA, add(CFA_XSP16, literal(-9)))
          CFI (cfiCond278) V10 load(1, XDATA, add(CFA_XSP16, literal(-8)))
          CFI (cfiCond278) V11 load(1, XDATA, add(CFA_XSP16, literal(-7)))
          CFI (cfiCond278) R7 load(1, XDATA, add(CFA_XSP16, literal(-6)))
          CFI (cfiCond278) ?RET_LOW load(1, XDATA, add(CFA_XSP16, literal(-5)))
          CFI (cfiCond278) ?RET_HIGH load(1, XDATA, add(CFA_XSP16, literal(-4)))
          CFI (cfiCond278) ?BRET_EXT load(1, XDATA, add(CFA_XSP16, literal(-3)))
          CFI (cfiCond278) DPL0 load(1, XDATA, add(CFA_XSP16, literal(-2)))
          CFI (cfiCond278) DPH0 load(1, XDATA, add(CFA_XSP16, literal(-1)))
          CFI (cfiCond278) CFA_SP SP+-2
          CFI (cfiCond278) CFA_XSP16 add(XSP16, 63)
          CFI Block cfiCond279 Using cfiCommon0
          CFI (cfiCond279) Function zha_project_ProcessInReadRspCmd
          CFI (cfiCond279) Conditional ??CrossCallReturnLabel_19
          CFI (cfiCond279) R6 load(1, XDATA, add(CFA_XSP16, literal(-20)))
          CFI (cfiCond279) VB load(1, XDATA, add(CFA_XSP16, literal(-19)))
          CFI (cfiCond279) V0 load(1, XDATA, add(CFA_XSP16, literal(-18)))
          CFI (cfiCond279) V1 load(1, XDATA, add(CFA_XSP16, literal(-17)))
          CFI (cfiCond279) V2 load(1, XDATA, add(CFA_XSP16, literal(-16)))
          CFI (cfiCond279) V3 load(1, XDATA, add(CFA_XSP16, literal(-15)))
          CFI (cfiCond279) V4 load(1, XDATA, add(CFA_XSP16, literal(-14)))
          CFI (cfiCond279) V5 load(1, XDATA, add(CFA_XSP16, literal(-13)))
          CFI (cfiCond279) V6 load(1, XDATA, add(CFA_XSP16, literal(-12)))
          CFI (cfiCond279) V7 load(1, XDATA, add(CFA_XSP16, literal(-11)))
          CFI (cfiCond279) V8 load(1, XDATA, add(CFA_XSP16, literal(-10)))
          CFI (cfiCond279) V9 load(1, XDATA, add(CFA_XSP16, literal(-9)))
          CFI (cfiCond279) V10 load(1, XDATA, add(CFA_XSP16, literal(-8)))
          CFI (cfiCond279) V11 load(1, XDATA, add(CFA_XSP16, literal(-7)))
          CFI (cfiCond279) R7 load(1, XDATA, add(CFA_XSP16, literal(-6)))
          CFI (cfiCond279) ?RET_LOW load(1, XDATA, add(CFA_XSP16, literal(-5)))
          CFI (cfiCond279) ?RET_HIGH load(1, XDATA, add(CFA_XSP16, literal(-4)))
          CFI (cfiCond279) ?BRET_EXT load(1, XDATA, add(CFA_XSP16, literal(-3)))
          CFI (cfiCond279) DPL0 load(1, XDATA, add(CFA_XSP16, literal(-2)))
          CFI (cfiCond279) DPH0 load(1, XDATA, add(CFA_XSP16, literal(-1)))
          CFI (cfiCond279) CFA_SP SP+-2
          CFI (cfiCond279) CFA_XSP16 add(XSP16, 63)
          CFI Block cfiCond280 Using cfiCommon0
          CFI (cfiCond280) Function zha_project_ProcessInReportCmd
          CFI (cfiCond280) Conditional ??CrossCallReturnLabel_20
          CFI (cfiCond280) R6 load(1, XDATA, add(CFA_XSP16, literal(-20)))
          CFI (cfiCond280) VB load(1, XDATA, add(CFA_XSP16, literal(-19)))
          CFI (cfiCond280) V0 load(1, XDATA, add(CFA_XSP16, literal(-18)))
          CFI (cfiCond280) V1 load(1, XDATA, add(CFA_XSP16, literal(-17)))
          CFI (cfiCond280) V2 load(1, XDATA, add(CFA_XSP16, literal(-16)))
          CFI (cfiCond280) V3 load(1, XDATA, add(CFA_XSP16, literal(-15)))
          CFI (cfiCond280) V4 load(1, XDATA, add(CFA_XSP16, literal(-14)))
          CFI (cfiCond280) V5 load(1, XDATA, add(CFA_XSP16, literal(-13)))
          CFI (cfiCond280) V6 load(1, XDATA, add(CFA_XSP16, literal(-12)))
          CFI (cfiCond280) V7 load(1, XDATA, add(CFA_XSP16, literal(-11)))
          CFI (cfiCond280) V8 load(1, XDATA, add(CFA_XSP16, literal(-10)))
          CFI (cfiCond280) V9 load(1, XDATA, add(CFA_XSP16, literal(-9)))
          CFI (cfiCond280) V10 load(1, XDATA, add(CFA_XSP16, literal(-8)))
          CFI (cfiCond280) V11 load(1, XDATA, add(CFA_XSP16, literal(-7)))
          CFI (cfiCond280) R7 load(1, XDATA, add(CFA_XSP16, literal(-6)))
          CFI (cfiCond280) ?RET_LOW load(1, XDATA, add(CFA_XSP16, literal(-5)))
          CFI (cfiCond280) ?RET_HIGH load(1, XDATA, add(CFA_XSP16, literal(-4)))
          CFI (cfiCond280) ?BRET_EXT load(1, XDATA, add(CFA_XSP16, literal(-3)))
          CFI (cfiCond280) DPL0 load(1, XDATA, add(CFA_XSP16, literal(-2)))
          CFI (cfiCond280) DPH0 load(1, XDATA, add(CFA_XSP16, literal(-1)))
          CFI (cfiCond280) CFA_SP SP+-2
          CFI (cfiCond280) CFA_XSP16 add(XSP16, 63)
          CFI Block cfiCond281 Using cfiCommon0
          CFI (cfiCond281) Function zha_project_ProcessInReportCmd
          CFI (cfiCond281) Conditional ??CrossCallReturnLabel_21
          CFI (cfiCond281) R6 load(1, XDATA, add(CFA_XSP16, literal(-20)))
          CFI (cfiCond281) VB load(1, XDATA, add(CFA_XSP16, literal(-19)))
          CFI (cfiCond281) V0 load(1, XDATA, add(CFA_XSP16, literal(-18)))
          CFI (cfiCond281) V1 load(1, XDATA, add(CFA_XSP16, literal(-17)))
          CFI (cfiCond281) V2 load(1, XDATA, add(CFA_XSP16, literal(-16)))
          CFI (cfiCond281) V3 load(1, XDATA, add(CFA_XSP16, literal(-15)))
          CFI (cfiCond281) V4 load(1, XDATA, add(CFA_XSP16, literal(-14)))
          CFI (cfiCond281) V5 load(1, XDATA, add(CFA_XSP16, literal(-13)))
          CFI (cfiCond281) V6 load(1, XDATA, add(CFA_XSP16, literal(-12)))
          CFI (cfiCond281) V7 load(1, XDATA, add(CFA_XSP16, literal(-11)))
          CFI (cfiCond281) V8 load(1, XDATA, add(CFA_XSP16, literal(-10)))
          CFI (cfiCond281) V9 load(1, XDATA, add(CFA_XSP16, literal(-9)))
          CFI (cfiCond281) V10 load(1, XDATA, add(CFA_XSP16, literal(-8)))
          CFI (cfiCond281) V11 load(1, XDATA, add(CFA_XSP16, literal(-7)))
          CFI (cfiCond281) R7 load(1, XDATA, add(CFA_XSP16, literal(-6)))
          CFI (cfiCond281) ?RET_LOW load(1, XDATA, add(CFA_XSP16, literal(-5)))
          CFI (cfiCond281) ?RET_HIGH load(1, XDATA, add(CFA_XSP16, literal(-4)))
          CFI (cfiCond281) ?BRET_EXT load(1, XDATA, add(CFA_XSP16, literal(-3)))
          CFI (cfiCond281) DPL0 load(1, XDATA, add(CFA_XSP16, literal(-2)))
          CFI (cfiCond281) DPH0 load(1, XDATA, add(CFA_XSP16, literal(-1)))
          CFI (cfiCond281) CFA_SP SP+-2
          CFI (cfiCond281) CFA_XSP16 add(XSP16, 63)
          CFI Block cfiCond282 Using cfiCommon0
          CFI (cfiCond282) Function zha_project_ProcessInReportCmd
          CFI (cfiCond282) Conditional ??CrossCallReturnLabel_22
          CFI (cfiCond282) R6 load(1, XDATA, add(CFA_XSP16, literal(-20)))
          CFI (cfiCond282) VB load(1, XDATA, add(CFA_XSP16, literal(-19)))
          CFI (cfiCond282) V0 load(1, XDATA, add(CFA_XSP16, literal(-18)))
          CFI (cfiCond282) V1 load(1, XDATA, add(CFA_XSP16, literal(-17)))
          CFI (cfiCond282) V2 load(1, XDATA, add(CFA_XSP16, literal(-16)))
          CFI (cfiCond282) V3 load(1, XDATA, add(CFA_XSP16, literal(-15)))
          CFI (cfiCond282) V4 load(1, XDATA, add(CFA_XSP16, literal(-14)))
          CFI (cfiCond282) V5 load(1, XDATA, add(CFA_XSP16, literal(-13)))
          CFI (cfiCond282) V6 load(1, XDATA, add(CFA_XSP16, literal(-12)))
          CFI (cfiCond282) V7 load(1, XDATA, add(CFA_XSP16, literal(-11)))
          CFI (cfiCond282) V8 load(1, XDATA, add(CFA_XSP16, literal(-10)))
          CFI (cfiCond282) V9 load(1, XDATA, add(CFA_XSP16, literal(-9)))
          CFI (cfiCond282) V10 load(1, XDATA, add(CFA_XSP16, literal(-8)))
          CFI (cfiCond282) V11 load(1, XDATA, add(CFA_XSP16, literal(-7)))
          CFI (cfiCond282) R7 load(1, XDATA, add(CFA_XSP16, literal(-6)))
          CFI (cfiCond282) ?RET_LOW load(1, XDATA, add(CFA_XSP16, literal(-5)))
          CFI (cfiCond282) ?RET_HIGH load(1, XDATA, add(CFA_XSP16, literal(-4)))
          CFI (cfiCond282) ?BRET_EXT load(1, XDATA, add(CFA_XSP16, literal(-3)))
          CFI (cfiCond282) DPL0 load(1, XDATA, add(CFA_XSP16, literal(-2)))
          CFI (cfiCond282) DPH0 load(1, XDATA, add(CFA_XSP16, literal(-1)))
          CFI (cfiCond282) CFA_SP SP+-2
          CFI (cfiCond282) CFA_XSP16 add(XSP16, 63)
          CFI Block cfiCond283 Using cfiCommon0
          CFI (cfiCond283) Function zha_project_ProcessInReportCmd
          CFI (cfiCond283) Conditional ??CrossCallReturnLabel_23
          CFI (cfiCond283) R6 load(1, XDATA, add(CFA_XSP16, literal(-20)))
          CFI (cfiCond283) VB load(1, XDATA, add(CFA_XSP16, literal(-19)))
          CFI (cfiCond283) V0 load(1, XDATA, add(CFA_XSP16, literal(-18)))
          CFI (cfiCond283) V1 load(1, XDATA, add(CFA_XSP16, literal(-17)))
          CFI (cfiCond283) V2 load(1, XDATA, add(CFA_XSP16, literal(-16)))
          CFI (cfiCond283) V3 load(1, XDATA, add(CFA_XSP16, literal(-15)))
          CFI (cfiCond283) V4 load(1, XDATA, add(CFA_XSP16, literal(-14)))
          CFI (cfiCond283) V5 load(1, XDATA, add(CFA_XSP16, literal(-13)))
          CFI (cfiCond283) V6 load(1, XDATA, add(CFA_XSP16, literal(-12)))
          CFI (cfiCond283) V7 load(1, XDATA, add(CFA_XSP16, literal(-11)))
          CFI (cfiCond283) V8 load(1, XDATA, add(CFA_XSP16, literal(-10)))
          CFI (cfiCond283) V9 load(1, XDATA, add(CFA_XSP16, literal(-9)))
          CFI (cfiCond283) V10 load(1, XDATA, add(CFA_XSP16, literal(-8)))
          CFI (cfiCond283) V11 load(1, XDATA, add(CFA_XSP16, literal(-7)))
          CFI (cfiCond283) R7 load(1, XDATA, add(CFA_XSP16, literal(-6)))
          CFI (cfiCond283) ?RET_LOW load(1, XDATA, add(CFA_XSP16, literal(-5)))
          CFI (cfiCond283) ?RET_HIGH load(1, XDATA, add(CFA_XSP16, literal(-4)))
          CFI (cfiCond283) ?BRET_EXT load(1, XDATA, add(CFA_XSP16, literal(-3)))
          CFI (cfiCond283) DPL0 load(1, XDATA, add(CFA_XSP16, literal(-2)))
          CFI (cfiCond283) DPH0 load(1, XDATA, add(CFA_XSP16, literal(-1)))
          CFI (cfiCond283) CFA_SP SP+-2
          CFI (cfiCond283) CFA_XSP16 add(XSP16, 63)
          CFI Block cfiCond284 Using cfiCommon0
          CFI (cfiCond284) Function zha_project_ProcessInReportCmd
          CFI (cfiCond284) Conditional ??CrossCallReturnLabel_24
          CFI (cfiCond284) R6 load(1, XDATA, add(CFA_XSP16, literal(-20)))
          CFI (cfiCond284) VB load(1, XDATA, add(CFA_XSP16, literal(-19)))
          CFI (cfiCond284) V0 load(1, XDATA, add(CFA_XSP16, literal(-18)))
          CFI (cfiCond284) V1 load(1, XDATA, add(CFA_XSP16, literal(-17)))
          CFI (cfiCond284) V2 load(1, XDATA, add(CFA_XSP16, literal(-16)))
          CFI (cfiCond284) V3 load(1, XDATA, add(CFA_XSP16, literal(-15)))
          CFI (cfiCond284) V4 load(1, XDATA, add(CFA_XSP16, literal(-14)))
          CFI (cfiCond284) V5 load(1, XDATA, add(CFA_XSP16, literal(-13)))
          CFI (cfiCond284) V6 load(1, XDATA, add(CFA_XSP16, literal(-12)))
          CFI (cfiCond284) V7 load(1, XDATA, add(CFA_XSP16, literal(-11)))
          CFI (cfiCond284) V8 load(1, XDATA, add(CFA_XSP16, literal(-10)))
          CFI (cfiCond284) V9 load(1, XDATA, add(CFA_XSP16, literal(-9)))
          CFI (cfiCond284) V10 load(1, XDATA, add(CFA_XSP16, literal(-8)))
          CFI (cfiCond284) V11 load(1, XDATA, add(CFA_XSP16, literal(-7)))
          CFI (cfiCond284) R7 load(1, XDATA, add(CFA_XSP16, literal(-6)))
          CFI (cfiCond284) ?RET_LOW load(1, XDATA, add(CFA_XSP16, literal(-5)))
          CFI (cfiCond284) ?RET_HIGH load(1, XDATA, add(CFA_XSP16, literal(-4)))
          CFI (cfiCond284) ?BRET_EXT load(1, XDATA, add(CFA_XSP16, literal(-3)))
          CFI (cfiCond284) DPL0 load(1, XDATA, add(CFA_XSP16, literal(-2)))
          CFI (cfiCond284) DPH0 load(1, XDATA, add(CFA_XSP16, literal(-1)))
          CFI (cfiCond284) CFA_SP SP+-2
          CFI (cfiCond284) CFA_XSP16 add(XSP16, 63)
          CFI Block cfiCond285 Using cfiCommon0
          CFI (cfiCond285) Function zha_project_ProcessInReportCmd
          CFI (cfiCond285) Conditional ??CrossCallReturnLabel_25
          CFI (cfiCond285) R6 load(1, XDATA, add(CFA_XSP16, literal(-20)))
          CFI (cfiCond285) VB load(1, XDATA, add(CFA_XSP16, literal(-19)))
          CFI (cfiCond285) V0 load(1, XDATA, add(CFA_XSP16, literal(-18)))
          CFI (cfiCond285) V1 load(1, XDATA, add(CFA_XSP16, literal(-17)))
          CFI (cfiCond285) V2 load(1, XDATA, add(CFA_XSP16, literal(-16)))
          CFI (cfiCond285) V3 load(1, XDATA, add(CFA_XSP16, literal(-15)))
          CFI (cfiCond285) V4 load(1, XDATA, add(CFA_XSP16, literal(-14)))
          CFI (cfiCond285) V5 load(1, XDATA, add(CFA_XSP16, literal(-13)))
          CFI (cfiCond285) V6 load(1, XDATA, add(CFA_XSP16, literal(-12)))
          CFI (cfiCond285) V7 load(1, XDATA, add(CFA_XSP16, literal(-11)))
          CFI (cfiCond285) V8 load(1, XDATA, add(CFA_XSP16, literal(-10)))
          CFI (cfiCond285) V9 load(1, XDATA, add(CFA_XSP16, literal(-9)))
          CFI (cfiCond285) V10 load(1, XDATA, add(CFA_XSP16, literal(-8)))
          CFI (cfiCond285) V11 load(1, XDATA, add(CFA_XSP16, literal(-7)))
          CFI (cfiCond285) R7 load(1, XDATA, add(CFA_XSP16, literal(-6)))
          CFI (cfiCond285) ?RET_LOW load(1, XDATA, add(CFA_XSP16, literal(-5)))
          CFI (cfiCond285) ?RET_HIGH load(1, XDATA, add(CFA_XSP16, literal(-4)))
          CFI (cfiCond285) ?BRET_EXT load(1, XDATA, add(CFA_XSP16, literal(-3)))
          CFI (cfiCond285) DPL0 load(1, XDATA, add(CFA_XSP16, literal(-2)))
          CFI (cfiCond285) DPH0 load(1, XDATA, add(CFA_XSP16, literal(-1)))
          CFI (cfiCond285) CFA_SP SP+-2
          CFI (cfiCond285) CFA_XSP16 add(XSP16, 63)
          CFI Block cfiCond286 Using cfiCommon0
          CFI (cfiCond286) Function zha_project_ProcessInReportCmd
          CFI (cfiCond286) Conditional ??CrossCallReturnLabel_26
          CFI (cfiCond286) R6 load(1, XDATA, add(CFA_XSP16, literal(-20)))
          CFI (cfiCond286) VB load(1, XDATA, add(CFA_XSP16, literal(-19)))
          CFI (cfiCond286) V0 load(1, XDATA, add(CFA_XSP16, literal(-18)))
          CFI (cfiCond286) V1 load(1, XDATA, add(CFA_XSP16, literal(-17)))
          CFI (cfiCond286) V2 load(1, XDATA, add(CFA_XSP16, literal(-16)))
          CFI (cfiCond286) V3 load(1, XDATA, add(CFA_XSP16, literal(-15)))
          CFI (cfiCond286) V4 load(1, XDATA, add(CFA_XSP16, literal(-14)))
          CFI (cfiCond286) V5 load(1, XDATA, add(CFA_XSP16, literal(-13)))
          CFI (cfiCond286) V6 load(1, XDATA, add(CFA_XSP16, literal(-12)))
          CFI (cfiCond286) V7 load(1, XDATA, add(CFA_XSP16, literal(-11)))
          CFI (cfiCond286) V8 load(1, XDATA, add(CFA_XSP16, literal(-10)))
          CFI (cfiCond286) V9 load(1, XDATA, add(CFA_XSP16, literal(-9)))
          CFI (cfiCond286) V10 load(1, XDATA, add(CFA_XSP16, literal(-8)))
          CFI (cfiCond286) V11 load(1, XDATA, add(CFA_XSP16, literal(-7)))
          CFI (cfiCond286) R7 load(1, XDATA, add(CFA_XSP16, literal(-6)))
          CFI (cfiCond286) ?RET_LOW load(1, XDATA, add(CFA_XSP16, literal(-5)))
          CFI (cfiCond286) ?RET_HIGH load(1, XDATA, add(CFA_XSP16, literal(-4)))
          CFI (cfiCond286) ?BRET_EXT load(1, XDATA, add(CFA_XSP16, literal(-3)))
          CFI (cfiCond286) DPL0 load(1, XDATA, add(CFA_XSP16, literal(-2)))
          CFI (cfiCond286) DPH0 load(1, XDATA, add(CFA_XSP16, literal(-1)))
          CFI (cfiCond286) CFA_SP SP+-2
          CFI (cfiCond286) CFA_XSP16 add(XSP16, 63)
          CFI Block cfiCond287 Using cfiCommon0
          CFI (cfiCond287) Function zha_project_ProcessInReportCmd
          CFI (cfiCond287) Conditional ??CrossCallReturnLabel_27
          CFI (cfiCond287) R6 load(1, XDATA, add(CFA_XSP16, literal(-20)))
          CFI (cfiCond287) VB load(1, XDATA, add(CFA_XSP16, literal(-19)))
          CFI (cfiCond287) V0 load(1, XDATA, add(CFA_XSP16, literal(-18)))
          CFI (cfiCond287) V1 load(1, XDATA, add(CFA_XSP16, literal(-17)))
          CFI (cfiCond287) V2 load(1, XDATA, add(CFA_XSP16, literal(-16)))
          CFI (cfiCond287) V3 load(1, XDATA, add(CFA_XSP16, literal(-15)))
          CFI (cfiCond287) V4 load(1, XDATA, add(CFA_XSP16, literal(-14)))
          CFI (cfiCond287) V5 load(1, XDATA, add(CFA_XSP16, literal(-13)))
          CFI (cfiCond287) V6 load(1, XDATA, add(CFA_XSP16, literal(-12)))
          CFI (cfiCond287) V7 load(1, XDATA, add(CFA_XSP16, literal(-11)))
          CFI (cfiCond287) V8 load(1, XDATA, add(CFA_XSP16, literal(-10)))
          CFI (cfiCond287) V9 load(1, XDATA, add(CFA_XSP16, literal(-9)))
          CFI (cfiCond287) V10 load(1, XDATA, add(CFA_XSP16, literal(-8)))
          CFI (cfiCond287) V11 load(1, XDATA, add(CFA_XSP16, literal(-7)))
          CFI (cfiCond287) R7 load(1, XDATA, add(CFA_XSP16, literal(-6)))
          CFI (cfiCond287) ?RET_LOW load(1, XDATA, add(CFA_XSP16, literal(-5)))
          CFI (cfiCond287) ?RET_HIGH load(1, XDATA, add(CFA_XSP16, literal(-4)))
          CFI (cfiCond287) ?BRET_EXT load(1, XDATA, add(CFA_XSP16, literal(-3)))
          CFI (cfiCond287) DPL0 load(1, XDATA, add(CFA_XSP16, literal(-2)))
          CFI (cfiCond287) DPH0 load(1, XDATA, add(CFA_XSP16, literal(-1)))
          CFI (cfiCond287) CFA_SP SP+-2
          CFI (cfiCond287) CFA_XSP16 add(XSP16, 63)
          CFI Block cfiCond288 Using cfiCommon0
          CFI (cfiCond288) Function zha_project_ProcessInReportCmd
          CFI (cfiCond288) Conditional ??CrossCallReturnLabel_28
          CFI (cfiCond288) R6 load(1, XDATA, add(CFA_XSP16, literal(-20)))
          CFI (cfiCond288) VB load(1, XDATA, add(CFA_XSP16, literal(-19)))
          CFI (cfiCond288) V0 load(1, XDATA, add(CFA_XSP16, literal(-18)))
          CFI (cfiCond288) V1 load(1, XDATA, add(CFA_XSP16, literal(-17)))
          CFI (cfiCond288) V2 load(1, XDATA, add(CFA_XSP16, literal(-16)))
          CFI (cfiCond288) V3 load(1, XDATA, add(CFA_XSP16, literal(-15)))
          CFI (cfiCond288) V4 load(1, XDATA, add(CFA_XSP16, literal(-14)))
          CFI (cfiCond288) V5 load(1, XDATA, add(CFA_XSP16, literal(-13)))
          CFI (cfiCond288) V6 load(1, XDATA, add(CFA_XSP16, literal(-12)))
          CFI (cfiCond288) V7 load(1, XDATA, add(CFA_XSP16, literal(-11)))
          CFI (cfiCond288) V8 load(1, XDATA, add(CFA_XSP16, literal(-10)))
          CFI (cfiCond288) V9 load(1, XDATA, add(CFA_XSP16, literal(-9)))
          CFI (cfiCond288) V10 load(1, XDATA, add(CFA_XSP16, literal(-8)))
          CFI (cfiCond288) V11 load(1, XDATA, add(CFA_XSP16, literal(-7)))
          CFI (cfiCond288) R7 load(1, XDATA, add(CFA_XSP16, literal(-6)))
          CFI (cfiCond288) ?RET_LOW load(1, XDATA, add(CFA_XSP16, literal(-5)))
          CFI (cfiCond288) ?RET_HIGH load(1, XDATA, add(CFA_XSP16, literal(-4)))
          CFI (cfiCond288) ?BRET_EXT load(1, XDATA, add(CFA_XSP16, literal(-3)))
          CFI (cfiCond288) DPL0 load(1, XDATA, add(CFA_XSP16, literal(-2)))
          CFI (cfiCond288) DPH0 load(1, XDATA, add(CFA_XSP16, literal(-1)))
          CFI (cfiCond288) CFA_SP SP+-2
          CFI (cfiCond288) CFA_XSP16 add(XSP16, 63)
          CFI Block cfiCond289 Using cfiCommon0
          CFI (cfiCond289) Function zha_project_ProcessInReportCmd
          CFI (cfiCond289) Conditional ??CrossCallReturnLabel_29
          CFI (cfiCond289) R6 load(1, XDATA, add(CFA_XSP16, literal(-20)))
          CFI (cfiCond289) VB load(1, XDATA, add(CFA_XSP16, literal(-19)))
          CFI (cfiCond289) V0 load(1, XDATA, add(CFA_XSP16, literal(-18)))
          CFI (cfiCond289) V1 load(1, XDATA, add(CFA_XSP16, literal(-17)))
          CFI (cfiCond289) V2 load(1, XDATA, add(CFA_XSP16, literal(-16)))
          CFI (cfiCond289) V3 load(1, XDATA, add(CFA_XSP16, literal(-15)))
          CFI (cfiCond289) V4 load(1, XDATA, add(CFA_XSP16, literal(-14)))
          CFI (cfiCond289) V5 load(1, XDATA, add(CFA_XSP16, literal(-13)))
          CFI (cfiCond289) V6 load(1, XDATA, add(CFA_XSP16, literal(-12)))
          CFI (cfiCond289) V7 load(1, XDATA, add(CFA_XSP16, literal(-11)))
          CFI (cfiCond289) V8 load(1, XDATA, add(CFA_XSP16, literal(-10)))
          CFI (cfiCond289) V9 load(1, XDATA, add(CFA_XSP16, literal(-9)))
          CFI (cfiCond289) V10 load(1, XDATA, add(CFA_XSP16, literal(-8)))
          CFI (cfiCond289) V11 load(1, XDATA, add(CFA_XSP16, literal(-7)))
          CFI (cfiCond289) R7 load(1, XDATA, add(CFA_XSP16, literal(-6)))
          CFI (cfiCond289) ?RET_LOW load(1, XDATA, add(CFA_XSP16, literal(-5)))
          CFI (cfiCond289) ?RET_HIGH load(1, XDATA, add(CFA_XSP16, literal(-4)))
          CFI (cfiCond289) ?BRET_EXT load(1, XDATA, add(CFA_XSP16, literal(-3)))
          CFI (cfiCond289) DPL0 load(1, XDATA, add(CFA_XSP16, literal(-2)))
          CFI (cfiCond289) DPH0 load(1, XDATA, add(CFA_XSP16, literal(-1)))
          CFI (cfiCond289) CFA_SP SP+-2
          CFI (cfiCond289) CFA_XSP16 add(XSP16, 63)
          CFI Block cfiPicker290 Using cfiCommon1
          CFI (cfiPicker290) NoFunction
          CFI (cfiPicker290) Picker
        MOV     DPL,?V0
        MOV     DPH,?V1
        MOVX    A,@DPTR
        MOV     R0,A
        MOV     A,R6
        CLR     C
        SUBB    A,R0
        RET
          CFI EndBlock cfiCond270
          CFI EndBlock cfiCond271
          CFI EndBlock cfiCond272
          CFI EndBlock cfiCond273
          CFI EndBlock cfiCond274
          CFI EndBlock cfiCond275
          CFI EndBlock cfiCond276
          CFI EndBlock cfiCond277
          CFI EndBlock cfiCond278
          CFI EndBlock cfiCond279
          CFI EndBlock cfiCond280
          CFI EndBlock cfiCond281
          CFI EndBlock cfiCond282
          CFI EndBlock cfiCond283
          CFI EndBlock cfiCond284
          CFI EndBlock cfiCond285
          CFI EndBlock cfiCond286
          CFI EndBlock cfiCond287
          CFI EndBlock cfiCond288
          CFI EndBlock cfiCond289
          CFI EndBlock cfiPicker290

        RSEG BANKED_CODE:CODE:NOROOT(0)
?Subroutine6:
          CFI Block cfiCond291 Using cfiCommon0
          CFI Function zha_project_ProcessInReadRspCmd
          CFI Conditional ??CrossCallReturnLabel_6
          CFI R6 load(1, XDATA, add(CFA_XSP16, literal(-20)))
          CFI VB load(1, XDATA, add(CFA_XSP16, literal(-19)))
          CFI V0 load(1, XDATA, add(CFA_XSP16, literal(-18)))
          CFI V1 load(1, XDATA, add(CFA_XSP16, literal(-17)))
          CFI V2 load(1, XDATA, add(CFA_XSP16, literal(-16)))
          CFI V3 load(1, XDATA, add(CFA_XSP16, literal(-15)))
          CFI V4 load(1, XDATA, add(CFA_XSP16, literal(-14)))
          CFI V5 load(1, XDATA, add(CFA_XSP16, literal(-13)))
          CFI V6 load(1, XDATA, add(CFA_XSP16, literal(-12)))
          CFI V7 load(1, XDATA, add(CFA_XSP16, literal(-11)))
          CFI V8 load(1, XDATA, add(CFA_XSP16, literal(-10)))
          CFI V9 load(1, XDATA, add(CFA_XSP16, literal(-9)))
          CFI V10 load(1, XDATA, add(CFA_XSP16, literal(-8)))
          CFI V11 load(1, XDATA, add(CFA_XSP16, literal(-7)))
          CFI R7 load(1, XDATA, add(CFA_XSP16, literal(-6)))
          CFI ?RET_LOW load(1, XDATA, add(CFA_XSP16, literal(-5)))
          CFI ?RET_HIGH load(1, XDATA, add(CFA_XSP16, literal(-4)))
          CFI ?BRET_EXT load(1, XDATA, add(CFA_XSP16, literal(-3)))
          CFI DPL0 load(1, XDATA, add(CFA_XSP16, literal(-2)))
          CFI DPH0 load(1, XDATA, add(CFA_XSP16, literal(-1)))
          CFI CFA_SP SP+-2
          CFI CFA_XSP16 add(XSP16, 63)
          CFI Block cfiCond292 Using cfiCommon0
          CFI (cfiCond292) Function zha_project_ProcessInReadRspCmd
          CFI (cfiCond292) Conditional ??CrossCallReturnLabel_7
          CFI (cfiCond292) R6 load(1, XDATA, add(CFA_XSP16, literal(-20)))
          CFI (cfiCond292) VB load(1, XDATA, add(CFA_XSP16, literal(-19)))
          CFI (cfiCond292) V0 load(1, XDATA, add(CFA_XSP16, literal(-18)))
          CFI (cfiCond292) V1 load(1, XDATA, add(CFA_XSP16, literal(-17)))
          CFI (cfiCond292) V2 load(1, XDATA, add(CFA_XSP16, literal(-16)))
          CFI (cfiCond292) V3 load(1, XDATA, add(CFA_XSP16, literal(-15)))
          CFI (cfiCond292) V4 load(1, XDATA, add(CFA_XSP16, literal(-14)))
          CFI (cfiCond292) V5 load(1, XDATA, add(CFA_XSP16, literal(-13)))
          CFI (cfiCond292) V6 load(1, XDATA, add(CFA_XSP16, literal(-12)))
          CFI (cfiCond292) V7 load(1, XDATA, add(CFA_XSP16, literal(-11)))
          CFI (cfiCond292) V8 load(1, XDATA, add(CFA_XSP16, literal(-10)))
          CFI (cfiCond292) V9 load(1, XDATA, add(CFA_XSP16, literal(-9)))
          CFI (cfiCond292) V10 load(1, XDATA, add(CFA_XSP16, literal(-8)))
          CFI (cfiCond292) V11 load(1, XDATA, add(CFA_XSP16, literal(-7)))
          CFI (cfiCond292) R7 load(1, XDATA, add(CFA_XSP16, literal(-6)))
          CFI (cfiCond292) ?RET_LOW load(1, XDATA, add(CFA_XSP16, literal(-5)))
          CFI (cfiCond292) ?RET_HIGH load(1, XDATA, add(CFA_XSP16, literal(-4)))
          CFI (cfiCond292) ?BRET_EXT load(1, XDATA, add(CFA_XSP16, literal(-3)))
          CFI (cfiCond292) DPL0 load(1, XDATA, add(CFA_XSP16, literal(-2)))
          CFI (cfiCond292) DPH0 load(1, XDATA, add(CFA_XSP16, literal(-1)))
          CFI (cfiCond292) CFA_SP SP+-2
          CFI (cfiCond292) CFA_XSP16 add(XSP16, 63)
          CFI Block cfiCond293 Using cfiCommon0
          CFI (cfiCond293) Function zha_project_ProcessInReportCmd
          CFI (cfiCond293) Conditional ??CrossCallReturnLabel_8
          CFI (cfiCond293) R6 load(1, XDATA, add(CFA_XSP16, literal(-20)))
          CFI (cfiCond293) VB load(1, XDATA, add(CFA_XSP16, literal(-19)))
          CFI (cfiCond293) V0 load(1, XDATA, add(CFA_XSP16, literal(-18)))
          CFI (cfiCond293) V1 load(1, XDATA, add(CFA_XSP16, literal(-17)))
          CFI (cfiCond293) V2 load(1, XDATA, add(CFA_XSP16, literal(-16)))
          CFI (cfiCond293) V3 load(1, XDATA, add(CFA_XSP16, literal(-15)))
          CFI (cfiCond293) V4 load(1, XDATA, add(CFA_XSP16, literal(-14)))
          CFI (cfiCond293) V5 load(1, XDATA, add(CFA_XSP16, literal(-13)))
          CFI (cfiCond293) V6 load(1, XDATA, add(CFA_XSP16, literal(-12)))
          CFI (cfiCond293) V7 load(1, XDATA, add(CFA_XSP16, literal(-11)))
          CFI (cfiCond293) V8 load(1, XDATA, add(CFA_XSP16, literal(-10)))
          CFI (cfiCond293) V9 load(1, XDATA, add(CFA_XSP16, literal(-9)))
          CFI (cfiCond293) V10 load(1, XDATA, add(CFA_XSP16, literal(-8)))
          CFI (cfiCond293) V11 load(1, XDATA, add(CFA_XSP16, literal(-7)))
          CFI (cfiCond293) R7 load(1, XDATA, add(CFA_XSP16, literal(-6)))
          CFI (cfiCond293) ?RET_LOW load(1, XDATA, add(CFA_XSP16, literal(-5)))
          CFI (cfiCond293) ?RET_HIGH load(1, XDATA, add(CFA_XSP16, literal(-4)))
          CFI (cfiCond293) ?BRET_EXT load(1, XDATA, add(CFA_XSP16, literal(-3)))
          CFI (cfiCond293) DPL0 load(1, XDATA, add(CFA_XSP16, literal(-2)))
          CFI (cfiCond293) DPH0 load(1, XDATA, add(CFA_XSP16, literal(-1)))
          CFI (cfiCond293) CFA_SP SP+-2
          CFI (cfiCond293) CFA_XSP16 add(XSP16, 63)
          CFI Block cfiCond294 Using cfiCommon0
          CFI (cfiCond294) Function zha_project_ProcessInReportCmd
          CFI (cfiCond294) Conditional ??CrossCallReturnLabel_9
          CFI (cfiCond294) R6 load(1, XDATA, add(CFA_XSP16, literal(-20)))
          CFI (cfiCond294) VB load(1, XDATA, add(CFA_XSP16, literal(-19)))
          CFI (cfiCond294) V0 load(1, XDATA, add(CFA_XSP16, literal(-18)))
          CFI (cfiCond294) V1 load(1, XDATA, add(CFA_XSP16, literal(-17)))
          CFI (cfiCond294) V2 load(1, XDATA, add(CFA_XSP16, literal(-16)))
          CFI (cfiCond294) V3 load(1, XDATA, add(CFA_XSP16, literal(-15)))
          CFI (cfiCond294) V4 load(1, XDATA, add(CFA_XSP16, literal(-14)))
          CFI (cfiCond294) V5 load(1, XDATA, add(CFA_XSP16, literal(-13)))
          CFI (cfiCond294) V6 load(1, XDATA, add(CFA_XSP16, literal(-12)))
          CFI (cfiCond294) V7 load(1, XDATA, add(CFA_XSP16, literal(-11)))
          CFI (cfiCond294) V8 load(1, XDATA, add(CFA_XSP16, literal(-10)))
          CFI (cfiCond294) V9 load(1, XDATA, add(CFA_XSP16, literal(-9)))
          CFI (cfiCond294) V10 load(1, XDATA, add(CFA_XSP16, literal(-8)))
          CFI (cfiCond294) V11 load(1, XDATA, add(CFA_XSP16, literal(-7)))
          CFI (cfiCond294) R7 load(1, XDATA, add(CFA_XSP16, literal(-6)))
          CFI (cfiCond294) ?RET_LOW load(1, XDATA, add(CFA_XSP16, literal(-5)))
          CFI (cfiCond294) ?RET_HIGH load(1, XDATA, add(CFA_XSP16, literal(-4)))
          CFI (cfiCond294) ?BRET_EXT load(1, XDATA, add(CFA_XSP16, literal(-3)))
          CFI (cfiCond294) DPL0 load(1, XDATA, add(CFA_XSP16, literal(-2)))
          CFI (cfiCond294) DPH0 load(1, XDATA, add(CFA_XSP16, literal(-1)))
          CFI (cfiCond294) CFA_SP SP+-2
          CFI (cfiCond294) CFA_XSP16 add(XSP16, 63)
          CFI Block cfiPicker295 Using cfiCommon1
          CFI (cfiPicker295) NoFunction
          CFI (cfiPicker295) Picker
        MOV     A,R0
        MOVX    @DPTR,A
        INC     DPTR
        MOV     A,R1
        MOVX    @DPTR,A
        ; Setup parameters for call to function UpdateDeviceStatus2
        ; Setup parameters for call to function UpdateDeviceStatus1
        ; Setup parameters for call to function UpdateDeviceStatus2
        ; Setup parameters for call to function UpdateDeviceStatus1
        MOV     A,#0x6
        RET
          CFI EndBlock cfiCond291
          CFI EndBlock cfiCond292
          CFI EndBlock cfiCond293
          CFI EndBlock cfiCond294
          CFI EndBlock cfiPicker295

        RSEG BANKED_CODE:CODE:NOROOT(0)
?Subroutine3:
          CFI Block cfiCond296 Using cfiCommon0
          CFI Function zha_project_ProcessInReadRspCmd
          CFI Conditional ??CrossCallReturnLabel_113
          CFI R6 load(1, XDATA, add(CFA_XSP16, literal(-20)))
          CFI VB load(1, XDATA, add(CFA_XSP16, literal(-19)))
          CFI V0 load(1, XDATA, add(CFA_XSP16, literal(-18)))
          CFI V1 load(1, XDATA, add(CFA_XSP16, literal(-17)))
          CFI V2 load(1, XDATA, add(CFA_XSP16, literal(-16)))
          CFI V3 load(1, XDATA, add(CFA_XSP16, literal(-15)))
          CFI V4 load(1, XDATA, add(CFA_XSP16, literal(-14)))
          CFI V5 load(1, XDATA, add(CFA_XSP16, literal(-13)))
          CFI V6 load(1, XDATA, add(CFA_XSP16, literal(-12)))
          CFI V7 load(1, XDATA, add(CFA_XSP16, literal(-11)))
          CFI V8 load(1, XDATA, add(CFA_XSP16, literal(-10)))
          CFI V9 load(1, XDATA, add(CFA_XSP16, literal(-9)))
          CFI V10 load(1, XDATA, add(CFA_XSP16, literal(-8)))
          CFI V11 load(1, XDATA, add(CFA_XSP16, literal(-7)))
          CFI R7 load(1, XDATA, add(CFA_XSP16, literal(-6)))
          CFI ?RET_LOW load(1, XDATA, add(CFA_XSP16, literal(-5)))
          CFI ?RET_HIGH load(1, XDATA, add(CFA_XSP16, literal(-4)))
          CFI ?BRET_EXT load(1, XDATA, add(CFA_XSP16, literal(-3)))
          CFI DPL0 load(1, XDATA, add(CFA_XSP16, literal(-2)))
          CFI DPH0 load(1, XDATA, add(CFA_XSP16, literal(-1)))
          CFI CFA_SP SP+-2
          CFI CFA_XSP16 add(XSP16, 63)
          CFI Block cfiCond297 Using cfiCommon0
          CFI (cfiCond297) Function zha_project_ProcessInReadRspCmd
          CFI (cfiCond297) Conditional ??CrossCallReturnLabel_114
          CFI (cfiCond297) R6 load(1, XDATA, add(CFA_XSP16, literal(-20)))
          CFI (cfiCond297) VB load(1, XDATA, add(CFA_XSP16, literal(-19)))
          CFI (cfiCond297) V0 load(1, XDATA, add(CFA_XSP16, literal(-18)))
          CFI (cfiCond297) V1 load(1, XDATA, add(CFA_XSP16, literal(-17)))
          CFI (cfiCond297) V2 load(1, XDATA, add(CFA_XSP16, literal(-16)))
          CFI (cfiCond297) V3 load(1, XDATA, add(CFA_XSP16, literal(-15)))
          CFI (cfiCond297) V4 load(1, XDATA, add(CFA_XSP16, literal(-14)))
          CFI (cfiCond297) V5 load(1, XDATA, add(CFA_XSP16, literal(-13)))
          CFI (cfiCond297) V6 load(1, XDATA, add(CFA_XSP16, literal(-12)))
          CFI (cfiCond297) V7 load(1, XDATA, add(CFA_XSP16, literal(-11)))
          CFI (cfiCond297) V8 load(1, XDATA, add(CFA_XSP16, literal(-10)))
          CFI (cfiCond297) V9 load(1, XDATA, add(CFA_XSP16, literal(-9)))
          CFI (cfiCond297) V10 load(1, XDATA, add(CFA_XSP16, literal(-8)))
          CFI (cfiCond297) V11 load(1, XDATA, add(CFA_XSP16, literal(-7)))
          CFI (cfiCond297) R7 load(1, XDATA, add(CFA_XSP16, literal(-6)))
          CFI (cfiCond297) ?RET_LOW load(1, XDATA, add(CFA_XSP16, literal(-5)))
          CFI (cfiCond297) ?RET_HIGH load(1, XDATA, add(CFA_XSP16, literal(-4)))
          CFI (cfiCond297) ?BRET_EXT load(1, XDATA, add(CFA_XSP16, literal(-3)))
          CFI (cfiCond297) DPL0 load(1, XDATA, add(CFA_XSP16, literal(-2)))
          CFI (cfiCond297) DPH0 load(1, XDATA, add(CFA_XSP16, literal(-1)))
          CFI (cfiCond297) CFA_SP SP+-2
          CFI (cfiCond297) CFA_XSP16 add(XSP16, 63)
          CFI Block cfiCond298 Using cfiCommon0
          CFI (cfiCond298) Function zha_project_ProcessInReadRspCmd
          CFI (cfiCond298) Conditional ??CrossCallReturnLabel_115
          CFI (cfiCond298) R6 load(1, XDATA, add(CFA_XSP16, literal(-20)))
          CFI (cfiCond298) VB load(1, XDATA, add(CFA_XSP16, literal(-19)))
          CFI (cfiCond298) V0 load(1, XDATA, add(CFA_XSP16, literal(-18)))
          CFI (cfiCond298) V1 load(1, XDATA, add(CFA_XSP16, literal(-17)))
          CFI (cfiCond298) V2 load(1, XDATA, add(CFA_XSP16, literal(-16)))
          CFI (cfiCond298) V3 load(1, XDATA, add(CFA_XSP16, literal(-15)))
          CFI (cfiCond298) V4 load(1, XDATA, add(CFA_XSP16, literal(-14)))
          CFI (cfiCond298) V5 load(1, XDATA, add(CFA_XSP16, literal(-13)))
          CFI (cfiCond298) V6 load(1, XDATA, add(CFA_XSP16, literal(-12)))
          CFI (cfiCond298) V7 load(1, XDATA, add(CFA_XSP16, literal(-11)))
          CFI (cfiCond298) V8 load(1, XDATA, add(CFA_XSP16, literal(-10)))
          CFI (cfiCond298) V9 load(1, XDATA, add(CFA_XSP16, literal(-9)))
          CFI (cfiCond298) V10 load(1, XDATA, add(CFA_XSP16, literal(-8)))
          CFI (cfiCond298) V11 load(1, XDATA, add(CFA_XSP16, literal(-7)))
          CFI (cfiCond298) R7 load(1, XDATA, add(CFA_XSP16, literal(-6)))
          CFI (cfiCond298) ?RET_LOW load(1, XDATA, add(CFA_XSP16, literal(-5)))
          CFI (cfiCond298) ?RET_HIGH load(1, XDATA, add(CFA_XSP16, literal(-4)))
          CFI (cfiCond298) ?BRET_EXT load(1, XDATA, add(CFA_XSP16, literal(-3)))
          CFI (cfiCond298) DPL0 load(1, XDATA, add(CFA_XSP16, literal(-2)))
          CFI (cfiCond298) DPH0 load(1, XDATA, add(CFA_XSP16, literal(-1)))
          CFI (cfiCond298) CFA_SP SP+-2
          CFI (cfiCond298) CFA_XSP16 add(XSP16, 63)
          CFI Block cfiCond299 Using cfiCommon0
          CFI (cfiCond299) Function zha_project_ProcessInReportCmd
          CFI (cfiCond299) Conditional ??CrossCallReturnLabel_116
          CFI (cfiCond299) R6 load(1, XDATA, add(CFA_XSP16, literal(-20)))
          CFI (cfiCond299) VB load(1, XDATA, add(CFA_XSP16, literal(-19)))
          CFI (cfiCond299) V0 load(1, XDATA, add(CFA_XSP16, literal(-18)))
          CFI (cfiCond299) V1 load(1, XDATA, add(CFA_XSP16, literal(-17)))
          CFI (cfiCond299) V2 load(1, XDATA, add(CFA_XSP16, literal(-16)))
          CFI (cfiCond299) V3 load(1, XDATA, add(CFA_XSP16, literal(-15)))
          CFI (cfiCond299) V4 load(1, XDATA, add(CFA_XSP16, literal(-14)))
          CFI (cfiCond299) V5 load(1, XDATA, add(CFA_XSP16, literal(-13)))
          CFI (cfiCond299) V6 load(1, XDATA, add(CFA_XSP16, literal(-12)))
          CFI (cfiCond299) V7 load(1, XDATA, add(CFA_XSP16, literal(-11)))
          CFI (cfiCond299) V8 load(1, XDATA, add(CFA_XSP16, literal(-10)))
          CFI (cfiCond299) V9 load(1, XDATA, add(CFA_XSP16, literal(-9)))
          CFI (cfiCond299) V10 load(1, XDATA, add(CFA_XSP16, literal(-8)))
          CFI (cfiCond299) V11 load(1, XDATA, add(CFA_XSP16, literal(-7)))
          CFI (cfiCond299) R7 load(1, XDATA, add(CFA_XSP16, literal(-6)))
          CFI (cfiCond299) ?RET_LOW load(1, XDATA, add(CFA_XSP16, literal(-5)))
          CFI (cfiCond299) ?RET_HIGH load(1, XDATA, add(CFA_XSP16, literal(-4)))
          CFI (cfiCond299) ?BRET_EXT load(1, XDATA, add(CFA_XSP16, literal(-3)))
          CFI (cfiCond299) DPL0 load(1, XDATA, add(CFA_XSP16, literal(-2)))
          CFI (cfiCond299) DPH0 load(1, XDATA, add(CFA_XSP16, literal(-1)))
          CFI (cfiCond299) CFA_SP SP+-2
          CFI (cfiCond299) CFA_XSP16 add(XSP16, 63)
          CFI Block cfiCond300 Using cfiCommon0
          CFI (cfiCond300) Function zha_project_ProcessInReportCmd
          CFI (cfiCond300) Conditional ??CrossCallReturnLabel_117
          CFI (cfiCond300) R6 load(1, XDATA, add(CFA_XSP16, literal(-20)))
          CFI (cfiCond300) VB load(1, XDATA, add(CFA_XSP16, literal(-19)))
          CFI (cfiCond300) V0 load(1, XDATA, add(CFA_XSP16, literal(-18)))
          CFI (cfiCond300) V1 load(1, XDATA, add(CFA_XSP16, literal(-17)))
          CFI (cfiCond300) V2 load(1, XDATA, add(CFA_XSP16, literal(-16)))
          CFI (cfiCond300) V3 load(1, XDATA, add(CFA_XSP16, literal(-15)))
          CFI (cfiCond300) V4 load(1, XDATA, add(CFA_XSP16, literal(-14)))
          CFI (cfiCond300) V5 load(1, XDATA, add(CFA_XSP16, literal(-13)))
          CFI (cfiCond300) V6 load(1, XDATA, add(CFA_XSP16, literal(-12)))
          CFI (cfiCond300) V7 load(1, XDATA, add(CFA_XSP16, literal(-11)))
          CFI (cfiCond300) V8 load(1, XDATA, add(CFA_XSP16, literal(-10)))
          CFI (cfiCond300) V9 load(1, XDATA, add(CFA_XSP16, literal(-9)))
          CFI (cfiCond300) V10 load(1, XDATA, add(CFA_XSP16, literal(-8)))
          CFI (cfiCond300) V11 load(1, XDATA, add(CFA_XSP16, literal(-7)))
          CFI (cfiCond300) R7 load(1, XDATA, add(CFA_XSP16, literal(-6)))
          CFI (cfiCond300) ?RET_LOW load(1, XDATA, add(CFA_XSP16, literal(-5)))
          CFI (cfiCond300) ?RET_HIGH load(1, XDATA, add(CFA_XSP16, literal(-4)))
          CFI (cfiCond300) ?BRET_EXT load(1, XDATA, add(CFA_XSP16, literal(-3)))
          CFI (cfiCond300) DPL0 load(1, XDATA, add(CFA_XSP16, literal(-2)))
          CFI (cfiCond300) DPH0 load(1, XDATA, add(CFA_XSP16, literal(-1)))
          CFI (cfiCond300) CFA_SP SP+-2
          CFI (cfiCond300) CFA_XSP16 add(XSP16, 63)
          CFI Block cfiCond301 Using cfiCommon0
          CFI (cfiCond301) Function zha_project_ProcessInReportCmd
          CFI (cfiCond301) Conditional ??CrossCallReturnLabel_118
          CFI (cfiCond301) R6 load(1, XDATA, add(CFA_XSP16, literal(-20)))
          CFI (cfiCond301) VB load(1, XDATA, add(CFA_XSP16, literal(-19)))
          CFI (cfiCond301) V0 load(1, XDATA, add(CFA_XSP16, literal(-18)))
          CFI (cfiCond301) V1 load(1, XDATA, add(CFA_XSP16, literal(-17)))
          CFI (cfiCond301) V2 load(1, XDATA, add(CFA_XSP16, literal(-16)))
          CFI (cfiCond301) V3 load(1, XDATA, add(CFA_XSP16, literal(-15)))
          CFI (cfiCond301) V4 load(1, XDATA, add(CFA_XSP16, literal(-14)))
          CFI (cfiCond301) V5 load(1, XDATA, add(CFA_XSP16, literal(-13)))
          CFI (cfiCond301) V6 load(1, XDATA, add(CFA_XSP16, literal(-12)))
          CFI (cfiCond301) V7 load(1, XDATA, add(CFA_XSP16, literal(-11)))
          CFI (cfiCond301) V8 load(1, XDATA, add(CFA_XSP16, literal(-10)))
          CFI (cfiCond301) V9 load(1, XDATA, add(CFA_XSP16, literal(-9)))
          CFI (cfiCond301) V10 load(1, XDATA, add(CFA_XSP16, literal(-8)))
          CFI (cfiCond301) V11 load(1, XDATA, add(CFA_XSP16, literal(-7)))
          CFI (cfiCond301) R7 load(1, XDATA, add(CFA_XSP16, literal(-6)))
          CFI (cfiCond301) ?RET_LOW load(1, XDATA, add(CFA_XSP16, literal(-5)))
          CFI (cfiCond301) ?RET_HIGH load(1, XDATA, add(CFA_XSP16, literal(-4)))
          CFI (cfiCond301) ?BRET_EXT load(1, XDATA, add(CFA_XSP16, literal(-3)))
          CFI (cfiCond301) DPL0 load(1, XDATA, add(CFA_XSP16, literal(-2)))
          CFI (cfiCond301) DPH0 load(1, XDATA, add(CFA_XSP16, literal(-1)))
          CFI (cfiCond301) CFA_SP SP+-2
          CFI (cfiCond301) CFA_XSP16 add(XSP16, 63)
          CFI Block cfiPicker302 Using cfiCommon1
          CFI (cfiPicker302) NoFunction
          CFI (cfiPicker302) Picker
        MOV     DPL,?V2
        MOV     DPH,?V3
        LCALL   ?Subroutine28 & 0xFFFF
??CrossCallReturnLabel_51:
          CFI EndBlock cfiCond296
          CFI EndBlock cfiCond297
          CFI EndBlock cfiCond298
          CFI EndBlock cfiCond299
          CFI EndBlock cfiCond300
          CFI EndBlock cfiCond301
          CFI EndBlock cfiPicker302
        REQUIRE ??Subroutine44_0
        ; // Fall through to label ??Subroutine44_0

        RSEG BANKED_CODE:CODE:NOROOT(0)
??Subroutine44_0:
          CFI Block cfiCond303 Using cfiCommon0
          CFI Function zha_project_ProcessInReadRspCmd
          CFI Conditional ??CrossCallReturnLabel_119
          CFI R6 load(1, XDATA, add(CFA_XSP16, literal(-20)))
          CFI VB load(1, XDATA, add(CFA_XSP16, literal(-19)))
          CFI V0 load(1, XDATA, add(CFA_XSP16, literal(-18)))
          CFI V1 load(1, XDATA, add(CFA_XSP16, literal(-17)))
          CFI V2 load(1, XDATA, add(CFA_XSP16, literal(-16)))
          CFI V3 load(1, XDATA, add(CFA_XSP16, literal(-15)))
          CFI V4 load(1, XDATA, add(CFA_XSP16, literal(-14)))
          CFI V5 load(1, XDATA, add(CFA_XSP16, literal(-13)))
          CFI V6 load(1, XDATA, add(CFA_XSP16, literal(-12)))
          CFI V7 load(1, XDATA, add(CFA_XSP16, literal(-11)))
          CFI V8 load(1, XDATA, add(CFA_XSP16, literal(-10)))
          CFI V9 load(1, XDATA, add(CFA_XSP16, literal(-9)))
          CFI V10 load(1, XDATA, add(CFA_XSP16, literal(-8)))
          CFI V11 load(1, XDATA, add(CFA_XSP16, literal(-7)))
          CFI R7 load(1, XDATA, add(CFA_XSP16, literal(-6)))
          CFI ?RET_LOW load(1, XDATA, add(CFA_XSP16, literal(-5)))
          CFI ?RET_HIGH load(1, XDATA, add(CFA_XSP16, literal(-4)))
          CFI ?BRET_EXT load(1, XDATA, add(CFA_XSP16, literal(-3)))
          CFI DPL0 load(1, XDATA, add(CFA_XSP16, literal(-2)))
          CFI DPH0 load(1, XDATA, add(CFA_XSP16, literal(-1)))
          CFI CFA_SP SP+-2
          CFI CFA_XSP16 add(XSP16, 63)
          CFI Block cfiCond304 Using cfiCommon0
          CFI (cfiCond304) Function zha_project_ProcessInReportCmd
          CFI (cfiCond304) Conditional ??CrossCallReturnLabel_120
          CFI (cfiCond304) R6 load(1, XDATA, add(CFA_XSP16, literal(-20)))
          CFI (cfiCond304) VB load(1, XDATA, add(CFA_XSP16, literal(-19)))
          CFI (cfiCond304) V0 load(1, XDATA, add(CFA_XSP16, literal(-18)))
          CFI (cfiCond304) V1 load(1, XDATA, add(CFA_XSP16, literal(-17)))
          CFI (cfiCond304) V2 load(1, XDATA, add(CFA_XSP16, literal(-16)))
          CFI (cfiCond304) V3 load(1, XDATA, add(CFA_XSP16, literal(-15)))
          CFI (cfiCond304) V4 load(1, XDATA, add(CFA_XSP16, literal(-14)))
          CFI (cfiCond304) V5 load(1, XDATA, add(CFA_XSP16, literal(-13)))
          CFI (cfiCond304) V6 load(1, XDATA, add(CFA_XSP16, literal(-12)))
          CFI (cfiCond304) V7 load(1, XDATA, add(CFA_XSP16, literal(-11)))
          CFI (cfiCond304) V8 load(1, XDATA, add(CFA_XSP16, literal(-10)))
          CFI (cfiCond304) V9 load(1, XDATA, add(CFA_XSP16, literal(-9)))
          CFI (cfiCond304) V10 load(1, XDATA, add(CFA_XSP16, literal(-8)))
          CFI (cfiCond304) V11 load(1, XDATA, add(CFA_XSP16, literal(-7)))
          CFI (cfiCond304) R7 load(1, XDATA, add(CFA_XSP16, literal(-6)))
          CFI (cfiCond304) ?RET_LOW load(1, XDATA, add(CFA_XSP16, literal(-5)))
          CFI (cfiCond304) ?RET_HIGH load(1, XDATA, add(CFA_XSP16, literal(-4)))
          CFI (cfiCond304) ?BRET_EXT load(1, XDATA, add(CFA_XSP16, literal(-3)))
          CFI (cfiCond304) DPL0 load(1, XDATA, add(CFA_XSP16, literal(-2)))
          CFI (cfiCond304) DPH0 load(1, XDATA, add(CFA_XSP16, literal(-1)))
          CFI (cfiCond304) CFA_SP SP+-2
          CFI (cfiCond304) CFA_XSP16 add(XSP16, 63)
          CFI Block cfiCond305 Using cfiCommon0
          CFI (cfiCond305) Function zha_project_ProcessInReadRspCmd
          CFI (cfiCond305) Conditional ??CrossCallReturnLabel_113
          CFI (cfiCond305) R6 load(1, XDATA, add(CFA_XSP16, literal(-20)))
          CFI (cfiCond305) VB load(1, XDATA, add(CFA_XSP16, literal(-19)))
          CFI (cfiCond305) V0 load(1, XDATA, add(CFA_XSP16, literal(-18)))
          CFI (cfiCond305) V1 load(1, XDATA, add(CFA_XSP16, literal(-17)))
          CFI (cfiCond305) V2 load(1, XDATA, add(CFA_XSP16, literal(-16)))
          CFI (cfiCond305) V3 load(1, XDATA, add(CFA_XSP16, literal(-15)))
          CFI (cfiCond305) V4 load(1, XDATA, add(CFA_XSP16, literal(-14)))
          CFI (cfiCond305) V5 load(1, XDATA, add(CFA_XSP16, literal(-13)))
          CFI (cfiCond305) V6 load(1, XDATA, add(CFA_XSP16, literal(-12)))
          CFI (cfiCond305) V7 load(1, XDATA, add(CFA_XSP16, literal(-11)))
          CFI (cfiCond305) V8 load(1, XDATA, add(CFA_XSP16, literal(-10)))
          CFI (cfiCond305) V9 load(1, XDATA, add(CFA_XSP16, literal(-9)))
          CFI (cfiCond305) V10 load(1, XDATA, add(CFA_XSP16, literal(-8)))
          CFI (cfiCond305) V11 load(1, XDATA, add(CFA_XSP16, literal(-7)))
          CFI (cfiCond305) R7 load(1, XDATA, add(CFA_XSP16, literal(-6)))
          CFI (cfiCond305) ?RET_LOW load(1, XDATA, add(CFA_XSP16, literal(-5)))
          CFI (cfiCond305) ?RET_HIGH load(1, XDATA, add(CFA_XSP16, literal(-4)))
          CFI (cfiCond305) ?BRET_EXT load(1, XDATA, add(CFA_XSP16, literal(-3)))
          CFI (cfiCond305) DPL0 load(1, XDATA, add(CFA_XSP16, literal(-2)))
          CFI (cfiCond305) DPH0 load(1, XDATA, add(CFA_XSP16, literal(-1)))
          CFI (cfiCond305) CFA_SP SP+-2
          CFI (cfiCond305) CFA_XSP16 add(XSP16, 63)
          CFI Block cfiCond306 Using cfiCommon0
          CFI (cfiCond306) Function zha_project_ProcessInReadRspCmd
          CFI (cfiCond306) Conditional ??CrossCallReturnLabel_114
          CFI (cfiCond306) R6 load(1, XDATA, add(CFA_XSP16, literal(-20)))
          CFI (cfiCond306) VB load(1, XDATA, add(CFA_XSP16, literal(-19)))
          CFI (cfiCond306) V0 load(1, XDATA, add(CFA_XSP16, literal(-18)))
          CFI (cfiCond306) V1 load(1, XDATA, add(CFA_XSP16, literal(-17)))
          CFI (cfiCond306) V2 load(1, XDATA, add(CFA_XSP16, literal(-16)))
          CFI (cfiCond306) V3 load(1, XDATA, add(CFA_XSP16, literal(-15)))
          CFI (cfiCond306) V4 load(1, XDATA, add(CFA_XSP16, literal(-14)))
          CFI (cfiCond306) V5 load(1, XDATA, add(CFA_XSP16, literal(-13)))
          CFI (cfiCond306) V6 load(1, XDATA, add(CFA_XSP16, literal(-12)))
          CFI (cfiCond306) V7 load(1, XDATA, add(CFA_XSP16, literal(-11)))
          CFI (cfiCond306) V8 load(1, XDATA, add(CFA_XSP16, literal(-10)))
          CFI (cfiCond306) V9 load(1, XDATA, add(CFA_XSP16, literal(-9)))
          CFI (cfiCond306) V10 load(1, XDATA, add(CFA_XSP16, literal(-8)))
          CFI (cfiCond306) V11 load(1, XDATA, add(CFA_XSP16, literal(-7)))
          CFI (cfiCond306) R7 load(1, XDATA, add(CFA_XSP16, literal(-6)))
          CFI (cfiCond306) ?RET_LOW load(1, XDATA, add(CFA_XSP16, literal(-5)))
          CFI (cfiCond306) ?RET_HIGH load(1, XDATA, add(CFA_XSP16, literal(-4)))
          CFI (cfiCond306) ?BRET_EXT load(1, XDATA, add(CFA_XSP16, literal(-3)))
          CFI (cfiCond306) DPL0 load(1, XDATA, add(CFA_XSP16, literal(-2)))
          CFI (cfiCond306) DPH0 load(1, XDATA, add(CFA_XSP16, literal(-1)))
          CFI (cfiCond306) CFA_SP SP+-2
          CFI (cfiCond306) CFA_XSP16 add(XSP16, 63)
          CFI Block cfiCond307 Using cfiCommon0
          CFI (cfiCond307) Function zha_project_ProcessInReadRspCmd
          CFI (cfiCond307) Conditional ??CrossCallReturnLabel_115
          CFI (cfiCond307) R6 load(1, XDATA, add(CFA_XSP16, literal(-20)))
          CFI (cfiCond307) VB load(1, XDATA, add(CFA_XSP16, literal(-19)))
          CFI (cfiCond307) V0 load(1, XDATA, add(CFA_XSP16, literal(-18)))
          CFI (cfiCond307) V1 load(1, XDATA, add(CFA_XSP16, literal(-17)))
          CFI (cfiCond307) V2 load(1, XDATA, add(CFA_XSP16, literal(-16)))
          CFI (cfiCond307) V3 load(1, XDATA, add(CFA_XSP16, literal(-15)))
          CFI (cfiCond307) V4 load(1, XDATA, add(CFA_XSP16, literal(-14)))
          CFI (cfiCond307) V5 load(1, XDATA, add(CFA_XSP16, literal(-13)))
          CFI (cfiCond307) V6 load(1, XDATA, add(CFA_XSP16, literal(-12)))
          CFI (cfiCond307) V7 load(1, XDATA, add(CFA_XSP16, literal(-11)))
          CFI (cfiCond307) V8 load(1, XDATA, add(CFA_XSP16, literal(-10)))
          CFI (cfiCond307) V9 load(1, XDATA, add(CFA_XSP16, literal(-9)))
          CFI (cfiCond307) V10 load(1, XDATA, add(CFA_XSP16, literal(-8)))
          CFI (cfiCond307) V11 load(1, XDATA, add(CFA_XSP16, literal(-7)))
          CFI (cfiCond307) R7 load(1, XDATA, add(CFA_XSP16, literal(-6)))
          CFI (cfiCond307) ?RET_LOW load(1, XDATA, add(CFA_XSP16, literal(-5)))
          CFI (cfiCond307) ?RET_HIGH load(1, XDATA, add(CFA_XSP16, literal(-4)))
          CFI (cfiCond307) ?BRET_EXT load(1, XDATA, add(CFA_XSP16, literal(-3)))
          CFI (cfiCond307) DPL0 load(1, XDATA, add(CFA_XSP16, literal(-2)))
          CFI (cfiCond307) DPH0 load(1, XDATA, add(CFA_XSP16, literal(-1)))
          CFI (cfiCond307) CFA_SP SP+-2
          CFI (cfiCond307) CFA_XSP16 add(XSP16, 63)
          CFI Block cfiCond308 Using cfiCommon0
          CFI (cfiCond308) Function zha_project_ProcessInReportCmd
          CFI (cfiCond308) Conditional ??CrossCallReturnLabel_116
          CFI (cfiCond308) R6 load(1, XDATA, add(CFA_XSP16, literal(-20)))
          CFI (cfiCond308) VB load(1, XDATA, add(CFA_XSP16, literal(-19)))
          CFI (cfiCond308) V0 load(1, XDATA, add(CFA_XSP16, literal(-18)))
          CFI (cfiCond308) V1 load(1, XDATA, add(CFA_XSP16, literal(-17)))
          CFI (cfiCond308) V2 load(1, XDATA, add(CFA_XSP16, literal(-16)))
          CFI (cfiCond308) V3 load(1, XDATA, add(CFA_XSP16, literal(-15)))
          CFI (cfiCond308) V4 load(1, XDATA, add(CFA_XSP16, literal(-14)))
          CFI (cfiCond308) V5 load(1, XDATA, add(CFA_XSP16, literal(-13)))
          CFI (cfiCond308) V6 load(1, XDATA, add(CFA_XSP16, literal(-12)))
          CFI (cfiCond308) V7 load(1, XDATA, add(CFA_XSP16, literal(-11)))
          CFI (cfiCond308) V8 load(1, XDATA, add(CFA_XSP16, literal(-10)))
          CFI (cfiCond308) V9 load(1, XDATA, add(CFA_XSP16, literal(-9)))
          CFI (cfiCond308) V10 load(1, XDATA, add(CFA_XSP16, literal(-8)))
          CFI (cfiCond308) V11 load(1, XDATA, add(CFA_XSP16, literal(-7)))
          CFI (cfiCond308) R7 load(1, XDATA, add(CFA_XSP16, literal(-6)))
          CFI (cfiCond308) ?RET_LOW load(1, XDATA, add(CFA_XSP16, literal(-5)))
          CFI (cfiCond308) ?RET_HIGH load(1, XDATA, add(CFA_XSP16, literal(-4)))
          CFI (cfiCond308) ?BRET_EXT load(1, XDATA, add(CFA_XSP16, literal(-3)))
          CFI (cfiCond308) DPL0 load(1, XDATA, add(CFA_XSP16, literal(-2)))
          CFI (cfiCond308) DPH0 load(1, XDATA, add(CFA_XSP16, literal(-1)))
          CFI (cfiCond308) CFA_SP SP+-2
          CFI (cfiCond308) CFA_XSP16 add(XSP16, 63)
          CFI Block cfiCond309 Using cfiCommon0
          CFI (cfiCond309) Function zha_project_ProcessInReportCmd
          CFI (cfiCond309) Conditional ??CrossCallReturnLabel_117
          CFI (cfiCond309) R6 load(1, XDATA, add(CFA_XSP16, literal(-20)))
          CFI (cfiCond309) VB load(1, XDATA, add(CFA_XSP16, literal(-19)))
          CFI (cfiCond309) V0 load(1, XDATA, add(CFA_XSP16, literal(-18)))
          CFI (cfiCond309) V1 load(1, XDATA, add(CFA_XSP16, literal(-17)))
          CFI (cfiCond309) V2 load(1, XDATA, add(CFA_XSP16, literal(-16)))
          CFI (cfiCond309) V3 load(1, XDATA, add(CFA_XSP16, literal(-15)))
          CFI (cfiCond309) V4 load(1, XDATA, add(CFA_XSP16, literal(-14)))
          CFI (cfiCond309) V5 load(1, XDATA, add(CFA_XSP16, literal(-13)))
          CFI (cfiCond309) V6 load(1, XDATA, add(CFA_XSP16, literal(-12)))
          CFI (cfiCond309) V7 load(1, XDATA, add(CFA_XSP16, literal(-11)))
          CFI (cfiCond309) V8 load(1, XDATA, add(CFA_XSP16, literal(-10)))
          CFI (cfiCond309) V9 load(1, XDATA, add(CFA_XSP16, literal(-9)))
          CFI (cfiCond309) V10 load(1, XDATA, add(CFA_XSP16, literal(-8)))
          CFI (cfiCond309) V11 load(1, XDATA, add(CFA_XSP16, literal(-7)))
          CFI (cfiCond309) R7 load(1, XDATA, add(CFA_XSP16, literal(-6)))
          CFI (cfiCond309) ?RET_LOW load(1, XDATA, add(CFA_XSP16, literal(-5)))
          CFI (cfiCond309) ?RET_HIGH load(1, XDATA, add(CFA_XSP16, literal(-4)))
          CFI (cfiCond309) ?BRET_EXT load(1, XDATA, add(CFA_XSP16, literal(-3)))
          CFI (cfiCond309) DPL0 load(1, XDATA, add(CFA_XSP16, literal(-2)))
          CFI (cfiCond309) DPH0 load(1, XDATA, add(CFA_XSP16, literal(-1)))
          CFI (cfiCond309) CFA_SP SP+-2
          CFI (cfiCond309) CFA_XSP16 add(XSP16, 63)
          CFI Block cfiCond310 Using cfiCommon0
          CFI (cfiCond310) Function zha_project_ProcessInReportCmd
          CFI (cfiCond310) Conditional ??CrossCallReturnLabel_118
          CFI (cfiCond310) R6 load(1, XDATA, add(CFA_XSP16, literal(-20)))
          CFI (cfiCond310) VB load(1, XDATA, add(CFA_XSP16, literal(-19)))
          CFI (cfiCond310) V0 load(1, XDATA, add(CFA_XSP16, literal(-18)))
          CFI (cfiCond310) V1 load(1, XDATA, add(CFA_XSP16, literal(-17)))
          CFI (cfiCond310) V2 load(1, XDATA, add(CFA_XSP16, literal(-16)))
          CFI (cfiCond310) V3 load(1, XDATA, add(CFA_XSP16, literal(-15)))
          CFI (cfiCond310) V4 load(1, XDATA, add(CFA_XSP16, literal(-14)))
          CFI (cfiCond310) V5 load(1, XDATA, add(CFA_XSP16, literal(-13)))
          CFI (cfiCond310) V6 load(1, XDATA, add(CFA_XSP16, literal(-12)))
          CFI (cfiCond310) V7 load(1, XDATA, add(CFA_XSP16, literal(-11)))
          CFI (cfiCond310) V8 load(1, XDATA, add(CFA_XSP16, literal(-10)))
          CFI (cfiCond310) V9 load(1, XDATA, add(CFA_XSP16, literal(-9)))
          CFI (cfiCond310) V10 load(1, XDATA, add(CFA_XSP16, literal(-8)))
          CFI (cfiCond310) V11 load(1, XDATA, add(CFA_XSP16, literal(-7)))
          CFI (cfiCond310) R7 load(1, XDATA, add(CFA_XSP16, literal(-6)))
          CFI (cfiCond310) ?RET_LOW load(1, XDATA, add(CFA_XSP16, literal(-5)))
          CFI (cfiCond310) ?RET_HIGH load(1, XDATA, add(CFA_XSP16, literal(-4)))
          CFI (cfiCond310) ?BRET_EXT load(1, XDATA, add(CFA_XSP16, literal(-3)))
          CFI (cfiCond310) DPL0 load(1, XDATA, add(CFA_XSP16, literal(-2)))
          CFI (cfiCond310) DPH0 load(1, XDATA, add(CFA_XSP16, literal(-1)))
          CFI (cfiCond310) CFA_SP SP+-2
          CFI (cfiCond310) CFA_XSP16 add(XSP16, 63)
          CFI Block cfiPicker311 Using cfiCommon1
          CFI (cfiPicker311) NoFunction
          CFI (cfiPicker311) Picker
        MOV     A,R0
        MOVX    @DPTR,A
        INC     DPTR
        MOV     A,R1
          CFI EndBlock cfiCond303
          CFI EndBlock cfiCond304
          CFI EndBlock cfiCond305
          CFI EndBlock cfiCond306
          CFI EndBlock cfiCond307
          CFI EndBlock cfiCond308
          CFI EndBlock cfiCond309
          CFI EndBlock cfiCond310
          CFI EndBlock cfiPicker311
        REQUIRE ??Subroutine45_0
        ; // Fall through to label ??Subroutine45_0

        RSEG BANKED_CODE:CODE:NOROOT(0)
??Subroutine45_0:
          CFI Block cfiCond312 Using cfiCommon0
          CFI Function zha_project_ProcessInReadRspCmd
          CFI Conditional ??CrossCallReturnLabel_121
          CFI R6 load(1, XDATA, add(CFA_XSP16, literal(-20)))
          CFI VB load(1, XDATA, add(CFA_XSP16, literal(-19)))
          CFI V0 load(1, XDATA, add(CFA_XSP16, literal(-18)))
          CFI V1 load(1, XDATA, add(CFA_XSP16, literal(-17)))
          CFI V2 load(1, XDATA, add(CFA_XSP16, literal(-16)))
          CFI V3 load(1, XDATA, add(CFA_XSP16, literal(-15)))
          CFI V4 load(1, XDATA, add(CFA_XSP16, literal(-14)))
          CFI V5 load(1, XDATA, add(CFA_XSP16, literal(-13)))
          CFI V6 load(1, XDATA, add(CFA_XSP16, literal(-12)))
          CFI V7 load(1, XDATA, add(CFA_XSP16, literal(-11)))
          CFI V8 load(1, XDATA, add(CFA_XSP16, literal(-10)))
          CFI V9 load(1, XDATA, add(CFA_XSP16, literal(-9)))
          CFI V10 load(1, XDATA, add(CFA_XSP16, literal(-8)))
          CFI V11 load(1, XDATA, add(CFA_XSP16, literal(-7)))
          CFI R7 load(1, XDATA, add(CFA_XSP16, literal(-6)))
          CFI ?RET_LOW load(1, XDATA, add(CFA_XSP16, literal(-5)))
          CFI ?RET_HIGH load(1, XDATA, add(CFA_XSP16, literal(-4)))
          CFI ?BRET_EXT load(1, XDATA, add(CFA_XSP16, literal(-3)))
          CFI DPL0 load(1, XDATA, add(CFA_XSP16, literal(-2)))
          CFI DPH0 load(1, XDATA, add(CFA_XSP16, literal(-1)))
          CFI CFA_SP SP+-2
          CFI CFA_XSP16 add(XSP16, 63)
          CFI Block cfiCond313 Using cfiCommon0
          CFI (cfiCond313) Function zha_project_ProcessInReadRspCmd
          CFI (cfiCond313) Conditional ??CrossCallReturnLabel_122
          CFI (cfiCond313) R6 load(1, XDATA, add(CFA_XSP16, literal(-20)))
          CFI (cfiCond313) VB load(1, XDATA, add(CFA_XSP16, literal(-19)))
          CFI (cfiCond313) V0 load(1, XDATA, add(CFA_XSP16, literal(-18)))
          CFI (cfiCond313) V1 load(1, XDATA, add(CFA_XSP16, literal(-17)))
          CFI (cfiCond313) V2 load(1, XDATA, add(CFA_XSP16, literal(-16)))
          CFI (cfiCond313) V3 load(1, XDATA, add(CFA_XSP16, literal(-15)))
          CFI (cfiCond313) V4 load(1, XDATA, add(CFA_XSP16, literal(-14)))
          CFI (cfiCond313) V5 load(1, XDATA, add(CFA_XSP16, literal(-13)))
          CFI (cfiCond313) V6 load(1, XDATA, add(CFA_XSP16, literal(-12)))
          CFI (cfiCond313) V7 load(1, XDATA, add(CFA_XSP16, literal(-11)))
          CFI (cfiCond313) V8 load(1, XDATA, add(CFA_XSP16, literal(-10)))
          CFI (cfiCond313) V9 load(1, XDATA, add(CFA_XSP16, literal(-9)))
          CFI (cfiCond313) V10 load(1, XDATA, add(CFA_XSP16, literal(-8)))
          CFI (cfiCond313) V11 load(1, XDATA, add(CFA_XSP16, literal(-7)))
          CFI (cfiCond313) R7 load(1, XDATA, add(CFA_XSP16, literal(-6)))
          CFI (cfiCond313) ?RET_LOW load(1, XDATA, add(CFA_XSP16, literal(-5)))
          CFI (cfiCond313) ?RET_HIGH load(1, XDATA, add(CFA_XSP16, literal(-4)))
          CFI (cfiCond313) ?BRET_EXT load(1, XDATA, add(CFA_XSP16, literal(-3)))
          CFI (cfiCond313) DPL0 load(1, XDATA, add(CFA_XSP16, literal(-2)))
          CFI (cfiCond313) DPH0 load(1, XDATA, add(CFA_XSP16, literal(-1)))
          CFI (cfiCond313) CFA_SP SP+-2
          CFI (cfiCond313) CFA_XSP16 add(XSP16, 63)
          CFI Block cfiCond314 Using cfiCommon0
          CFI (cfiCond314) Function zha_project_ProcessInReportCmd
          CFI (cfiCond314) Conditional ??CrossCallReturnLabel_123
          CFI (cfiCond314) R6 load(1, XDATA, add(CFA_XSP16, literal(-20)))
          CFI (cfiCond314) VB load(1, XDATA, add(CFA_XSP16, literal(-19)))
          CFI (cfiCond314) V0 load(1, XDATA, add(CFA_XSP16, literal(-18)))
          CFI (cfiCond314) V1 load(1, XDATA, add(CFA_XSP16, literal(-17)))
          CFI (cfiCond314) V2 load(1, XDATA, add(CFA_XSP16, literal(-16)))
          CFI (cfiCond314) V3 load(1, XDATA, add(CFA_XSP16, literal(-15)))
          CFI (cfiCond314) V4 load(1, XDATA, add(CFA_XSP16, literal(-14)))
          CFI (cfiCond314) V5 load(1, XDATA, add(CFA_XSP16, literal(-13)))
          CFI (cfiCond314) V6 load(1, XDATA, add(CFA_XSP16, literal(-12)))
          CFI (cfiCond314) V7 load(1, XDATA, add(CFA_XSP16, literal(-11)))
          CFI (cfiCond314) V8 load(1, XDATA, add(CFA_XSP16, literal(-10)))
          CFI (cfiCond314) V9 load(1, XDATA, add(CFA_XSP16, literal(-9)))
          CFI (cfiCond314) V10 load(1, XDATA, add(CFA_XSP16, literal(-8)))
          CFI (cfiCond314) V11 load(1, XDATA, add(CFA_XSP16, literal(-7)))
          CFI (cfiCond314) R7 load(1, XDATA, add(CFA_XSP16, literal(-6)))
          CFI (cfiCond314) ?RET_LOW load(1, XDATA, add(CFA_XSP16, literal(-5)))
          CFI (cfiCond314) ?RET_HIGH load(1, XDATA, add(CFA_XSP16, literal(-4)))
          CFI (cfiCond314) ?BRET_EXT load(1, XDATA, add(CFA_XSP16, literal(-3)))
          CFI (cfiCond314) DPL0 load(1, XDATA, add(CFA_XSP16, literal(-2)))
          CFI (cfiCond314) DPH0 load(1, XDATA, add(CFA_XSP16, literal(-1)))
          CFI (cfiCond314) CFA_SP SP+-2
          CFI (cfiCond314) CFA_XSP16 add(XSP16, 63)
          CFI Block cfiCond315 Using cfiCommon0
          CFI (cfiCond315) Function zha_project_ProcessInReportCmd
          CFI (cfiCond315) Conditional ??CrossCallReturnLabel_124
          CFI (cfiCond315) R6 load(1, XDATA, add(CFA_XSP16, literal(-20)))
          CFI (cfiCond315) VB load(1, XDATA, add(CFA_XSP16, literal(-19)))
          CFI (cfiCond315) V0 load(1, XDATA, add(CFA_XSP16, literal(-18)))
          CFI (cfiCond315) V1 load(1, XDATA, add(CFA_XSP16, literal(-17)))
          CFI (cfiCond315) V2 load(1, XDATA, add(CFA_XSP16, literal(-16)))
          CFI (cfiCond315) V3 load(1, XDATA, add(CFA_XSP16, literal(-15)))
          CFI (cfiCond315) V4 load(1, XDATA, add(CFA_XSP16, literal(-14)))
          CFI (cfiCond315) V5 load(1, XDATA, add(CFA_XSP16, literal(-13)))
          CFI (cfiCond315) V6 load(1, XDATA, add(CFA_XSP16, literal(-12)))
          CFI (cfiCond315) V7 load(1, XDATA, add(CFA_XSP16, literal(-11)))
          CFI (cfiCond315) V8 load(1, XDATA, add(CFA_XSP16, literal(-10)))
          CFI (cfiCond315) V9 load(1, XDATA, add(CFA_XSP16, literal(-9)))
          CFI (cfiCond315) V10 load(1, XDATA, add(CFA_XSP16, literal(-8)))
          CFI (cfiCond315) V11 load(1, XDATA, add(CFA_XSP16, literal(-7)))
          CFI (cfiCond315) R7 load(1, XDATA, add(CFA_XSP16, literal(-6)))
          CFI (cfiCond315) ?RET_LOW load(1, XDATA, add(CFA_XSP16, literal(-5)))
          CFI (cfiCond315) ?RET_HIGH load(1, XDATA, add(CFA_XSP16, literal(-4)))
          CFI (cfiCond315) ?BRET_EXT load(1, XDATA, add(CFA_XSP16, literal(-3)))
          CFI (cfiCond315) DPL0 load(1, XDATA, add(CFA_XSP16, literal(-2)))
          CFI (cfiCond315) DPH0 load(1, XDATA, add(CFA_XSP16, literal(-1)))
          CFI (cfiCond315) CFA_SP SP+-2
          CFI (cfiCond315) CFA_XSP16 add(XSP16, 63)
          CFI Block cfiCond316 Using cfiCommon0
          CFI (cfiCond316) Function zha_project_ProcessInReadRspCmd
          CFI (cfiCond316) Conditional ??CrossCallReturnLabel_119
          CFI (cfiCond316) R6 load(1, XDATA, add(CFA_XSP16, literal(-20)))
          CFI (cfiCond316) VB load(1, XDATA, add(CFA_XSP16, literal(-19)))
          CFI (cfiCond316) V0 load(1, XDATA, add(CFA_XSP16, literal(-18)))
          CFI (cfiCond316) V1 load(1, XDATA, add(CFA_XSP16, literal(-17)))
          CFI (cfiCond316) V2 load(1, XDATA, add(CFA_XSP16, literal(-16)))
          CFI (cfiCond316) V3 load(1, XDATA, add(CFA_XSP16, literal(-15)))
          CFI (cfiCond316) V4 load(1, XDATA, add(CFA_XSP16, literal(-14)))
          CFI (cfiCond316) V5 load(1, XDATA, add(CFA_XSP16, literal(-13)))
          CFI (cfiCond316) V6 load(1, XDATA, add(CFA_XSP16, literal(-12)))
          CFI (cfiCond316) V7 load(1, XDATA, add(CFA_XSP16, literal(-11)))
          CFI (cfiCond316) V8 load(1, XDATA, add(CFA_XSP16, literal(-10)))
          CFI (cfiCond316) V9 load(1, XDATA, add(CFA_XSP16, literal(-9)))
          CFI (cfiCond316) V10 load(1, XDATA, add(CFA_XSP16, literal(-8)))
          CFI (cfiCond316) V11 load(1, XDATA, add(CFA_XSP16, literal(-7)))
          CFI (cfiCond316) R7 load(1, XDATA, add(CFA_XSP16, literal(-6)))
          CFI (cfiCond316) ?RET_LOW load(1, XDATA, add(CFA_XSP16, literal(-5)))
          CFI (cfiCond316) ?RET_HIGH load(1, XDATA, add(CFA_XSP16, literal(-4)))
          CFI (cfiCond316) ?BRET_EXT load(1, XDATA, add(CFA_XSP16, literal(-3)))
          CFI (cfiCond316) DPL0 load(1, XDATA, add(CFA_XSP16, literal(-2)))
          CFI (cfiCond316) DPH0 load(1, XDATA, add(CFA_XSP16, literal(-1)))
          CFI (cfiCond316) CFA_SP SP+-2
          CFI (cfiCond316) CFA_XSP16 add(XSP16, 63)
          CFI Block cfiCond317 Using cfiCommon0
          CFI (cfiCond317) Function zha_project_ProcessInReportCmd
          CFI (cfiCond317) Conditional ??CrossCallReturnLabel_120
          CFI (cfiCond317) R6 load(1, XDATA, add(CFA_XSP16, literal(-20)))
          CFI (cfiCond317) VB load(1, XDATA, add(CFA_XSP16, literal(-19)))
          CFI (cfiCond317) V0 load(1, XDATA, add(CFA_XSP16, literal(-18)))
          CFI (cfiCond317) V1 load(1, XDATA, add(CFA_XSP16, literal(-17)))
          CFI (cfiCond317) V2 load(1, XDATA, add(CFA_XSP16, literal(-16)))
          CFI (cfiCond317) V3 load(1, XDATA, add(CFA_XSP16, literal(-15)))
          CFI (cfiCond317) V4 load(1, XDATA, add(CFA_XSP16, literal(-14)))
          CFI (cfiCond317) V5 load(1, XDATA, add(CFA_XSP16, literal(-13)))
          CFI (cfiCond317) V6 load(1, XDATA, add(CFA_XSP16, literal(-12)))
          CFI (cfiCond317) V7 load(1, XDATA, add(CFA_XSP16, literal(-11)))
          CFI (cfiCond317) V8 load(1, XDATA, add(CFA_XSP16, literal(-10)))
          CFI (cfiCond317) V9 load(1, XDATA, add(CFA_XSP16, literal(-9)))
          CFI (cfiCond317) V10 load(1, XDATA, add(CFA_XSP16, literal(-8)))
          CFI (cfiCond317) V11 load(1, XDATA, add(CFA_XSP16, literal(-7)))
          CFI (cfiCond317) R7 load(1, XDATA, add(CFA_XSP16, literal(-6)))
          CFI (cfiCond317) ?RET_LOW load(1, XDATA, add(CFA_XSP16, literal(-5)))
          CFI (cfiCond317) ?RET_HIGH load(1, XDATA, add(CFA_XSP16, literal(-4)))
          CFI (cfiCond317) ?BRET_EXT load(1, XDATA, add(CFA_XSP16, literal(-3)))
          CFI (cfiCond317) DPL0 load(1, XDATA, add(CFA_XSP16, literal(-2)))
          CFI (cfiCond317) DPH0 load(1, XDATA, add(CFA_XSP16, literal(-1)))
          CFI (cfiCond317) CFA_SP SP+-2
          CFI (cfiCond317) CFA_XSP16 add(XSP16, 63)
          CFI Block cfiCond318 Using cfiCommon0
          CFI (cfiCond318) Function zha_project_ProcessInReadRspCmd
          CFI (cfiCond318) Conditional ??CrossCallReturnLabel_113
          CFI (cfiCond318) R6 load(1, XDATA, add(CFA_XSP16, literal(-20)))
          CFI (cfiCond318) VB load(1, XDATA, add(CFA_XSP16, literal(-19)))
          CFI (cfiCond318) V0 load(1, XDATA, add(CFA_XSP16, literal(-18)))
          CFI (cfiCond318) V1 load(1, XDATA, add(CFA_XSP16, literal(-17)))
          CFI (cfiCond318) V2 load(1, XDATA, add(CFA_XSP16, literal(-16)))
          CFI (cfiCond318) V3 load(1, XDATA, add(CFA_XSP16, literal(-15)))
          CFI (cfiCond318) V4 load(1, XDATA, add(CFA_XSP16, literal(-14)))
          CFI (cfiCond318) V5 load(1, XDATA, add(CFA_XSP16, literal(-13)))
          CFI (cfiCond318) V6 load(1, XDATA, add(CFA_XSP16, literal(-12)))
          CFI (cfiCond318) V7 load(1, XDATA, add(CFA_XSP16, literal(-11)))
          CFI (cfiCond318) V8 load(1, XDATA, add(CFA_XSP16, literal(-10)))
          CFI (cfiCond318) V9 load(1, XDATA, add(CFA_XSP16, literal(-9)))
          CFI (cfiCond318) V10 load(1, XDATA, add(CFA_XSP16, literal(-8)))
          CFI (cfiCond318) V11 load(1, XDATA, add(CFA_XSP16, literal(-7)))
          CFI (cfiCond318) R7 load(1, XDATA, add(CFA_XSP16, literal(-6)))
          CFI (cfiCond318) ?RET_LOW load(1, XDATA, add(CFA_XSP16, literal(-5)))
          CFI (cfiCond318) ?RET_HIGH load(1, XDATA, add(CFA_XSP16, literal(-4)))
          CFI (cfiCond318) ?BRET_EXT load(1, XDATA, add(CFA_XSP16, literal(-3)))
          CFI (cfiCond318) DPL0 load(1, XDATA, add(CFA_XSP16, literal(-2)))
          CFI (cfiCond318) DPH0 load(1, XDATA, add(CFA_XSP16, literal(-1)))
          CFI (cfiCond318) CFA_SP SP+-2
          CFI (cfiCond318) CFA_XSP16 add(XSP16, 63)
          CFI Block cfiCond319 Using cfiCommon0
          CFI (cfiCond319) Function zha_project_ProcessInReadRspCmd
          CFI (cfiCond319) Conditional ??CrossCallReturnLabel_114
          CFI (cfiCond319) R6 load(1, XDATA, add(CFA_XSP16, literal(-20)))
          CFI (cfiCond319) VB load(1, XDATA, add(CFA_XSP16, literal(-19)))
          CFI (cfiCond319) V0 load(1, XDATA, add(CFA_XSP16, literal(-18)))
          CFI (cfiCond319) V1 load(1, XDATA, add(CFA_XSP16, literal(-17)))
          CFI (cfiCond319) V2 load(1, XDATA, add(CFA_XSP16, literal(-16)))
          CFI (cfiCond319) V3 load(1, XDATA, add(CFA_XSP16, literal(-15)))
          CFI (cfiCond319) V4 load(1, XDATA, add(CFA_XSP16, literal(-14)))
          CFI (cfiCond319) V5 load(1, XDATA, add(CFA_XSP16, literal(-13)))
          CFI (cfiCond319) V6 load(1, XDATA, add(CFA_XSP16, literal(-12)))
          CFI (cfiCond319) V7 load(1, XDATA, add(CFA_XSP16, literal(-11)))
          CFI (cfiCond319) V8 load(1, XDATA, add(CFA_XSP16, literal(-10)))
          CFI (cfiCond319) V9 load(1, XDATA, add(CFA_XSP16, literal(-9)))
          CFI (cfiCond319) V10 load(1, XDATA, add(CFA_XSP16, literal(-8)))
          CFI (cfiCond319) V11 load(1, XDATA, add(CFA_XSP16, literal(-7)))
          CFI (cfiCond319) R7 load(1, XDATA, add(CFA_XSP16, literal(-6)))
          CFI (cfiCond319) ?RET_LOW load(1, XDATA, add(CFA_XSP16, literal(-5)))
          CFI (cfiCond319) ?RET_HIGH load(1, XDATA, add(CFA_XSP16, literal(-4)))
          CFI (cfiCond319) ?BRET_EXT load(1, XDATA, add(CFA_XSP16, literal(-3)))
          CFI (cfiCond319) DPL0 load(1, XDATA, add(CFA_XSP16, literal(-2)))
          CFI (cfiCond319) DPH0 load(1, XDATA, add(CFA_XSP16, literal(-1)))
          CFI (cfiCond319) CFA_SP SP+-2
          CFI (cfiCond319) CFA_XSP16 add(XSP16, 63)
          CFI Block cfiCond320 Using cfiCommon0
          CFI (cfiCond320) Function zha_project_ProcessInReadRspCmd
          CFI (cfiCond320) Conditional ??CrossCallReturnLabel_115
          CFI (cfiCond320) R6 load(1, XDATA, add(CFA_XSP16, literal(-20)))
          CFI (cfiCond320) VB load(1, XDATA, add(CFA_XSP16, literal(-19)))
          CFI (cfiCond320) V0 load(1, XDATA, add(CFA_XSP16, literal(-18)))
          CFI (cfiCond320) V1 load(1, XDATA, add(CFA_XSP16, literal(-17)))
          CFI (cfiCond320) V2 load(1, XDATA, add(CFA_XSP16, literal(-16)))
          CFI (cfiCond320) V3 load(1, XDATA, add(CFA_XSP16, literal(-15)))
          CFI (cfiCond320) V4 load(1, XDATA, add(CFA_XSP16, literal(-14)))
          CFI (cfiCond320) V5 load(1, XDATA, add(CFA_XSP16, literal(-13)))
          CFI (cfiCond320) V6 load(1, XDATA, add(CFA_XSP16, literal(-12)))
          CFI (cfiCond320) V7 load(1, XDATA, add(CFA_XSP16, literal(-11)))
          CFI (cfiCond320) V8 load(1, XDATA, add(CFA_XSP16, literal(-10)))
          CFI (cfiCond320) V9 load(1, XDATA, add(CFA_XSP16, literal(-9)))
          CFI (cfiCond320) V10 load(1, XDATA, add(CFA_XSP16, literal(-8)))
          CFI (cfiCond320) V11 load(1, XDATA, add(CFA_XSP16, literal(-7)))
          CFI (cfiCond320) R7 load(1, XDATA, add(CFA_XSP16, literal(-6)))
          CFI (cfiCond320) ?RET_LOW load(1, XDATA, add(CFA_XSP16, literal(-5)))
          CFI (cfiCond320) ?RET_HIGH load(1, XDATA, add(CFA_XSP16, literal(-4)))
          CFI (cfiCond320) ?BRET_EXT load(1, XDATA, add(CFA_XSP16, literal(-3)))
          CFI (cfiCond320) DPL0 load(1, XDATA, add(CFA_XSP16, literal(-2)))
          CFI (cfiCond320) DPH0 load(1, XDATA, add(CFA_XSP16, literal(-1)))
          CFI (cfiCond320) CFA_SP SP+-2
          CFI (cfiCond320) CFA_XSP16 add(XSP16, 63)
          CFI Block cfiCond321 Using cfiCommon0
          CFI (cfiCond321) Function zha_project_ProcessInReportCmd
          CFI (cfiCond321) Conditional ??CrossCallReturnLabel_116
          CFI (cfiCond321) R6 load(1, XDATA, add(CFA_XSP16, literal(-20)))
          CFI (cfiCond321) VB load(1, XDATA, add(CFA_XSP16, literal(-19)))
          CFI (cfiCond321) V0 load(1, XDATA, add(CFA_XSP16, literal(-18)))
          CFI (cfiCond321) V1 load(1, XDATA, add(CFA_XSP16, literal(-17)))
          CFI (cfiCond321) V2 load(1, XDATA, add(CFA_XSP16, literal(-16)))
          CFI (cfiCond321) V3 load(1, XDATA, add(CFA_XSP16, literal(-15)))
          CFI (cfiCond321) V4 load(1, XDATA, add(CFA_XSP16, literal(-14)))
          CFI (cfiCond321) V5 load(1, XDATA, add(CFA_XSP16, literal(-13)))
          CFI (cfiCond321) V6 load(1, XDATA, add(CFA_XSP16, literal(-12)))
          CFI (cfiCond321) V7 load(1, XDATA, add(CFA_XSP16, literal(-11)))
          CFI (cfiCond321) V8 load(1, XDATA, add(CFA_XSP16, literal(-10)))
          CFI (cfiCond321) V9 load(1, XDATA, add(CFA_XSP16, literal(-9)))
          CFI (cfiCond321) V10 load(1, XDATA, add(CFA_XSP16, literal(-8)))
          CFI (cfiCond321) V11 load(1, XDATA, add(CFA_XSP16, literal(-7)))
          CFI (cfiCond321) R7 load(1, XDATA, add(CFA_XSP16, literal(-6)))
          CFI (cfiCond321) ?RET_LOW load(1, XDATA, add(CFA_XSP16, literal(-5)))
          CFI (cfiCond321) ?RET_HIGH load(1, XDATA, add(CFA_XSP16, literal(-4)))
          CFI (cfiCond321) ?BRET_EXT load(1, XDATA, add(CFA_XSP16, literal(-3)))
          CFI (cfiCond321) DPL0 load(1, XDATA, add(CFA_XSP16, literal(-2)))
          CFI (cfiCond321) DPH0 load(1, XDATA, add(CFA_XSP16, literal(-1)))
          CFI (cfiCond321) CFA_SP SP+-2
          CFI (cfiCond321) CFA_XSP16 add(XSP16, 63)
          CFI Block cfiCond322 Using cfiCommon0
          CFI (cfiCond322) Function zha_project_ProcessInReportCmd
          CFI (cfiCond322) Conditional ??CrossCallReturnLabel_117
          CFI (cfiCond322) R6 load(1, XDATA, add(CFA_XSP16, literal(-20)))
          CFI (cfiCond322) VB load(1, XDATA, add(CFA_XSP16, literal(-19)))
          CFI (cfiCond322) V0 load(1, XDATA, add(CFA_XSP16, literal(-18)))
          CFI (cfiCond322) V1 load(1, XDATA, add(CFA_XSP16, literal(-17)))
          CFI (cfiCond322) V2 load(1, XDATA, add(CFA_XSP16, literal(-16)))
          CFI (cfiCond322) V3 load(1, XDATA, add(CFA_XSP16, literal(-15)))
          CFI (cfiCond322) V4 load(1, XDATA, add(CFA_XSP16, literal(-14)))
          CFI (cfiCond322) V5 load(1, XDATA, add(CFA_XSP16, literal(-13)))
          CFI (cfiCond322) V6 load(1, XDATA, add(CFA_XSP16, literal(-12)))
          CFI (cfiCond322) V7 load(1, XDATA, add(CFA_XSP16, literal(-11)))
          CFI (cfiCond322) V8 load(1, XDATA, add(CFA_XSP16, literal(-10)))
          CFI (cfiCond322) V9 load(1, XDATA, add(CFA_XSP16, literal(-9)))
          CFI (cfiCond322) V10 load(1, XDATA, add(CFA_XSP16, literal(-8)))
          CFI (cfiCond322) V11 load(1, XDATA, add(CFA_XSP16, literal(-7)))
          CFI (cfiCond322) R7 load(1, XDATA, add(CFA_XSP16, literal(-6)))
          CFI (cfiCond322) ?RET_LOW load(1, XDATA, add(CFA_XSP16, literal(-5)))
          CFI (cfiCond322) ?RET_HIGH load(1, XDATA, add(CFA_XSP16, literal(-4)))
          CFI (cfiCond322) ?BRET_EXT load(1, XDATA, add(CFA_XSP16, literal(-3)))
          CFI (cfiCond322) DPL0 load(1, XDATA, add(CFA_XSP16, literal(-2)))
          CFI (cfiCond322) DPH0 load(1, XDATA, add(CFA_XSP16, literal(-1)))
          CFI (cfiCond322) CFA_SP SP+-2
          CFI (cfiCond322) CFA_XSP16 add(XSP16, 63)
          CFI Block cfiCond323 Using cfiCommon0
          CFI (cfiCond323) Function zha_project_ProcessInReportCmd
          CFI (cfiCond323) Conditional ??CrossCallReturnLabel_118
          CFI (cfiCond323) R6 load(1, XDATA, add(CFA_XSP16, literal(-20)))
          CFI (cfiCond323) VB load(1, XDATA, add(CFA_XSP16, literal(-19)))
          CFI (cfiCond323) V0 load(1, XDATA, add(CFA_XSP16, literal(-18)))
          CFI (cfiCond323) V1 load(1, XDATA, add(CFA_XSP16, literal(-17)))
          CFI (cfiCond323) V2 load(1, XDATA, add(CFA_XSP16, literal(-16)))
          CFI (cfiCond323) V3 load(1, XDATA, add(CFA_XSP16, literal(-15)))
          CFI (cfiCond323) V4 load(1, XDATA, add(CFA_XSP16, literal(-14)))
          CFI (cfiCond323) V5 load(1, XDATA, add(CFA_XSP16, literal(-13)))
          CFI (cfiCond323) V6 load(1, XDATA, add(CFA_XSP16, literal(-12)))
          CFI (cfiCond323) V7 load(1, XDATA, add(CFA_XSP16, literal(-11)))
          CFI (cfiCond323) V8 load(1, XDATA, add(CFA_XSP16, literal(-10)))
          CFI (cfiCond323) V9 load(1, XDATA, add(CFA_XSP16, literal(-9)))
          CFI (cfiCond323) V10 load(1, XDATA, add(CFA_XSP16, literal(-8)))
          CFI (cfiCond323) V11 load(1, XDATA, add(CFA_XSP16, literal(-7)))
          CFI (cfiCond323) R7 load(1, XDATA, add(CFA_XSP16, literal(-6)))
          CFI (cfiCond323) ?RET_LOW load(1, XDATA, add(CFA_XSP16, literal(-5)))
          CFI (cfiCond323) ?RET_HIGH load(1, XDATA, add(CFA_XSP16, literal(-4)))
          CFI (cfiCond323) ?BRET_EXT load(1, XDATA, add(CFA_XSP16, literal(-3)))
          CFI (cfiCond323) DPL0 load(1, XDATA, add(CFA_XSP16, literal(-2)))
          CFI (cfiCond323) DPH0 load(1, XDATA, add(CFA_XSP16, literal(-1)))
          CFI (cfiCond323) CFA_SP SP+-2
          CFI (cfiCond323) CFA_XSP16 add(XSP16, 63)
          CFI Block cfiPicker324 Using cfiCommon1
          CFI (cfiPicker324) NoFunction
          CFI (cfiPicker324) Picker
        MOVX    @DPTR,A
        ; Setup parameters for call to function UpdateDeviceStatus1
        ; Setup parameters for call to function UpdateDeviceStatus1
        ; Setup parameters for call to function UpdateDeviceStatus1
        ; Setup parameters for call to function UpdateDeviceStatus1
        ; Setup parameters for call to function UpdateDeviceStatus1
        ; Setup parameters for call to function UpdateDeviceStatus1
        ; Setup parameters for call to function UpdateDeviceStatus3
        ; Setup parameters for call to function UpdateDeviceStatus3
        ; Setup parameters for call to function UpdateDeviceStatus1
        ; Setup parameters for call to function UpdateDeviceStatus2
        ; Setup parameters for call to function UpdateDeviceStatus1
        ; Setup parameters for call to function UpdateDeviceStatus2
        MOV     R4,?XSP + 0
        MOV     R5,?XSP + 1
        LCALL   ?Subroutine27 & 0xFFFF
??CrossCallReturnLabel_129:
        RET
          CFI EndBlock cfiCond312
          CFI EndBlock cfiCond313
          CFI EndBlock cfiCond314
          CFI EndBlock cfiCond315
          CFI EndBlock cfiCond316
          CFI EndBlock cfiCond317
          CFI EndBlock cfiCond318
          CFI EndBlock cfiCond319
          CFI EndBlock cfiCond320
          CFI EndBlock cfiCond321
          CFI EndBlock cfiCond322
          CFI EndBlock cfiCond323
          CFI EndBlock cfiPicker324

        RSEG BANKED_CODE:CODE:NOROOT(0)
?Subroutine28:
          CFI Block cfiCond325 Using cfiCommon0
          CFI Function zha_project_event_loop
          CFI Conditional ??CrossCallReturnLabel_52, ??CrossCallReturnLabel_0
          CFI R6 load(1, XDATA, add(CFA_XSP16, literal(-12)))
          CFI VB load(1, XDATA, add(CFA_XSP16, literal(-11)))
          CFI V0 load(1, XDATA, add(CFA_XSP16, literal(-10)))
          CFI V1 load(1, XDATA, add(CFA_XSP16, literal(-9)))
          CFI V2 load(1, XDATA, add(CFA_XSP16, literal(-8)))
          CFI V3 load(1, XDATA, add(CFA_XSP16, literal(-7)))
          CFI R7 load(1, XDATA, add(CFA_XSP16, literal(-6)))
          CFI ?RET_LOW load(1, XDATA, add(CFA_XSP16, literal(-5)))
          CFI ?RET_HIGH load(1, XDATA, add(CFA_XSP16, literal(-4)))
          CFI ?BRET_EXT load(1, XDATA, add(CFA_XSP16, literal(-3)))
          CFI DPL0 load(1, XDATA, add(CFA_XSP16, literal(-2)))
          CFI DPH0 load(1, XDATA, add(CFA_XSP16, literal(-1)))
          CFI CFA_SP SP+-4
          CFI CFA_XSP16 add(XSP16, 65)
          CFI Block cfiCond326 Using cfiCommon0
          CFI (cfiCond326) Function zha_project_event_loop
          CFI (cfiCond326) Conditional ??CrossCallReturnLabel_52, ??CrossCallReturnLabel_1
          CFI (cfiCond326) R6 load(1, XDATA, add(CFA_XSP16, literal(-12)))
          CFI (cfiCond326) VB load(1, XDATA, add(CFA_XSP16, literal(-11)))
          CFI (cfiCond326) V0 load(1, XDATA, add(CFA_XSP16, literal(-10)))
          CFI (cfiCond326) V1 load(1, XDATA, add(CFA_XSP16, literal(-9)))
          CFI (cfiCond326) V2 load(1, XDATA, add(CFA_XSP16, literal(-8)))
          CFI (cfiCond326) V3 load(1, XDATA, add(CFA_XSP16, literal(-7)))
          CFI (cfiCond326) R7 load(1, XDATA, add(CFA_XSP16, literal(-6)))
          CFI (cfiCond326) ?RET_LOW load(1, XDATA, add(CFA_XSP16, literal(-5)))
          CFI (cfiCond326) ?RET_HIGH load(1, XDATA, add(CFA_XSP16, literal(-4)))
          CFI (cfiCond326) ?BRET_EXT load(1, XDATA, add(CFA_XSP16, literal(-3)))
          CFI (cfiCond326) DPL0 load(1, XDATA, add(CFA_XSP16, literal(-2)))
          CFI (cfiCond326) DPH0 load(1, XDATA, add(CFA_XSP16, literal(-1)))
          CFI (cfiCond326) CFA_SP SP+-4
          CFI (cfiCond326) CFA_XSP16 add(XSP16, 65)
          CFI Block cfiCond327 Using cfiCommon0
          CFI (cfiCond327) Function zha_project_event_loop
          CFI (cfiCond327) Conditional ??CrossCallReturnLabel_52, ??CrossCallReturnLabel_2
          CFI (cfiCond327) R6 load(1, XDATA, add(CFA_XSP16, literal(-12)))
          CFI (cfiCond327) VB load(1, XDATA, add(CFA_XSP16, literal(-11)))
          CFI (cfiCond327) V0 load(1, XDATA, add(CFA_XSP16, literal(-10)))
          CFI (cfiCond327) V1 load(1, XDATA, add(CFA_XSP16, literal(-9)))
          CFI (cfiCond327) V2 load(1, XDATA, add(CFA_XSP16, literal(-8)))
          CFI (cfiCond327) V3 load(1, XDATA, add(CFA_XSP16, literal(-7)))
          CFI (cfiCond327) R7 load(1, XDATA, add(CFA_XSP16, literal(-6)))
          CFI (cfiCond327) ?RET_LOW load(1, XDATA, add(CFA_XSP16, literal(-5)))
          CFI (cfiCond327) ?RET_HIGH load(1, XDATA, add(CFA_XSP16, literal(-4)))
          CFI (cfiCond327) ?BRET_EXT load(1, XDATA, add(CFA_XSP16, literal(-3)))
          CFI (cfiCond327) DPL0 load(1, XDATA, add(CFA_XSP16, literal(-2)))
          CFI (cfiCond327) DPH0 load(1, XDATA, add(CFA_XSP16, literal(-1)))
          CFI (cfiCond327) CFA_SP SP+-4
          CFI (cfiCond327) CFA_XSP16 add(XSP16, 65)
          CFI Block cfiCond328 Using cfiCommon0
          CFI (cfiCond328) Function zha_project_ProcessInReadRspCmd
          CFI (cfiCond328) Conditional ??CrossCallReturnLabel_51, ??CrossCallReturnLabel_113
          CFI (cfiCond328) R6 load(1, XDATA, add(CFA_XSP16, literal(-20)))
          CFI (cfiCond328) VB load(1, XDATA, add(CFA_XSP16, literal(-19)))
          CFI (cfiCond328) V0 load(1, XDATA, add(CFA_XSP16, literal(-18)))
          CFI (cfiCond328) V1 load(1, XDATA, add(CFA_XSP16, literal(-17)))
          CFI (cfiCond328) V2 load(1, XDATA, add(CFA_XSP16, literal(-16)))
          CFI (cfiCond328) V3 load(1, XDATA, add(CFA_XSP16, literal(-15)))
          CFI (cfiCond328) V4 load(1, XDATA, add(CFA_XSP16, literal(-14)))
          CFI (cfiCond328) V5 load(1, XDATA, add(CFA_XSP16, literal(-13)))
          CFI (cfiCond328) V6 load(1, XDATA, add(CFA_XSP16, literal(-12)))
          CFI (cfiCond328) V7 load(1, XDATA, add(CFA_XSP16, literal(-11)))
          CFI (cfiCond328) V8 load(1, XDATA, add(CFA_XSP16, literal(-10)))
          CFI (cfiCond328) V9 load(1, XDATA, add(CFA_XSP16, literal(-9)))
          CFI (cfiCond328) V10 load(1, XDATA, add(CFA_XSP16, literal(-8)))
          CFI (cfiCond328) V11 load(1, XDATA, add(CFA_XSP16, literal(-7)))
          CFI (cfiCond328) R7 load(1, XDATA, add(CFA_XSP16, literal(-6)))
          CFI (cfiCond328) ?RET_LOW load(1, XDATA, add(CFA_XSP16, literal(-5)))
          CFI (cfiCond328) ?RET_HIGH load(1, XDATA, add(CFA_XSP16, literal(-4)))
          CFI (cfiCond328) ?BRET_EXT load(1, XDATA, add(CFA_XSP16, literal(-3)))
          CFI (cfiCond328) DPL0 load(1, XDATA, add(CFA_XSP16, literal(-2)))
          CFI (cfiCond328) DPH0 load(1, XDATA, add(CFA_XSP16, literal(-1)))
          CFI (cfiCond328) CFA_SP SP+-4
          CFI (cfiCond328) CFA_XSP16 add(XSP16, 63)
          CFI Block cfiCond329 Using cfiCommon0
          CFI (cfiCond329) Function zha_project_ProcessInReadRspCmd
          CFI (cfiCond329) Conditional ??CrossCallReturnLabel_51, ??CrossCallReturnLabel_114
          CFI (cfiCond329) R6 load(1, XDATA, add(CFA_XSP16, literal(-20)))
          CFI (cfiCond329) VB load(1, XDATA, add(CFA_XSP16, literal(-19)))
          CFI (cfiCond329) V0 load(1, XDATA, add(CFA_XSP16, literal(-18)))
          CFI (cfiCond329) V1 load(1, XDATA, add(CFA_XSP16, literal(-17)))
          CFI (cfiCond329) V2 load(1, XDATA, add(CFA_XSP16, literal(-16)))
          CFI (cfiCond329) V3 load(1, XDATA, add(CFA_XSP16, literal(-15)))
          CFI (cfiCond329) V4 load(1, XDATA, add(CFA_XSP16, literal(-14)))
          CFI (cfiCond329) V5 load(1, XDATA, add(CFA_XSP16, literal(-13)))
          CFI (cfiCond329) V6 load(1, XDATA, add(CFA_XSP16, literal(-12)))
          CFI (cfiCond329) V7 load(1, XDATA, add(CFA_XSP16, literal(-11)))
          CFI (cfiCond329) V8 load(1, XDATA, add(CFA_XSP16, literal(-10)))
          CFI (cfiCond329) V9 load(1, XDATA, add(CFA_XSP16, literal(-9)))
          CFI (cfiCond329) V10 load(1, XDATA, add(CFA_XSP16, literal(-8)))
          CFI (cfiCond329) V11 load(1, XDATA, add(CFA_XSP16, literal(-7)))
          CFI (cfiCond329) R7 load(1, XDATA, add(CFA_XSP16, literal(-6)))
          CFI (cfiCond329) ?RET_LOW load(1, XDATA, add(CFA_XSP16, literal(-5)))
          CFI (cfiCond329) ?RET_HIGH load(1, XDATA, add(CFA_XSP16, literal(-4)))
          CFI (cfiCond329) ?BRET_EXT load(1, XDATA, add(CFA_XSP16, literal(-3)))
          CFI (cfiCond329) DPL0 load(1, XDATA, add(CFA_XSP16, literal(-2)))
          CFI (cfiCond329) DPH0 load(1, XDATA, add(CFA_XSP16, literal(-1)))
          CFI (cfiCond329) CFA_SP SP+-4
          CFI (cfiCond329) CFA_XSP16 add(XSP16, 63)
          CFI Block cfiCond330 Using cfiCommon0
          CFI (cfiCond330) Function zha_project_ProcessInReadRspCmd
          CFI (cfiCond330) Conditional ??CrossCallReturnLabel_51, ??CrossCallReturnLabel_115
          CFI (cfiCond330) R6 load(1, XDATA, add(CFA_XSP16, literal(-20)))
          CFI (cfiCond330) VB load(1, XDATA, add(CFA_XSP16, literal(-19)))
          CFI (cfiCond330) V0 load(1, XDATA, add(CFA_XSP16, literal(-18)))
          CFI (cfiCond330) V1 load(1, XDATA, add(CFA_XSP16, literal(-17)))
          CFI (cfiCond330) V2 load(1, XDATA, add(CFA_XSP16, literal(-16)))
          CFI (cfiCond330) V3 load(1, XDATA, add(CFA_XSP16, literal(-15)))
          CFI (cfiCond330) V4 load(1, XDATA, add(CFA_XSP16, literal(-14)))
          CFI (cfiCond330) V5 load(1, XDATA, add(CFA_XSP16, literal(-13)))
          CFI (cfiCond330) V6 load(1, XDATA, add(CFA_XSP16, literal(-12)))
          CFI (cfiCond330) V7 load(1, XDATA, add(CFA_XSP16, literal(-11)))
          CFI (cfiCond330) V8 load(1, XDATA, add(CFA_XSP16, literal(-10)))
          CFI (cfiCond330) V9 load(1, XDATA, add(CFA_XSP16, literal(-9)))
          CFI (cfiCond330) V10 load(1, XDATA, add(CFA_XSP16, literal(-8)))
          CFI (cfiCond330) V11 load(1, XDATA, add(CFA_XSP16, literal(-7)))
          CFI (cfiCond330) R7 load(1, XDATA, add(CFA_XSP16, literal(-6)))
          CFI (cfiCond330) ?RET_LOW load(1, XDATA, add(CFA_XSP16, literal(-5)))
          CFI (cfiCond330) ?RET_HIGH load(1, XDATA, add(CFA_XSP16, literal(-4)))
          CFI (cfiCond330) ?BRET_EXT load(1, XDATA, add(CFA_XSP16, literal(-3)))
          CFI (cfiCond330) DPL0 load(1, XDATA, add(CFA_XSP16, literal(-2)))
          CFI (cfiCond330) DPH0 load(1, XDATA, add(CFA_XSP16, literal(-1)))
          CFI (cfiCond330) CFA_SP SP+-4
          CFI (cfiCond330) CFA_XSP16 add(XSP16, 63)
          CFI Block cfiCond331 Using cfiCommon0
          CFI (cfiCond331) Function zha_project_ProcessInReportCmd
          CFI (cfiCond331) Conditional ??CrossCallReturnLabel_51, ??CrossCallReturnLabel_116
          CFI (cfiCond331) R6 load(1, XDATA, add(CFA_XSP16, literal(-20)))
          CFI (cfiCond331) VB load(1, XDATA, add(CFA_XSP16, literal(-19)))
          CFI (cfiCond331) V0 load(1, XDATA, add(CFA_XSP16, literal(-18)))
          CFI (cfiCond331) V1 load(1, XDATA, add(CFA_XSP16, literal(-17)))
          CFI (cfiCond331) V2 load(1, XDATA, add(CFA_XSP16, literal(-16)))
          CFI (cfiCond331) V3 load(1, XDATA, add(CFA_XSP16, literal(-15)))
          CFI (cfiCond331) V4 load(1, XDATA, add(CFA_XSP16, literal(-14)))
          CFI (cfiCond331) V5 load(1, XDATA, add(CFA_XSP16, literal(-13)))
          CFI (cfiCond331) V6 load(1, XDATA, add(CFA_XSP16, literal(-12)))
          CFI (cfiCond331) V7 load(1, XDATA, add(CFA_XSP16, literal(-11)))
          CFI (cfiCond331) V8 load(1, XDATA, add(CFA_XSP16, literal(-10)))
          CFI (cfiCond331) V9 load(1, XDATA, add(CFA_XSP16, literal(-9)))
          CFI (cfiCond331) V10 load(1, XDATA, add(CFA_XSP16, literal(-8)))
          CFI (cfiCond331) V11 load(1, XDATA, add(CFA_XSP16, literal(-7)))
          CFI (cfiCond331) R7 load(1, XDATA, add(CFA_XSP16, literal(-6)))
          CFI (cfiCond331) ?RET_LOW load(1, XDATA, add(CFA_XSP16, literal(-5)))
          CFI (cfiCond331) ?RET_HIGH load(1, XDATA, add(CFA_XSP16, literal(-4)))
          CFI (cfiCond331) ?BRET_EXT load(1, XDATA, add(CFA_XSP16, literal(-3)))
          CFI (cfiCond331) DPL0 load(1, XDATA, add(CFA_XSP16, literal(-2)))
          CFI (cfiCond331) DPH0 load(1, XDATA, add(CFA_XSP16, literal(-1)))
          CFI (cfiCond331) CFA_SP SP+-4
          CFI (cfiCond331) CFA_XSP16 add(XSP16, 63)
          CFI Block cfiCond332 Using cfiCommon0
          CFI (cfiCond332) Function zha_project_ProcessInReportCmd
          CFI (cfiCond332) Conditional ??CrossCallReturnLabel_51, ??CrossCallReturnLabel_117
          CFI (cfiCond332) R6 load(1, XDATA, add(CFA_XSP16, literal(-20)))
          CFI (cfiCond332) VB load(1, XDATA, add(CFA_XSP16, literal(-19)))
          CFI (cfiCond332) V0 load(1, XDATA, add(CFA_XSP16, literal(-18)))
          CFI (cfiCond332) V1 load(1, XDATA, add(CFA_XSP16, literal(-17)))
          CFI (cfiCond332) V2 load(1, XDATA, add(CFA_XSP16, literal(-16)))
          CFI (cfiCond332) V3 load(1, XDATA, add(CFA_XSP16, literal(-15)))
          CFI (cfiCond332) V4 load(1, XDATA, add(CFA_XSP16, literal(-14)))
          CFI (cfiCond332) V5 load(1, XDATA, add(CFA_XSP16, literal(-13)))
          CFI (cfiCond332) V6 load(1, XDATA, add(CFA_XSP16, literal(-12)))
          CFI (cfiCond332) V7 load(1, XDATA, add(CFA_XSP16, literal(-11)))
          CFI (cfiCond332) V8 load(1, XDATA, add(CFA_XSP16, literal(-10)))
          CFI (cfiCond332) V9 load(1, XDATA, add(CFA_XSP16, literal(-9)))
          CFI (cfiCond332) V10 load(1, XDATA, add(CFA_XSP16, literal(-8)))
          CFI (cfiCond332) V11 load(1, XDATA, add(CFA_XSP16, literal(-7)))
          CFI (cfiCond332) R7 load(1, XDATA, add(CFA_XSP16, literal(-6)))
          CFI (cfiCond332) ?RET_LOW load(1, XDATA, add(CFA_XSP16, literal(-5)))
          CFI (cfiCond332) ?RET_HIGH load(1, XDATA, add(CFA_XSP16, literal(-4)))
          CFI (cfiCond332) ?BRET_EXT load(1, XDATA, add(CFA_XSP16, literal(-3)))
          CFI (cfiCond332) DPL0 load(1, XDATA, add(CFA_XSP16, literal(-2)))
          CFI (cfiCond332) DPH0 load(1, XDATA, add(CFA_XSP16, literal(-1)))
          CFI (cfiCond332) CFA_SP SP+-4
          CFI (cfiCond332) CFA_XSP16 add(XSP16, 63)
          CFI Block cfiCond333 Using cfiCommon0
          CFI (cfiCond333) Function zha_project_ProcessInReportCmd
          CFI (cfiCond333) Conditional ??CrossCallReturnLabel_51, ??CrossCallReturnLabel_118
          CFI (cfiCond333) R6 load(1, XDATA, add(CFA_XSP16, literal(-20)))
          CFI (cfiCond333) VB load(1, XDATA, add(CFA_XSP16, literal(-19)))
          CFI (cfiCond333) V0 load(1, XDATA, add(CFA_XSP16, literal(-18)))
          CFI (cfiCond333) V1 load(1, XDATA, add(CFA_XSP16, literal(-17)))
          CFI (cfiCond333) V2 load(1, XDATA, add(CFA_XSP16, literal(-16)))
          CFI (cfiCond333) V3 load(1, XDATA, add(CFA_XSP16, literal(-15)))
          CFI (cfiCond333) V4 load(1, XDATA, add(CFA_XSP16, literal(-14)))
          CFI (cfiCond333) V5 load(1, XDATA, add(CFA_XSP16, literal(-13)))
          CFI (cfiCond333) V6 load(1, XDATA, add(CFA_XSP16, literal(-12)))
          CFI (cfiCond333) V7 load(1, XDATA, add(CFA_XSP16, literal(-11)))
          CFI (cfiCond333) V8 load(1, XDATA, add(CFA_XSP16, literal(-10)))
          CFI (cfiCond333) V9 load(1, XDATA, add(CFA_XSP16, literal(-9)))
          CFI (cfiCond333) V10 load(1, XDATA, add(CFA_XSP16, literal(-8)))
          CFI (cfiCond333) V11 load(1, XDATA, add(CFA_XSP16, literal(-7)))
          CFI (cfiCond333) R7 load(1, XDATA, add(CFA_XSP16, literal(-6)))
          CFI (cfiCond333) ?RET_LOW load(1, XDATA, add(CFA_XSP16, literal(-5)))
          CFI (cfiCond333) ?RET_HIGH load(1, XDATA, add(CFA_XSP16, literal(-4)))
          CFI (cfiCond333) ?BRET_EXT load(1, XDATA, add(CFA_XSP16, literal(-3)))
          CFI (cfiCond333) DPL0 load(1, XDATA, add(CFA_XSP16, literal(-2)))
          CFI (cfiCond333) DPH0 load(1, XDATA, add(CFA_XSP16, literal(-1)))
          CFI (cfiCond333) CFA_SP SP+-4
          CFI (cfiCond333) CFA_XSP16 add(XSP16, 63)
          CFI Block cfiPicker334 Using cfiCommon1
          CFI (cfiPicker334) NoFunction
          CFI (cfiPicker334) Picker
        MOVX    A,@DPTR
        MOV     R0,A
        INC     DPTR
        MOVX    A,@DPTR
        MOV     R1,A
        MOV     DPL,?XSP + 0
        MOV     DPH,?XSP + 1
        RET
          CFI EndBlock cfiCond325
          CFI EndBlock cfiCond326
          CFI EndBlock cfiCond327
          CFI EndBlock cfiCond328
          CFI EndBlock cfiCond329
          CFI EndBlock cfiCond330
          CFI EndBlock cfiCond331
          CFI EndBlock cfiCond332
          CFI EndBlock cfiCond333
          CFI EndBlock cfiPicker334
// 1877 #endif
// 1878 /*********************************************************************
// 1879  * @fn      zha_project_ProcessInDefaultRspCmd
// 1880  *
// 1881  * @brief   Process the "Profile" Default Response Command
// 1882  *
// 1883  * @param   pInMsg - incoming message to process
// 1884  *
// 1885  * @return  none
// 1886  */
// 1887 static uint8 zha_project_ProcessInDefaultRspCmd( zclIncomingMsg_t *pInMsg )
// 1888 {
// 1889   // zclDefaultRspCmd_t *defaultRspCmd = (zclDefaultRspCmd_t *)pInMsg->attrCmd;
// 1890 
// 1891   // Device is notified of the Default Response command.
// 1892   (void)pInMsg;
// 1893 
// 1894   return ( TRUE );
// 1895 }
// 1896 
// 1897 #ifdef ZCL_DISCOVER
// 1898 /*********************************************************************
// 1899  * @fn      zha_project_ProcessInDiscCmdsRspCmd
// 1900  *
// 1901  * @brief   Process the Discover Commands Response Command
// 1902  *
// 1903  * @param   pInMsg - incoming message to process
// 1904  *
// 1905  * @return  none
// 1906  */
// 1907 static uint8 zha_project_ProcessInDiscCmdsRspCmd( zclIncomingMsg_t *pInMsg )
// 1908 {
// 1909   zclDiscoverCmdsCmdRsp_t *discoverRspCmd;
// 1910   uint8 i;
// 1911 
// 1912   discoverRspCmd = (zclDiscoverCmdsCmdRsp_t *)pInMsg->attrCmd;
// 1913   for ( i = 0; i < discoverRspCmd->numCmd; i++ )
// 1914   {
// 1915     // Device is notified of the result of its attribute discovery command.
// 1916   }
// 1917 
// 1918   return ( TRUE );
// 1919 }
// 1920 
// 1921 /*********************************************************************
// 1922  * @fn      zha_project_ProcessInDiscAttrsRspCmd
// 1923  *
// 1924  * @brief   Process the "Profile" Discover Attributes Response Command
// 1925  *
// 1926  * @param   pInMsg - incoming message to process
// 1927  *
// 1928  * @return  none
// 1929  */
// 1930 static uint8 zha_project_ProcessInDiscAttrsRspCmd( zclIncomingMsg_t *pInMsg )
// 1931 {
// 1932   zclDiscoverAttrsRspCmd_t *discoverRspCmd;
// 1933   uint8 i;
// 1934 
// 1935   discoverRspCmd = (zclDiscoverAttrsRspCmd_t *)pInMsg->attrCmd;
// 1936   for ( i = 0; i < discoverRspCmd->numAttr; i++ )
// 1937   {
// 1938     // Device is notified of the result of its attribute discovery command.
// 1939   }
// 1940 
// 1941   return ( TRUE );
// 1942 }
// 1943 
// 1944 /*********************************************************************
// 1945  * @fn      zha_project_ProcessInDiscAttrsExtRspCmd
// 1946  *
// 1947  * @brief   Process the "Profile" Discover Attributes Extended Response Command
// 1948  *
// 1949  * @param   pInMsg - incoming message to process
// 1950  *
// 1951  * @return  none
// 1952  */
// 1953 static uint8 zha_project_ProcessInDiscAttrsExtRspCmd( zclIncomingMsg_t *pInMsg )
// 1954 {
// 1955   zclDiscoverAttrsExtRsp_t *discoverRspCmd;
// 1956   uint8 i;
// 1957 
// 1958   discoverRspCmd = (zclDiscoverAttrsExtRsp_t *)pInMsg->attrCmd;
// 1959   for ( i = 0; i < discoverRspCmd->numAttr; i++ )
// 1960   {
// 1961     // Device is notified of the result of its attribute discovery command.
// 1962   }
// 1963 
// 1964   return ( TRUE );
// 1965 }
// 1966 #endif // ZCL_DISCOVER
// 1967 
// 1968 #if ZCL_EZMODE
// 1969 /*********************************************************************
// 1970  * @fn      zha_project_ProcessZDOMsgs
// 1971  *
// 1972  * @brief   Called when this node receives a ZDO/ZDP response.
// 1973  *
// 1974  * @param   none
// 1975  *
// 1976  * @return  status
// 1977  */

        RSEG BANKED_CODE:CODE:NOROOT(0)
// 1978 static void zha_project_ProcessZDOMsgs( zdoIncomingMsg_t *pMsg )
zha_project_ProcessZDOMsgs:
          CFI Block cfiBlock335 Using cfiCommon0
          CFI Function zha_project_ProcessZDOMsgs
        CODE
// 1979 {
        FUNCALL zha_project_ProcessZDOMsgs, HalLedSet
        LOCFRAME ISTACK, 0, STACK
        LOCFRAME PSTACK, 0, STACK
        LOCFRAME XSTACK, 25, STACK
        LOCFRAME IOVERLAY, 0, STATIC
        LOCFRAME DOVERLAY, 0, STATIC
        ARGFRAME ISTACK, 0, STACK
        ARGFRAME PSTACK, 0, STACK
        ARGFRAME XSTACK, 25, STACK
        ARGFRAME IOVERLAY, 0, STATIC
        ARGFRAME DOVERLAY, 0, STATIC
        FUNCALL zha_project_ProcessZDOMsgs, HalLedSet
        LOCFRAME ISTACK, 0, STACK
        LOCFRAME PSTACK, 0, STACK
        LOCFRAME XSTACK, 25, STACK
        LOCFRAME IOVERLAY, 0, STATIC
        LOCFRAME DOVERLAY, 0, STATIC
        ARGFRAME ISTACK, 0, STACK
        ARGFRAME PSTACK, 0, STACK
        ARGFRAME XSTACK, 25, STACK
        ARGFRAME IOVERLAY, 0, STATIC
        ARGFRAME DOVERLAY, 0, STATIC
        FUNCALL zha_project_ProcessZDOMsgs, ZDO_ParseEPListRsp
        LOCFRAME ISTACK, 0, STACK
        LOCFRAME PSTACK, 0, STACK
        LOCFRAME XSTACK, 25, STACK
        LOCFRAME IOVERLAY, 0, STATIC
        LOCFRAME DOVERLAY, 0, STATIC
        ARGFRAME ISTACK, 0, STACK
        ARGFRAME PSTACK, 0, STACK
        ARGFRAME XSTACK, 25, STACK
        ARGFRAME IOVERLAY, 0, STATIC
        ARGFRAME DOVERLAY, 0, STATIC
        FUNCALL zha_project_ProcessZDOMsgs, HalLedSet
        LOCFRAME ISTACK, 0, STACK
        LOCFRAME PSTACK, 0, STACK
        LOCFRAME XSTACK, 25, STACK
        LOCFRAME IOVERLAY, 0, STATIC
        LOCFRAME DOVERLAY, 0, STATIC
        ARGFRAME ISTACK, 0, STACK
        ARGFRAME PSTACK, 0, STACK
        ARGFRAME XSTACK, 25, STACK
        ARGFRAME IOVERLAY, 0, STATIC
        ARGFRAME DOVERLAY, 0, STATIC
        FUNCALL zha_project_ProcessZDOMsgs, osal_mem_free
        LOCFRAME ISTACK, 0, STACK
        LOCFRAME PSTACK, 0, STACK
        LOCFRAME XSTACK, 25, STACK
        LOCFRAME IOVERLAY, 0, STATIC
        LOCFRAME DOVERLAY, 0, STATIC
        ARGFRAME ISTACK, 0, STACK
        ARGFRAME PSTACK, 0, STACK
        ARGFRAME XSTACK, 25, STACK
        ARGFRAME IOVERLAY, 0, STATIC
        ARGFRAME DOVERLAY, 0, STATIC
        FUNCALL zha_project_ProcessZDOMsgs, ZDO_ParseDeviceAnnce
        LOCFRAME ISTACK, 0, STACK
        LOCFRAME PSTACK, 0, STACK
        LOCFRAME XSTACK, 25, STACK
        LOCFRAME IOVERLAY, 0, STATIC
        LOCFRAME DOVERLAY, 0, STATIC
        ARGFRAME ISTACK, 0, STACK
        ARGFRAME PSTACK, 0, STACK
        ARGFRAME XSTACK, 25, STACK
        ARGFRAME IOVERLAY, 0, STATIC
        ARGFRAME DOVERLAY, 0, STATIC
        FUNCALL zha_project_ProcessZDOMsgs, SetTempDeviceSA
        LOCFRAME ISTACK, 0, STACK
        LOCFRAME PSTACK, 0, STACK
        LOCFRAME XSTACK, 25, STACK
        LOCFRAME IOVERLAY, 0, STATIC
        LOCFRAME DOVERLAY, 0, STATIC
        ARGFRAME ISTACK, 0, STACK
        ARGFRAME PSTACK, 0, STACK
        ARGFRAME XSTACK, 25, STACK
        ARGFRAME IOVERLAY, 0, STATIC
        ARGFRAME DOVERLAY, 0, STATIC
        FUNCALL zha_project_ProcessZDOMsgs, osal_set_event
        LOCFRAME ISTACK, 0, STACK
        LOCFRAME PSTACK, 0, STACK
        LOCFRAME XSTACK, 25, STACK
        LOCFRAME IOVERLAY, 0, STATIC
        LOCFRAME DOVERLAY, 0, STATIC
        ARGFRAME ISTACK, 0, STACK
        ARGFRAME PSTACK, 0, STACK
        ARGFRAME XSTACK, 25, STACK
        ARGFRAME IOVERLAY, 0, STATIC
        ARGFRAME DOVERLAY, 0, STATIC
        FUNCALL zha_project_ProcessZDOMsgs, ZDO_ParseEPListRsp
        LOCFRAME ISTACK, 0, STACK
        LOCFRAME PSTACK, 0, STACK
        LOCFRAME XSTACK, 25, STACK
        LOCFRAME IOVERLAY, 0, STATIC
        LOCFRAME DOVERLAY, 0, STATIC
        ARGFRAME ISTACK, 0, STACK
        ARGFRAME PSTACK, 0, STACK
        ARGFRAME XSTACK, 25, STACK
        ARGFRAME IOVERLAY, 0, STATIC
        ARGFRAME DOVERLAY, 0, STATIC
        FUNCALL zha_project_ProcessZDOMsgs, osal_memset
        LOCFRAME ISTACK, 0, STACK
        LOCFRAME PSTACK, 0, STACK
        LOCFRAME XSTACK, 25, STACK
        LOCFRAME IOVERLAY, 0, STATIC
        LOCFRAME DOVERLAY, 0, STATIC
        ARGFRAME ISTACK, 0, STACK
        ARGFRAME PSTACK, 0, STACK
        ARGFRAME XSTACK, 25, STACK
        ARGFRAME IOVERLAY, 0, STATIC
        ARGFRAME DOVERLAY, 0, STATIC
        FUNCALL zha_project_ProcessZDOMsgs, osal_memcpy
        LOCFRAME ISTACK, 0, STACK
        LOCFRAME PSTACK, 0, STACK
        LOCFRAME XSTACK, 28, STACK
        LOCFRAME IOVERLAY, 0, STATIC
        LOCFRAME DOVERLAY, 0, STATIC
        ARGFRAME ISTACK, 0, STACK
        ARGFRAME PSTACK, 0, STACK
        ARGFRAME XSTACK, 28, STACK
        ARGFRAME IOVERLAY, 0, STATIC
        ARGFRAME DOVERLAY, 0, STATIC
        FUNCALL zha_project_ProcessZDOMsgs, SetTempDeviceEP
        LOCFRAME ISTACK, 0, STACK
        LOCFRAME PSTACK, 0, STACK
        LOCFRAME XSTACK, 25, STACK
        LOCFRAME IOVERLAY, 0, STATIC
        LOCFRAME DOVERLAY, 0, STATIC
        ARGFRAME ISTACK, 0, STACK
        ARGFRAME PSTACK, 0, STACK
        ARGFRAME XSTACK, 25, STACK
        ARGFRAME IOVERLAY, 0, STATIC
        ARGFRAME DOVERLAY, 0, STATIC
        FUNCALL zha_project_ProcessZDOMsgs, osal_set_event
        LOCFRAME ISTACK, 0, STACK
        LOCFRAME PSTACK, 0, STACK
        LOCFRAME XSTACK, 25, STACK
        LOCFRAME IOVERLAY, 0, STATIC
        LOCFRAME DOVERLAY, 0, STATIC
        ARGFRAME ISTACK, 0, STACK
        ARGFRAME PSTACK, 0, STACK
        ARGFRAME XSTACK, 25, STACK
        ARGFRAME IOVERLAY, 0, STATIC
        ARGFRAME DOVERLAY, 0, STATIC
        FUNCALL zha_project_ProcessZDOMsgs, osal_mem_free
        LOCFRAME ISTACK, 0, STACK
        LOCFRAME PSTACK, 0, STACK
        LOCFRAME XSTACK, 25, STACK
        LOCFRAME IOVERLAY, 0, STATIC
        LOCFRAME DOVERLAY, 0, STATIC
        ARGFRAME ISTACK, 0, STACK
        ARGFRAME PSTACK, 0, STACK
        ARGFRAME XSTACK, 25, STACK
        ARGFRAME IOVERLAY, 0, STATIC
        ARGFRAME DOVERLAY, 0, STATIC
        FUNCALL zha_project_ProcessZDOMsgs, osal_mem_alloc
        LOCFRAME ISTACK, 0, STACK
        LOCFRAME PSTACK, 0, STACK
        LOCFRAME XSTACK, 25, STACK
        LOCFRAME IOVERLAY, 0, STATIC
        LOCFRAME DOVERLAY, 0, STATIC
        ARGFRAME ISTACK, 0, STACK
        ARGFRAME PSTACK, 0, STACK
        ARGFRAME XSTACK, 25, STACK
        ARGFRAME IOVERLAY, 0, STATIC
        ARGFRAME DOVERLAY, 0, STATIC
        FUNCALL zha_project_ProcessZDOMsgs, ZDO_ParseSimpleDescRsp
        LOCFRAME ISTACK, 0, STACK
        LOCFRAME PSTACK, 0, STACK
        LOCFRAME XSTACK, 25, STACK
        LOCFRAME IOVERLAY, 0, STATIC
        LOCFRAME DOVERLAY, 0, STATIC
        ARGFRAME ISTACK, 0, STACK
        ARGFRAME PSTACK, 0, STACK
        ARGFRAME XSTACK, 25, STACK
        ARGFRAME IOVERLAY, 0, STATIC
        ARGFRAME DOVERLAY, 0, STATIC
        FUNCALL zha_project_ProcessZDOMsgs, osal_start_timerEx
        LOCFRAME ISTACK, 0, STACK
        LOCFRAME PSTACK, 0, STACK
        LOCFRAME XSTACK, 29, STACK
        LOCFRAME IOVERLAY, 0, STATIC
        LOCFRAME DOVERLAY, 0, STATIC
        ARGFRAME ISTACK, 0, STACK
        ARGFRAME PSTACK, 0, STACK
        ARGFRAME XSTACK, 29, STACK
        ARGFRAME IOVERLAY, 0, STATIC
        ARGFRAME DOVERLAY, 0, STATIC
        FUNCALL zha_project_ProcessZDOMsgs, osal_set_event
        LOCFRAME ISTACK, 0, STACK
        LOCFRAME PSTACK, 0, STACK
        LOCFRAME XSTACK, 25, STACK
        LOCFRAME IOVERLAY, 0, STATIC
        LOCFRAME DOVERLAY, 0, STATIC
        ARGFRAME ISTACK, 0, STACK
        ARGFRAME PSTACK, 0, STACK
        ARGFRAME XSTACK, 25, STACK
        ARGFRAME IOVERLAY, 0, STATIC
        ARGFRAME DOVERLAY, 0, STATIC
        FUNCALL zha_project_ProcessZDOMsgs, SetTempDeviceType
        LOCFRAME ISTACK, 0, STACK
        LOCFRAME PSTACK, 0, STACK
        LOCFRAME XSTACK, 25, STACK
        LOCFRAME IOVERLAY, 0, STATIC
        LOCFRAME DOVERLAY, 0, STATIC
        ARGFRAME ISTACK, 0, STACK
        ARGFRAME PSTACK, 0, STACK
        ARGFRAME XSTACK, 25, STACK
        ARGFRAME IOVERLAY, 0, STATIC
        ARGFRAME DOVERLAY, 0, STATIC
        FUNCALL zha_project_ProcessZDOMsgs, osal_mem_free
        LOCFRAME ISTACK, 0, STACK
        LOCFRAME PSTACK, 0, STACK
        LOCFRAME XSTACK, 25, STACK
        LOCFRAME IOVERLAY, 0, STATIC
        LOCFRAME DOVERLAY, 0, STATIC
        ARGFRAME ISTACK, 0, STACK
        ARGFRAME PSTACK, 0, STACK
        ARGFRAME XSTACK, 25, STACK
        ARGFRAME IOVERLAY, 0, STATIC
        ARGFRAME DOVERLAY, 0, STATIC
        FUNCALL zha_project_ProcessZDOMsgs, osal_mem_free
        LOCFRAME ISTACK, 0, STACK
        LOCFRAME PSTACK, 0, STACK
        LOCFRAME XSTACK, 25, STACK
        LOCFRAME IOVERLAY, 0, STATIC
        LOCFRAME DOVERLAY, 0, STATIC
        ARGFRAME ISTACK, 0, STACK
        ARGFRAME PSTACK, 0, STACK
        ARGFRAME XSTACK, 25, STACK
        ARGFRAME IOVERLAY, 0, STATIC
        ARGFRAME DOVERLAY, 0, STATIC
        FUNCALL zha_project_ProcessZDOMsgs, osal_mem_free
        LOCFRAME ISTACK, 0, STACK
        LOCFRAME PSTACK, 0, STACK
        LOCFRAME XSTACK, 25, STACK
        LOCFRAME IOVERLAY, 0, STATIC
        LOCFRAME DOVERLAY, 0, STATIC
        ARGFRAME ISTACK, 0, STACK
        ARGFRAME PSTACK, 0, STACK
        ARGFRAME XSTACK, 25, STACK
        ARGFRAME IOVERLAY, 0, STATIC
        ARGFRAME DOVERLAY, 0, STATIC
        FUNCALL zha_project_ProcessZDOMsgs, ZDO_ParseMgmtBindRsp
        LOCFRAME ISTACK, 0, STACK
        LOCFRAME PSTACK, 0, STACK
        LOCFRAME XSTACK, 25, STACK
        LOCFRAME IOVERLAY, 0, STATIC
        LOCFRAME DOVERLAY, 0, STATIC
        ARGFRAME ISTACK, 0, STACK
        ARGFRAME PSTACK, 0, STACK
        ARGFRAME XSTACK, 25, STACK
        ARGFRAME IOVERLAY, 0, STATIC
        ARGFRAME DOVERLAY, 0, STATIC
        FUNCALL zha_project_ProcessZDOMsgs, osal_mem_free
        LOCFRAME ISTACK, 0, STACK
        LOCFRAME PSTACK, 0, STACK
        LOCFRAME XSTACK, 25, STACK
        LOCFRAME IOVERLAY, 0, STATIC
        LOCFRAME DOVERLAY, 0, STATIC
        ARGFRAME ISTACK, 0, STACK
        ARGFRAME PSTACK, 0, STACK
        ARGFRAME XSTACK, 25, STACK
        ARGFRAME IOVERLAY, 0, STATIC
        ARGFRAME DOVERLAY, 0, STATIC
        REQUIRE ?V0
        REQUIRE ?V1
        REQUIRE ?V2
        REQUIRE ?V3
        REQUIRE ?V4
        REQUIRE ?V5
        MOV     A,#-0xe
        LCALL   ?BANKED_ENTER_XDATA
          CFI DPH0 load(1, XDATA, add(CFA_XSP16, literal(-1)))
          CFI DPL0 load(1, XDATA, add(CFA_XSP16, literal(-2)))
          CFI ?BRET_EXT load(1, XDATA, add(CFA_XSP16, literal(-3)))
          CFI ?RET_HIGH load(1, XDATA, add(CFA_XSP16, literal(-4)))
          CFI ?RET_LOW load(1, XDATA, add(CFA_XSP16, literal(-5)))
          CFI R7 load(1, XDATA, add(CFA_XSP16, literal(-6)))
          CFI V5 load(1, XDATA, add(CFA_XSP16, literal(-7)))
          CFI V4 load(1, XDATA, add(CFA_XSP16, literal(-8)))
          CFI V3 load(1, XDATA, add(CFA_XSP16, literal(-9)))
          CFI V2 load(1, XDATA, add(CFA_XSP16, literal(-10)))
          CFI V1 load(1, XDATA, add(CFA_XSP16, literal(-11)))
          CFI V0 load(1, XDATA, add(CFA_XSP16, literal(-12)))
          CFI VB load(1, XDATA, add(CFA_XSP16, literal(-13)))
          CFI R6 load(1, XDATA, add(CFA_XSP16, literal(-14)))
          CFI CFA_SP SP+0
          CFI CFA_XSP16 add(XSP16, 14)
        ; Saved register size: 14
        ; Auto size: 11
        MOV     A,#-0xb
        LCALL   ?ALLOC_XSTACK8
          CFI CFA_XSP16 add(XSP16, 25)
        MOV     A,R2
        MOV     R6,A
        MOV     A,R3
        MOV     R7,A
// 1980   zclEZMode_ActionData_t data;
// 1981   ZDO_MatchDescRsp_t *pMatchDescRsp;
// 1982 
// 1983   // Let EZ-Mode know of the Simple Descriptor Response
// 1984     ZDO_DeviceAnnce_t devAnnce;
// 1985     zAddrType_t addr;
// 1986     afAddrType_t destAddr;
// 1987     uint8 *pData;
// 1988     uint8 address[8];
// 1989     uint8 i;
// 1990     uint8 pValue[Z_EXTADDR_LEN];
// 1991     uint8 pValue1[Z_EXTADDR_LEN];
// 1992     switch ( pMsg->clusterID )
        MOV     A,R6
        ADD     A,#0xc
        MOV     DPL,A
        CLR     A
        ADDC    A,R7
        MOV     DPH,A
        MOVX    A,@DPTR
        MOV     ?V0,A
        INC     DPTR
        MOVX    A,@DPTR
        MOV     ?V1,A
        MOV     R0,#?V0
        LCALL   ?US_SWITCH_SPARSE
`?<Jumptable for zha_project_ProcessZDOMsgs>_0`:
        DATA
        DATA16
        DATA
        DATA16
        DATA
        DATA16
        DW        0
        DATA
        DATA16
        DATA
        DATA16
        DATA
        DATA16
        DW        6
        DATA
        DATA16
        DATA
        DATA16
        DATA
        DATA16
        DW        19
        DATA
        DATA16
        DATA
        DATA16
        DATA
        DATA16
        DW        ??zha_project_ProcessZDOMsgs_0
        DATA
        DATA16
        DATA
        DATA16
        DATA
        DATA16
        DW        32772
        DATA
        DATA16
        DATA
        DATA16
        DATA
        DATA16
        DW        ??zha_project_ProcessZDOMsgs_1
        DATA
        DATA16
        DATA
        DATA16
        DATA
        DATA16
        DW        32773
        DATA
        DATA16
        DATA
        DATA16
        DATA
        DATA16
        DW        ??zha_project_ProcessZDOMsgs_2
        DATA
        DATA16
        DATA
        DATA16
        DATA
        DATA16
        DW        32774
        DATA
        DATA16
        DATA
        DATA16
        DATA
        DATA16
        DW        ??zha_project_ProcessZDOMsgs_3
        DATA
        DATA16
        DATA
        DATA16
        DATA
        DATA16
        DW        32800
        DATA
        DATA16
        DATA
        DATA16
        DATA
        DATA16
        DW        ??zha_project_ProcessZDOMsgs_4
        DATA
        DATA16
        DATA
        DATA16
        DATA
        DATA16
        DW        32801
        DATA
        DATA16
        DATA
        DATA16
        DATA
        DATA16
        DW        ??zha_project_ProcessZDOMsgs_5
        DATA
        DATA16
        DATA
        DATA16
        DW        ??zha_project_ProcessZDOMsgs_6
        CODE
// 1993     {
// 1994         case End_Device_Bind_rsp:
// 1995         {
// 1996             if ( ZDO_ParseBindRsp( pMsg ) == ZSuccess )
??zha_project_ProcessZDOMsgs_4:
        MOV     A,R6
        ADD     A,#0x13
        MOV     DPL,A
        CLR     A
        ADDC    A,R7
        MOV     DPH,A
        LCALL   ?Subroutine22 & 0xFFFF
??CrossCallReturnLabel_46:
        MOVX    A,@DPTR
        JNZ     ??zha_project_ProcessZDOMsgs_7
// 1997             {
// 1998 
// 1999             // Light LED
// 2000             //HalUARTWrite(HAL_UART_PORT_0,"Bind established",sizeof("Bind established"));
// 2001                 HalLedSet( HAL_LED_4, HAL_LED_MODE_ON );
        ; Setup parameters for call to function HalLedSet
        MOV     R2,#0x1
        SJMP    ??zha_project_ProcessZDOMsgs_8
// 2002             }
// 2003             #if defined( BLINK_LEDS )
// 2004             else
// 2005             {
// 2006             // Flash LED to show failure
// 2007                 HalLedSet ( HAL_LED_4, HAL_LED_MODE_FLASH );
??zha_project_ProcessZDOMsgs_7:
        ; Setup parameters for call to function HalLedSet
        MOV     R2,#0x4
??zha_project_ProcessZDOMsgs_8:
        MOV     R1,#0x8
        LCALL   `??HalLedSet::?relay`; Banked call to: HalLedSet
        LJMP    ??zha_project_ProcessZDOMsgs_6 & 0xFFFF
// 2008             }
// 2009             #endif
// 2010             break;
// 2011         }
// 2012         case Match_Desc_rsp:
// 2013         {
// 2014             ZDO_ActiveEndpointRsp_t *pRsp = ZDO_ParseEPListRsp( pMsg );
??zha_project_ProcessZDOMsgs_3:
        ; Setup parameters for call to function ZDO_ParseEPListRsp
        LCALL   `??ZDO_ParseEPListRsp::?relay`; Banked call to: ZDO_ParseEPListRsp
        MOV     ?V0,R2
        MOV     ?V1,R3
        MOV     R6,?V0
        MOV     R7,?V1
// 2015             if ( pRsp )
        MOV     A,R6
        ORL     A,R7
        JNZ     $+5
        LJMP    ??zha_project_ProcessZDOMsgs_6 & 0xFFFF
// 2016             {
// 2017                 if ( pRsp->status == ZSuccess && pRsp->cnt )
        MOV     DPL,R6
        MOV     DPH,R7
        MOVX    A,@DPTR
        JNZ     ??zha_project_ProcessZDOMsgs_9
        INC     DPTR
        INC     DPTR
        INC     DPTR
        MOVX    A,@DPTR
        JZ      ??zha_project_ProcessZDOMsgs_9
// 2018                 {
// 2019                     zha_project_DstAddr.addrMode = (afAddrMode_t)Addr16Bit;
        MOV     DPTR,#zha_project_DstAddr + 8
        LCALL   ?Subroutine7 & 0xFFFF
// 2020                     zha_project_DstAddr.addr.shortAddr = pRsp->nwkAddr;
??CrossCallReturnLabel_140:
        LCALL   ?Subroutine16 & 0xFFFF
??CrossCallReturnLabel_40:
        LCALL   ??Subroutine47_0 & 0xFFFF
// 2021                     // Take the first endpoint, Can be changed to search through endpoints
// 2022                     zha_project_DstAddr.endPoint = pRsp->epList[0];
??CrossCallReturnLabel_142:
        INC     DPTR
        INC     DPTR
        INC     DPTR
        MOVX    A,@DPTR
        MOV     DPTR,#zha_project_DstAddr + 9
        MOVX    @DPTR,A
// 2023 
// 2024                     // Light LED
// 2025                     HalLedSet( HAL_LED_4, HAL_LED_MODE_ON );
        ; Setup parameters for call to function HalLedSet
        MOV     R2,#0x1
        MOV     R1,#0x8
        LCALL   `??HalLedSet::?relay`; Banked call to: HalLedSet
// 2026                 }
// 2027                 osal_mem_free( pRsp );
??zha_project_ProcessZDOMsgs_9:
        ; Setup parameters for call to function osal_mem_free
        LJMP    ??zha_project_ProcessZDOMsgs_10 & 0xFFFF
// 2028             }
// 2029             break;
// 2030         }
// 2031         case Device_annce:
// 2032         { 
// 2033             uint8 k=0;
// 2034             ZDO_ParseDeviceAnnce( pMsg, &devAnnce );
??zha_project_ProcessZDOMsgs_0:
        ; Setup parameters for call to function ZDO_ParseDeviceAnnce
        MOV     R4,?XSP + 0
        MOV     R5,?XSP + 1
        LCALL   `??ZDO_ParseDeviceAnnce::?relay`; Banked call to: ZDO_ParseDeviceAnnce
// 2035             
// 2036 #if ZG_BUILD_COORDINATOR_TYPE            
// 2037             for(i=0;i<5;i++)
        MOV     R6,#0x0
// 2038             {
// 2039 
// 2040                 if(AssociatedDevList[i].shortAddr!=devAnnce.nwkAddr)
??zha_project_ProcessZDOMsgs_11:
        MOV     A,R6
        MOV     B,#0x1c
        MUL     AB
        MOV     R0,A
        MOV     R1,B
        MOV     A,#AssociatedDevList & 0xff
        ADD     A,R0
        MOV     DPL,A
        MOV     A,#(AssociatedDevList >> 8) & 0xff
        ADDC    A,R1
        MOV     DPH,A
        LCALL   ??Subroutine46_0 & 0xFFFF
??CrossCallReturnLabel_132:
        MOV     DPL,?XSP + 0
        MOV     DPH,?XSP + 1
        MOVX    A,@DPTR
        XRL     A,R0
        JNZ     ??zha_project_ProcessZDOMsgs_12
        INC     DPTR
        MOVX    A,@DPTR
        XRL     A,R1
??zha_project_ProcessZDOMsgs_12:
        JZ      ??zha_project_ProcessZDOMsgs_13
// 2041                 {
// 2042                     SetTempDeviceSA(devAnnce.nwkAddr,devAnnce.extAddr);
        ; Setup parameters for call to function SetTempDeviceSA
        MOV     A,#0x2
        LCALL   ?XSTACK_DISP0_8
        MOV     R4,DPL
        MOV     R5,DPH
        MOV     DPL,?XSP + 0
        MOV     DPH,?XSP + 1
        LCALL   ??Subroutine38_0 & 0xFFFF
// 2043                 }
// 2044             }
??CrossCallReturnLabel_65:
        LCALL   `??SetTempDeviceSA::?relay`; Banked call to: SetTempDeviceSA
??zha_project_ProcessZDOMsgs_13:
        INC     R6
        MOV     A,R6
        CLR     C
        SUBB    A,#0x5
        JC      ??zha_project_ProcessZDOMsgs_11
// 2045 #endif
// 2046             // set simple descriptor query event
// 2047             //DelayMS(50);
// 2048             simpleDescReqAddr.addrMode = (afAddrMode_t)Addr16Bit;
        MOV     DPTR,#simpleDescReqAddr + 8
        MOV     A,#0x2
        MOVX    @DPTR,A
// 2049             simpleDescReqAddr.addr.shortAddr = devAnnce.nwkAddr;
        MOV     DPL,?XSP + 0
        MOV     DPH,?XSP + 1
        LCALL   ??Subroutine46_0 & 0xFFFF
??CrossCallReturnLabel_133:
        MOV     DPTR,#simpleDescReqAddr
        MOV     A,R0
        MOVX    @DPTR,A
        INC     DPTR
        MOV     A,R1
        MOVX    @DPTR,A
// 2050 //            afAddrType_t dstAddr;
// 2051 //            dstAddr.addrMode=afAddr16Bit;
// 2052 //            dstAddr.addr.shortAddr=devAnnce.nwkAddr;
// 2053 //            dstAddr.endPoint=1;
// 2054 //            zcl_SendCommand( 1, &dstAddr, ZCL_CLUSTER_ID_GEN_ON_OFF, COMMAND_OFF, TRUE, ZCL_FRAME_CLIENT_SERVER_DIR, FALSE, 0, 0, 0, NULL );
// 2055             //osal_start_timerEx( zha_project_TaskID, ZHA_ATTRIBUTE_REQ_EVT ,50);
// 2056             //osal_start_timerEx( zha_project_TaskID, ZHA_ATTRIBUTE_POWER_EVT,100);
// 2057             //osal_start_timerEx( zha_project_TaskID, ZHA_ACTIVE_EP_EVT,150);
// 2058             //osal_start_timerEx( zha_project_TaskID, SIMPLE_DESC_QUERY_EVT,200);
// 2059             osal_set_event( zha_project_TaskID, ZHA_ATTRIBUTE_REQ_EVT );
        ; Setup parameters for call to function osal_set_event
        MOV     R2,#0x4
        MOV     R3,#0x0
        MOV     DPTR,#zha_project_TaskID
        MOVX    A,@DPTR
        MOV     R1,A
        LCALL   `??osal_set_event::?relay`; Banked call to: osal_set_event
// 2060             break;
        LJMP    ??zha_project_ProcessZDOMsgs_6 & 0xFFFF
// 2061         }
// 2062 
// 2063         case Active_EP_rsp:
// 2064         {
// 2065             ZDO_ActiveEndpointRsp_t *pRsp = ZDO_ParseEPListRsp( pMsg );
??zha_project_ProcessZDOMsgs_2:
        ; Setup parameters for call to function ZDO_ParseEPListRsp
        LCALL   `??ZDO_ParseEPListRsp::?relay`; Banked call to: ZDO_ParseEPListRsp
        MOV     ?V0,R2
        MOV     ?V1,R3
        MOV     R6,?V0
        MOV     R7,?V1
// 2066             *zha_project_ActiveEP = *pRsp;
        MOV     DPTR,#zha_project_ActiveEP
        LCALL   ?Subroutine29 & 0xFFFF
??CrossCallReturnLabel_53:
        MOV     DPH,R3
        MOV     DPL,R2
        MOV     A,#0x4
        LCALL   ?MOVE_LONG8_XDATA_XDATA
// 2067             osal_memset(ep,0,sizeof(ep));
        ; Setup parameters for call to function osal_memset
        MOV     R4,#0x5
        MOV     R5,A
        MOV     R1,A
        MOV     R2,#ep & 0xff
        MOV     R3,#(ep >> 8) & 0xff
        LCALL   `??osal_memset::?relay`; Banked call to: osal_memset
// 2068             osal_memcpy(ep,pRsp->epList,pRsp->cnt);
        ; Setup parameters for call to function osal_memcpy
        MOV     A,R6
        ADD     A,#0x4
        MOV     ?V0,A
        CLR     A
        ADDC    A,R7
        MOV     ?V1,A
        MOV     ?V2,#0x0
        MOV     R0,#?V0
        LCALL   ?PUSH_XSTACK_I_THREE
          CFI CFA_XSP16 add(XSP16, 28)
        MOV     DPL,R6
        MOV     DPH,R7
        INC     DPTR
        INC     DPTR
        INC     DPTR
        MOVX    A,@DPTR
        MOV     R4,A
        MOV     R5,#0x0
        MOV     R2,#ep & 0xff
        MOV     R3,#(ep >> 8) & 0xff
        LCALL   `??osal_memcpy::?relay`; Banked call to: osal_memcpy
        MOV     A,#0x3
        LCALL   ?DEALLOC_XSTACK8
          CFI CFA_XSP16 add(XSP16, 25)
// 2069             simpleDescReqAddr.addrMode = (afAddrMode_t)Addr16Bit;
        MOV     DPTR,#simpleDescReqAddr + 8
        LCALL   ?Subroutine7 & 0xFFFF
// 2070             simpleDescReqAddr.addr.shortAddr = pRsp->nwkAddr;
??CrossCallReturnLabel_141:
        MOV     R0,DPL
        MOV     R1,DPH
        LCALL   ??Subroutine38_0 & 0xFFFF
??CrossCallReturnLabel_66:
        MOV     DPTR,#simpleDescReqAddr
        MOV     A,R2
        MOVX    @DPTR,A
        INC     DPTR
        MOV     A,R3
        MOVX    @DPTR,A
// 2071             //HalUARTWrite(HAL_UART_PORT_0,ep,pRsp->cnt);
// 2072             //zha_project_ActiveEP.status = pRsp->status;
// 2073             //zha_project_ActiveEP.nwkAddr= pRsp->nwkAddr;
// 2074             //osal_memcpy(zha_project_ActiveEP.epList,pRsp->epList,sizeof(uint8));
// 2075             //zha_project_ActiveEP.epList[] = pRsp->epList[];
// 2076             //DelayMS(50);
// 2077 #if ZG_BUILD_COORDINATOR_TYPE            
// 2078             SetTempDeviceEP(pRsp->nwkAddr , ep );
        ; Setup parameters for call to function SetTempDeviceEP
        MOV     R4,#ep & 0xff
        MOV     R5,#(ep >> 8) & 0xff
        MOV     DPL,R0
        MOV     DPH,R1
        LCALL   ??Subroutine38_0 & 0xFFFF
??CrossCallReturnLabel_67:
        LCALL   `??SetTempDeviceEP::?relay`; Banked call to: SetTempDeviceEP
// 2079 #endif
// 2080             osal_set_event( zha_project_TaskID, SIMPLE_DESC_QUERY_EVT );
        ; Setup parameters for call to function osal_set_event
        MOV     R2,#0x10
        MOV     R3,#0x0
        MOV     DPTR,#zha_project_TaskID
        MOVX    A,@DPTR
        MOV     R1,A
        LCALL   `??osal_set_event::?relay`; Banked call to: osal_set_event
// 2081             osal_mem_free( pRsp ); 
        ; Setup parameters for call to function osal_mem_free
??zha_project_ProcessZDOMsgs_10:
        MOV     A,R6
        MOV     R2,A
        MOV     A,R7
        MOV     R3,A
        LJMP    ??zha_project_ProcessZDOMsgs_14 & 0xFFFF
// 2082             break;
// 2083         }
// 2084         case Simple_Desc_rsp:
// 2085         {
// 2086             uint8 k=0;
// 2087             ZDO_SimpleDescRsp_t *pSimpleDescRsp;   // pointer to received simple desc response
// 2088             pSimpleDescRsp = (ZDO_SimpleDescRsp_t *)osal_mem_alloc( sizeof( ZDO_SimpleDescRsp_t ) );
??zha_project_ProcessZDOMsgs_1:
        ; Setup parameters for call to function osal_mem_alloc
        MOV     R2,#0xf
        MOV     R3,#0x0
        LCALL   `??osal_mem_alloc::?relay`; Banked call to: osal_mem_alloc
        MOV     ?V0,R2
        MOV     ?V1,R3
// 2089 
// 2090 
// 2091             if(pSimpleDescRsp)
        MOV     A,R2
        ORL     A,?V1
        JNZ     $+5
        LJMP    ??zha_project_ProcessZDOMsgs_6 & 0xFFFF
// 2092             {
// 2093                 pSimpleDescRsp->simpleDesc.pAppInClusterList = NULL;
        MOV     A,R2
        ADD     A,#0xa
        MOV     ?V4,A
        CLR     A
        ADDC    A,?V1
        MOV     ?V5,A
        MOV     DPL,?V4
        MOV     DPH,A
        CLR     A
        MOVX    @DPTR,A
        INC     DPTR
        MOVX    @DPTR,A
// 2094                 pSimpleDescRsp->simpleDesc.pAppOutClusterList = NULL;
        MOV     A,R2
        ADD     A,#0xd
        MOV     ?V2,A
        CLR     A
        ADDC    A,?V1
        MOV     ?V3,A
        MOV     DPL,?V2
        MOV     DPH,A
        CLR     A
        MOVX    @DPTR,A
        INC     DPTR
        MOVX    @DPTR,A
// 2095 
// 2096                 ZDO_ParseSimpleDescRsp( pMsg, pSimpleDescRsp );
        ; Setup parameters for call to function ZDO_ParseSimpleDescRsp
        MOV     R4,?V0
        MOV     R5,?V1
        MOV     A,R6
        MOV     R2,A
        MOV     A,R7
        MOV     R3,A
        LCALL   `??ZDO_ParseSimpleDescRsp::?relay`; Banked call to: ZDO_ParseSimpleDescRsp
// 2097 #if ZG_BUILD_COORDINATOR_TYPE
// 2098                 if(pSimpleDescRsp->simpleDesc.AppDeviceId ==0x0402)
        MOV     DPL,?V0
        MOV     DPH,?V1
        INC     DPTR
        INC     DPTR
        INC     DPTR
        INC     DPTR
        INC     DPTR
        INC     DPTR
        LCALL   ?Subroutine29 & 0xFFFF
??CrossCallReturnLabel_54:
        MOV     A,#0x2
        XRL     A,R4
        JNZ     ??zha_project_ProcessZDOMsgs_15
        MOV     A,#0x4
        XRL     A,R5
??zha_project_ProcessZDOMsgs_15:
        JNZ     ??zha_project_ProcessZDOMsgs_16
// 2099                 {
// 2100 //                    afAddrType_t  dscReqAddr;
// 2101 //                    dscReqAddr.addrMode=afAddr16Bit;
// 2102 //                    dscReqAddr.addr.shortAddr=pSimpleDescRsp->nwkAddr;
// 2103 //                    dscReqAddr.endPoint=1;
// 2104 //                    zclReadCmd_t BasicAttrsList;
// 2105 //                    BasicAttrsList.numAttr = 1;
// 2106 //                    BasicAttrsList.attrID[0] = ATTRID_SS_IAS_ZONE_TYPE;
// 2107 //                    zcl_SendRead( 1, &dscReqAddr,
// 2108 //                    ZCL_CLUSTER_ID_SS_IAS_ZONE, &BasicAttrsList,
// 2109 //                    ZCL_FRAME_CLIENT_SERVER_DIR, 0, 0); 
// 2110                     osal_start_timerEx( zha_project_TaskID, ZONE_TYPE_EVT,200);
        ; Setup parameters for call to function osal_start_timerEx
        MOV     DPTR,#__Constant_c8
        LCALL   ?PUSH_XSTACK8_X_FOUR
          CFI CFA_XSP16 add(XSP16, 29)
        MOV     R2,#0x20
        MOV     R3,#0x0
        MOV     DPTR,#zha_project_TaskID
        MOVX    A,@DPTR
        MOV     R1,A
        LCALL   `??osal_start_timerEx::?relay`; Banked call to: osal_start_timerEx
        MOV     A,#0x4
        LCALL   ?DEALLOC_XSTACK8
          CFI CFA_XSP16 add(XSP16, 25)
// 2111                     osal_set_event( zha_project_TaskID, ZONE_TYPE_EVT );
        ; Setup parameters for call to function osal_set_event
        MOV     R2,#0x20
        MOV     R3,#0x0
        MOV     DPTR,#zha_project_TaskID
        MOVX    A,@DPTR
        MOV     R1,A
        LCALL   `??osal_set_event::?relay`; Banked call to: osal_set_event
        SJMP    ??zha_project_ProcessZDOMsgs_17
// 2112                     //DelayMS(100);
// 2113                     //zclSampleCIE_WriteIAS_CIE_Address(&destAddr); 
// 2114                 }
// 2115                 else
// 2116                     SetTempDeviceType(pSimpleDescRsp->nwkAddr,pSimpleDescRsp->simpleDesc.AppDeviceId);
??zha_project_ProcessZDOMsgs_16:
        ; Setup parameters for call to function SetTempDeviceType
        MOV     DPL,?V0
        MOV     DPH,?V1
        INC     DPTR
        LCALL   ??Subroutine38_0 & 0xFFFF
??CrossCallReturnLabel_68:
        LCALL   `??SetTempDeviceType::?relay`; Banked call to: SetTempDeviceType
// 2117 #endif
// 2118                 //osal_mem_free( pSimpleDescRsp );
// 2119                 // free memory for InClusterList
// 2120                 if (pSimpleDescRsp->simpleDesc.pAppInClusterList)
??zha_project_ProcessZDOMsgs_17:
        MOV     DPL,?V4
        MOV     DPH,?V5
        LCALL   ??Subroutine35_0 & 0xFFFF
??CrossCallReturnLabel_61:
        JZ      ??zha_project_ProcessZDOMsgs_18
// 2121                 {
// 2122                     osal_mem_free(pSimpleDescRsp->simpleDesc.pAppInClusterList);
        ; Setup parameters for call to function osal_mem_free
        LCALL   `??osal_mem_free::?relay`; Banked call to: osal_mem_free
// 2123                 }
// 2124 
// 2125                 // free memory for OutClusterList
// 2126                 if (pSimpleDescRsp->simpleDesc.pAppOutClusterList)
??zha_project_ProcessZDOMsgs_18:
        LCALL   ?Subroutine18 & 0xFFFF
??CrossCallReturnLabel_63:
        JZ      ??zha_project_ProcessZDOMsgs_19
// 2127                 {
// 2128                     osal_mem_free(pSimpleDescRsp->simpleDesc.pAppOutClusterList);
        ; Setup parameters for call to function osal_mem_free
        LCALL   `??osal_mem_free::?relay`; Banked call to: osal_mem_free
// 2129                 }
// 2130 
// 2131                 osal_mem_free( pSimpleDescRsp );
??zha_project_ProcessZDOMsgs_19:
        ; Setup parameters for call to function osal_mem_free
        MOV     R2,?V0
        MOV     R3,?V1
        SJMP    ??zha_project_ProcessZDOMsgs_14
// 2132             }
// 2133             break;
// 2134         }
// 2135 
// 2136         case Bind_rsp:
// 2137             ZDO_MgmtBindRsp_t *Bind_pRsp =ZDO_ParseMgmtBindRsp( pMsg ) ;
??zha_project_ProcessZDOMsgs_5:
        ; Setup parameters for call to function ZDO_ParseMgmtBindRsp
        LCALL   `??ZDO_ParseMgmtBindRsp::?relay`; Banked call to: ZDO_ParseMgmtBindRsp
// 2138             afAddrType_t  dscReqAddr;
// 2139             dscReqAddr.addrMode=afAddr16Bit;
// 2140             if ( Bind_pRsp )
// 2141             {
// 2142               //osal_memcpy(dstAddr.addr.extAddr,NWK_command.NWK_General_Frame.NWKCG_TargetAddress,8);
// 2143               //dstAddr.addr.shortAddr=Node_Info.uiNwk_Addr;
// 2144               dscReqAddr.addr.shortAddr=AssociatedDevList[0].shortAddr;
// 2145               dscReqAddr.endPoint=0x01;
// 2146               //zclSampleCIE_WriteIAS_CIE_Address(&dscReqAddr);   
// 2147             }
// 2148             osal_mem_free( Bind_pRsp );
        ; Setup parameters for call to function osal_mem_free
??zha_project_ProcessZDOMsgs_14:
        LCALL   `??osal_mem_free::?relay`; Banked call to: osal_mem_free
// 2149             break;
// 2150         default:
// 2151             break;
// 2152     }
// 2153 }
??zha_project_ProcessZDOMsgs_6:
        MOV     A,#0xb
        LCALL   ?DEALLOC_XSTACK8
          CFI CFA_XSP16 add(XSP16, 14)
        MOV     R7,#0x6
        LJMP    ?BANKED_LEAVE_XDATA
          CFI EndBlock cfiBlock335

        RSEG BANKED_CODE:CODE:NOROOT(0)
?Subroutine22:
          CFI Block cfiCond336 Using cfiCommon0
          CFI Function zha_project_event_loop
          CFI Conditional ??CrossCallReturnLabel_45
          CFI R6 load(1, XDATA, add(CFA_XSP16, literal(-12)))
          CFI VB load(1, XDATA, add(CFA_XSP16, literal(-11)))
          CFI V0 load(1, XDATA, add(CFA_XSP16, literal(-10)))
          CFI V1 load(1, XDATA, add(CFA_XSP16, literal(-9)))
          CFI V2 load(1, XDATA, add(CFA_XSP16, literal(-8)))
          CFI V3 load(1, XDATA, add(CFA_XSP16, literal(-7)))
          CFI R7 load(1, XDATA, add(CFA_XSP16, literal(-6)))
          CFI ?RET_LOW load(1, XDATA, add(CFA_XSP16, literal(-5)))
          CFI ?RET_HIGH load(1, XDATA, add(CFA_XSP16, literal(-4)))
          CFI ?BRET_EXT load(1, XDATA, add(CFA_XSP16, literal(-3)))
          CFI DPL0 load(1, XDATA, add(CFA_XSP16, literal(-2)))
          CFI DPH0 load(1, XDATA, add(CFA_XSP16, literal(-1)))
          CFI CFA_SP SP+-2
          CFI CFA_XSP16 add(XSP16, 65)
          CFI Block cfiCond337 Using cfiCommon0
          CFI (cfiCond337) Function zha_project_ProcessZDOMsgs
          CFI (cfiCond337) Conditional ??CrossCallReturnLabel_46
          CFI (cfiCond337) R6 load(1, XDATA, add(CFA_XSP16, literal(-14)))
          CFI (cfiCond337) VB load(1, XDATA, add(CFA_XSP16, literal(-13)))
          CFI (cfiCond337) V0 load(1, XDATA, add(CFA_XSP16, literal(-12)))
          CFI (cfiCond337) V1 load(1, XDATA, add(CFA_XSP16, literal(-11)))
          CFI (cfiCond337) V2 load(1, XDATA, add(CFA_XSP16, literal(-10)))
          CFI (cfiCond337) V3 load(1, XDATA, add(CFA_XSP16, literal(-9)))
          CFI (cfiCond337) V4 load(1, XDATA, add(CFA_XSP16, literal(-8)))
          CFI (cfiCond337) V5 load(1, XDATA, add(CFA_XSP16, literal(-7)))
          CFI (cfiCond337) R7 load(1, XDATA, add(CFA_XSP16, literal(-6)))
          CFI (cfiCond337) ?RET_LOW load(1, XDATA, add(CFA_XSP16, literal(-5)))
          CFI (cfiCond337) ?RET_HIGH load(1, XDATA, add(CFA_XSP16, literal(-4)))
          CFI (cfiCond337) ?BRET_EXT load(1, XDATA, add(CFA_XSP16, literal(-3)))
          CFI (cfiCond337) DPL0 load(1, XDATA, add(CFA_XSP16, literal(-2)))
          CFI (cfiCond337) DPH0 load(1, XDATA, add(CFA_XSP16, literal(-1)))
          CFI (cfiCond337) CFA_SP SP+-2
          CFI (cfiCond337) CFA_XSP16 add(XSP16, 25)
          CFI Block cfiPicker338 Using cfiCommon1
          CFI (cfiPicker338) NoFunction
          CFI (cfiPicker338) Picker
        LCALL   ?Subroutine30 & 0xFFFF
??CrossCallReturnLabel_58:
        RET
          CFI EndBlock cfiCond336
          CFI EndBlock cfiCond337
          CFI EndBlock cfiPicker338

        RSEG BANKED_CODE:CODE:NOROOT(0)
?Subroutine30:
          CFI Block cfiCond339 Using cfiCommon0
          CFI Function zha_project_ProcessInReadRspCmd
          CFI Conditional ??CrossCallReturnLabel_57, ??CrossCallReturnLabel_111
          CFI R6 load(1, XDATA, add(CFA_XSP16, literal(-20)))
          CFI VB load(1, XDATA, add(CFA_XSP16, literal(-19)))
          CFI V0 load(1, XDATA, add(CFA_XSP16, literal(-18)))
          CFI V1 load(1, XDATA, add(CFA_XSP16, literal(-17)))
          CFI V2 load(1, XDATA, add(CFA_XSP16, literal(-16)))
          CFI V3 load(1, XDATA, add(CFA_XSP16, literal(-15)))
          CFI V4 load(1, XDATA, add(CFA_XSP16, literal(-14)))
          CFI V5 load(1, XDATA, add(CFA_XSP16, literal(-13)))
          CFI V6 load(1, XDATA, add(CFA_XSP16, literal(-12)))
          CFI V7 load(1, XDATA, add(CFA_XSP16, literal(-11)))
          CFI V8 load(1, XDATA, add(CFA_XSP16, literal(-10)))
          CFI V9 load(1, XDATA, add(CFA_XSP16, literal(-9)))
          CFI V10 load(1, XDATA, add(CFA_XSP16, literal(-8)))
          CFI V11 load(1, XDATA, add(CFA_XSP16, literal(-7)))
          CFI R7 load(1, XDATA, add(CFA_XSP16, literal(-6)))
          CFI ?RET_LOW load(1, XDATA, add(CFA_XSP16, literal(-5)))
          CFI ?RET_HIGH load(1, XDATA, add(CFA_XSP16, literal(-4)))
          CFI ?BRET_EXT load(1, XDATA, add(CFA_XSP16, literal(-3)))
          CFI DPL0 load(1, XDATA, add(CFA_XSP16, literal(-2)))
          CFI DPH0 load(1, XDATA, add(CFA_XSP16, literal(-1)))
          CFI CFA_SP SP+-4
          CFI CFA_XSP16 add(XSP16, 63)
          CFI Block cfiCond340 Using cfiCommon0
          CFI (cfiCond340) Function zha_project_ProcessInReportCmd
          CFI (cfiCond340) Conditional ??CrossCallReturnLabel_57, ??CrossCallReturnLabel_112
          CFI (cfiCond340) R6 load(1, XDATA, add(CFA_XSP16, literal(-20)))
          CFI (cfiCond340) VB load(1, XDATA, add(CFA_XSP16, literal(-19)))
          CFI (cfiCond340) V0 load(1, XDATA, add(CFA_XSP16, literal(-18)))
          CFI (cfiCond340) V1 load(1, XDATA, add(CFA_XSP16, literal(-17)))
          CFI (cfiCond340) V2 load(1, XDATA, add(CFA_XSP16, literal(-16)))
          CFI (cfiCond340) V3 load(1, XDATA, add(CFA_XSP16, literal(-15)))
          CFI (cfiCond340) V4 load(1, XDATA, add(CFA_XSP16, literal(-14)))
          CFI (cfiCond340) V5 load(1, XDATA, add(CFA_XSP16, literal(-13)))
          CFI (cfiCond340) V6 load(1, XDATA, add(CFA_XSP16, literal(-12)))
          CFI (cfiCond340) V7 load(1, XDATA, add(CFA_XSP16, literal(-11)))
          CFI (cfiCond340) V8 load(1, XDATA, add(CFA_XSP16, literal(-10)))
          CFI (cfiCond340) V9 load(1, XDATA, add(CFA_XSP16, literal(-9)))
          CFI (cfiCond340) V10 load(1, XDATA, add(CFA_XSP16, literal(-8)))
          CFI (cfiCond340) V11 load(1, XDATA, add(CFA_XSP16, literal(-7)))
          CFI (cfiCond340) R7 load(1, XDATA, add(CFA_XSP16, literal(-6)))
          CFI (cfiCond340) ?RET_LOW load(1, XDATA, add(CFA_XSP16, literal(-5)))
          CFI (cfiCond340) ?RET_HIGH load(1, XDATA, add(CFA_XSP16, literal(-4)))
          CFI (cfiCond340) ?BRET_EXT load(1, XDATA, add(CFA_XSP16, literal(-3)))
          CFI (cfiCond340) DPL0 load(1, XDATA, add(CFA_XSP16, literal(-2)))
          CFI (cfiCond340) DPH0 load(1, XDATA, add(CFA_XSP16, literal(-1)))
          CFI (cfiCond340) CFA_SP SP+-4
          CFI (cfiCond340) CFA_XSP16 add(XSP16, 63)
          CFI Block cfiCond341 Using cfiCommon0
          CFI (cfiCond341) Function zha_project_event_loop
          CFI (cfiCond341) Conditional ??CrossCallReturnLabel_58, ??CrossCallReturnLabel_45
          CFI (cfiCond341) R6 load(1, XDATA, add(CFA_XSP16, literal(-12)))
          CFI (cfiCond341) VB load(1, XDATA, add(CFA_XSP16, literal(-11)))
          CFI (cfiCond341) V0 load(1, XDATA, add(CFA_XSP16, literal(-10)))
          CFI (cfiCond341) V1 load(1, XDATA, add(CFA_XSP16, literal(-9)))
          CFI (cfiCond341) V2 load(1, XDATA, add(CFA_XSP16, literal(-8)))
          CFI (cfiCond341) V3 load(1, XDATA, add(CFA_XSP16, literal(-7)))
          CFI (cfiCond341) R7 load(1, XDATA, add(CFA_XSP16, literal(-6)))
          CFI (cfiCond341) ?RET_LOW load(1, XDATA, add(CFA_XSP16, literal(-5)))
          CFI (cfiCond341) ?RET_HIGH load(1, XDATA, add(CFA_XSP16, literal(-4)))
          CFI (cfiCond341) ?BRET_EXT load(1, XDATA, add(CFA_XSP16, literal(-3)))
          CFI (cfiCond341) DPL0 load(1, XDATA, add(CFA_XSP16, literal(-2)))
          CFI (cfiCond341) DPH0 load(1, XDATA, add(CFA_XSP16, literal(-1)))
          CFI (cfiCond341) CFA_SP SP+-4
          CFI (cfiCond341) CFA_XSP16 add(XSP16, 65)
          CFI Block cfiCond342 Using cfiCommon0
          CFI (cfiCond342) Function zha_project_ProcessZDOMsgs
          CFI (cfiCond342) Conditional ??CrossCallReturnLabel_58, ??CrossCallReturnLabel_46
          CFI (cfiCond342) R6 load(1, XDATA, add(CFA_XSP16, literal(-14)))
          CFI (cfiCond342) VB load(1, XDATA, add(CFA_XSP16, literal(-13)))
          CFI (cfiCond342) V0 load(1, XDATA, add(CFA_XSP16, literal(-12)))
          CFI (cfiCond342) V1 load(1, XDATA, add(CFA_XSP16, literal(-11)))
          CFI (cfiCond342) V2 load(1, XDATA, add(CFA_XSP16, literal(-10)))
          CFI (cfiCond342) V3 load(1, XDATA, add(CFA_XSP16, literal(-9)))
          CFI (cfiCond342) V4 load(1, XDATA, add(CFA_XSP16, literal(-8)))
          CFI (cfiCond342) V5 load(1, XDATA, add(CFA_XSP16, literal(-7)))
          CFI (cfiCond342) R7 load(1, XDATA, add(CFA_XSP16, literal(-6)))
          CFI (cfiCond342) ?RET_LOW load(1, XDATA, add(CFA_XSP16, literal(-5)))
          CFI (cfiCond342) ?RET_HIGH load(1, XDATA, add(CFA_XSP16, literal(-4)))
          CFI (cfiCond342) ?BRET_EXT load(1, XDATA, add(CFA_XSP16, literal(-3)))
          CFI (cfiCond342) DPL0 load(1, XDATA, add(CFA_XSP16, literal(-2)))
          CFI (cfiCond342) DPH0 load(1, XDATA, add(CFA_XSP16, literal(-1)))
          CFI (cfiCond342) CFA_SP SP+-4
          CFI (cfiCond342) CFA_XSP16 add(XSP16, 25)
          CFI Block cfiPicker343 Using cfiCommon1
          CFI (cfiPicker343) NoFunction
          CFI (cfiPicker343) Picker
        MOVX    A,@DPTR
        MOV     R0,A
        INC     DPTR
        MOVX    A,@DPTR
        MOV     DPH,A
        MOV     DPL,R0
        RET
          CFI EndBlock cfiCond339
          CFI EndBlock cfiCond340
          CFI EndBlock cfiCond341
          CFI EndBlock cfiCond342
          CFI EndBlock cfiPicker343

        RSEG BANKED_CODE:CODE:NOROOT(0)
?Subroutine17:
          CFI Block cfiCond344 Using cfiCommon0
          CFI Function zha_project_ProcessInReadRspCmd
          CFI Conditional ??CrossCallReturnLabel_134
          CFI R6 load(1, XDATA, add(CFA_XSP16, literal(-20)))
          CFI VB load(1, XDATA, add(CFA_XSP16, literal(-19)))
          CFI V0 load(1, XDATA, add(CFA_XSP16, literal(-18)))
          CFI V1 load(1, XDATA, add(CFA_XSP16, literal(-17)))
          CFI V2 load(1, XDATA, add(CFA_XSP16, literal(-16)))
          CFI V3 load(1, XDATA, add(CFA_XSP16, literal(-15)))
          CFI V4 load(1, XDATA, add(CFA_XSP16, literal(-14)))
          CFI V5 load(1, XDATA, add(CFA_XSP16, literal(-13)))
          CFI V6 load(1, XDATA, add(CFA_XSP16, literal(-12)))
          CFI V7 load(1, XDATA, add(CFA_XSP16, literal(-11)))
          CFI V8 load(1, XDATA, add(CFA_XSP16, literal(-10)))
          CFI V9 load(1, XDATA, add(CFA_XSP16, literal(-9)))
          CFI V10 load(1, XDATA, add(CFA_XSP16, literal(-8)))
          CFI V11 load(1, XDATA, add(CFA_XSP16, literal(-7)))
          CFI R7 load(1, XDATA, add(CFA_XSP16, literal(-6)))
          CFI ?RET_LOW load(1, XDATA, add(CFA_XSP16, literal(-5)))
          CFI ?RET_HIGH load(1, XDATA, add(CFA_XSP16, literal(-4)))
          CFI ?BRET_EXT load(1, XDATA, add(CFA_XSP16, literal(-3)))
          CFI DPL0 load(1, XDATA, add(CFA_XSP16, literal(-2)))
          CFI DPH0 load(1, XDATA, add(CFA_XSP16, literal(-1)))
          CFI CFA_SP SP+-2
          CFI CFA_XSP16 add(XSP16, 63)
          CFI Block cfiCond345 Using cfiCommon0
          CFI (cfiCond345) Function zha_project_ProcessInReadRspCmd
          CFI (cfiCond345) Conditional ??CrossCallReturnLabel_135
          CFI (cfiCond345) R6 load(1, XDATA, add(CFA_XSP16, literal(-20)))
          CFI (cfiCond345) VB load(1, XDATA, add(CFA_XSP16, literal(-19)))
          CFI (cfiCond345) V0 load(1, XDATA, add(CFA_XSP16, literal(-18)))
          CFI (cfiCond345) V1 load(1, XDATA, add(CFA_XSP16, literal(-17)))
          CFI (cfiCond345) V2 load(1, XDATA, add(CFA_XSP16, literal(-16)))
          CFI (cfiCond345) V3 load(1, XDATA, add(CFA_XSP16, literal(-15)))
          CFI (cfiCond345) V4 load(1, XDATA, add(CFA_XSP16, literal(-14)))
          CFI (cfiCond345) V5 load(1, XDATA, add(CFA_XSP16, literal(-13)))
          CFI (cfiCond345) V6 load(1, XDATA, add(CFA_XSP16, literal(-12)))
          CFI (cfiCond345) V7 load(1, XDATA, add(CFA_XSP16, literal(-11)))
          CFI (cfiCond345) V8 load(1, XDATA, add(CFA_XSP16, literal(-10)))
          CFI (cfiCond345) V9 load(1, XDATA, add(CFA_XSP16, literal(-9)))
          CFI (cfiCond345) V10 load(1, XDATA, add(CFA_XSP16, literal(-8)))
          CFI (cfiCond345) V11 load(1, XDATA, add(CFA_XSP16, literal(-7)))
          CFI (cfiCond345) R7 load(1, XDATA, add(CFA_XSP16, literal(-6)))
          CFI (cfiCond345) ?RET_LOW load(1, XDATA, add(CFA_XSP16, literal(-5)))
          CFI (cfiCond345) ?RET_HIGH load(1, XDATA, add(CFA_XSP16, literal(-4)))
          CFI (cfiCond345) ?BRET_EXT load(1, XDATA, add(CFA_XSP16, literal(-3)))
          CFI (cfiCond345) DPL0 load(1, XDATA, add(CFA_XSP16, literal(-2)))
          CFI (cfiCond345) DPH0 load(1, XDATA, add(CFA_XSP16, literal(-1)))
          CFI (cfiCond345) CFA_SP SP+-2
          CFI (cfiCond345) CFA_XSP16 add(XSP16, 63)
          CFI Block cfiCond346 Using cfiCommon0
          CFI (cfiCond346) Function zha_project_ProcessInReadRspCmd
          CFI (cfiCond346) Conditional ??CrossCallReturnLabel_136
          CFI (cfiCond346) R6 load(1, XDATA, add(CFA_XSP16, literal(-20)))
          CFI (cfiCond346) VB load(1, XDATA, add(CFA_XSP16, literal(-19)))
          CFI (cfiCond346) V0 load(1, XDATA, add(CFA_XSP16, literal(-18)))
          CFI (cfiCond346) V1 load(1, XDATA, add(CFA_XSP16, literal(-17)))
          CFI (cfiCond346) V2 load(1, XDATA, add(CFA_XSP16, literal(-16)))
          CFI (cfiCond346) V3 load(1, XDATA, add(CFA_XSP16, literal(-15)))
          CFI (cfiCond346) V4 load(1, XDATA, add(CFA_XSP16, literal(-14)))
          CFI (cfiCond346) V5 load(1, XDATA, add(CFA_XSP16, literal(-13)))
          CFI (cfiCond346) V6 load(1, XDATA, add(CFA_XSP16, literal(-12)))
          CFI (cfiCond346) V7 load(1, XDATA, add(CFA_XSP16, literal(-11)))
          CFI (cfiCond346) V8 load(1, XDATA, add(CFA_XSP16, literal(-10)))
          CFI (cfiCond346) V9 load(1, XDATA, add(CFA_XSP16, literal(-9)))
          CFI (cfiCond346) V10 load(1, XDATA, add(CFA_XSP16, literal(-8)))
          CFI (cfiCond346) V11 load(1, XDATA, add(CFA_XSP16, literal(-7)))
          CFI (cfiCond346) R7 load(1, XDATA, add(CFA_XSP16, literal(-6)))
          CFI (cfiCond346) ?RET_LOW load(1, XDATA, add(CFA_XSP16, literal(-5)))
          CFI (cfiCond346) ?RET_HIGH load(1, XDATA, add(CFA_XSP16, literal(-4)))
          CFI (cfiCond346) ?BRET_EXT load(1, XDATA, add(CFA_XSP16, literal(-3)))
          CFI (cfiCond346) DPL0 load(1, XDATA, add(CFA_XSP16, literal(-2)))
          CFI (cfiCond346) DPH0 load(1, XDATA, add(CFA_XSP16, literal(-1)))
          CFI (cfiCond346) CFA_SP SP+-2
          CFI (cfiCond346) CFA_XSP16 add(XSP16, 63)
          CFI Block cfiCond347 Using cfiCommon0
          CFI (cfiCond347) Function zha_project_ProcessInReportCmd
          CFI (cfiCond347) Conditional ??CrossCallReturnLabel_137
          CFI (cfiCond347) R6 load(1, XDATA, add(CFA_XSP16, literal(-20)))
          CFI (cfiCond347) VB load(1, XDATA, add(CFA_XSP16, literal(-19)))
          CFI (cfiCond347) V0 load(1, XDATA, add(CFA_XSP16, literal(-18)))
          CFI (cfiCond347) V1 load(1, XDATA, add(CFA_XSP16, literal(-17)))
          CFI (cfiCond347) V2 load(1, XDATA, add(CFA_XSP16, literal(-16)))
          CFI (cfiCond347) V3 load(1, XDATA, add(CFA_XSP16, literal(-15)))
          CFI (cfiCond347) V4 load(1, XDATA, add(CFA_XSP16, literal(-14)))
          CFI (cfiCond347) V5 load(1, XDATA, add(CFA_XSP16, literal(-13)))
          CFI (cfiCond347) V6 load(1, XDATA, add(CFA_XSP16, literal(-12)))
          CFI (cfiCond347) V7 load(1, XDATA, add(CFA_XSP16, literal(-11)))
          CFI (cfiCond347) V8 load(1, XDATA, add(CFA_XSP16, literal(-10)))
          CFI (cfiCond347) V9 load(1, XDATA, add(CFA_XSP16, literal(-9)))
          CFI (cfiCond347) V10 load(1, XDATA, add(CFA_XSP16, literal(-8)))
          CFI (cfiCond347) V11 load(1, XDATA, add(CFA_XSP16, literal(-7)))
          CFI (cfiCond347) R7 load(1, XDATA, add(CFA_XSP16, literal(-6)))
          CFI (cfiCond347) ?RET_LOW load(1, XDATA, add(CFA_XSP16, literal(-5)))
          CFI (cfiCond347) ?RET_HIGH load(1, XDATA, add(CFA_XSP16, literal(-4)))
          CFI (cfiCond347) ?BRET_EXT load(1, XDATA, add(CFA_XSP16, literal(-3)))
          CFI (cfiCond347) DPL0 load(1, XDATA, add(CFA_XSP16, literal(-2)))
          CFI (cfiCond347) DPH0 load(1, XDATA, add(CFA_XSP16, literal(-1)))
          CFI (cfiCond347) CFA_SP SP+-2
          CFI (cfiCond347) CFA_XSP16 add(XSP16, 63)
          CFI Block cfiCond348 Using cfiCommon0
          CFI (cfiCond348) Function zha_project_ProcessInReportCmd
          CFI (cfiCond348) Conditional ??CrossCallReturnLabel_138
          CFI (cfiCond348) R6 load(1, XDATA, add(CFA_XSP16, literal(-20)))
          CFI (cfiCond348) VB load(1, XDATA, add(CFA_XSP16, literal(-19)))
          CFI (cfiCond348) V0 load(1, XDATA, add(CFA_XSP16, literal(-18)))
          CFI (cfiCond348) V1 load(1, XDATA, add(CFA_XSP16, literal(-17)))
          CFI (cfiCond348) V2 load(1, XDATA, add(CFA_XSP16, literal(-16)))
          CFI (cfiCond348) V3 load(1, XDATA, add(CFA_XSP16, literal(-15)))
          CFI (cfiCond348) V4 load(1, XDATA, add(CFA_XSP16, literal(-14)))
          CFI (cfiCond348) V5 load(1, XDATA, add(CFA_XSP16, literal(-13)))
          CFI (cfiCond348) V6 load(1, XDATA, add(CFA_XSP16, literal(-12)))
          CFI (cfiCond348) V7 load(1, XDATA, add(CFA_XSP16, literal(-11)))
          CFI (cfiCond348) V8 load(1, XDATA, add(CFA_XSP16, literal(-10)))
          CFI (cfiCond348) V9 load(1, XDATA, add(CFA_XSP16, literal(-9)))
          CFI (cfiCond348) V10 load(1, XDATA, add(CFA_XSP16, literal(-8)))
          CFI (cfiCond348) V11 load(1, XDATA, add(CFA_XSP16, literal(-7)))
          CFI (cfiCond348) R7 load(1, XDATA, add(CFA_XSP16, literal(-6)))
          CFI (cfiCond348) ?RET_LOW load(1, XDATA, add(CFA_XSP16, literal(-5)))
          CFI (cfiCond348) ?RET_HIGH load(1, XDATA, add(CFA_XSP16, literal(-4)))
          CFI (cfiCond348) ?BRET_EXT load(1, XDATA, add(CFA_XSP16, literal(-3)))
          CFI (cfiCond348) DPL0 load(1, XDATA, add(CFA_XSP16, literal(-2)))
          CFI (cfiCond348) DPH0 load(1, XDATA, add(CFA_XSP16, literal(-1)))
          CFI (cfiCond348) CFA_SP SP+-2
          CFI (cfiCond348) CFA_XSP16 add(XSP16, 63)
          CFI Block cfiCond349 Using cfiCommon0
          CFI (cfiCond349) Function zha_project_ProcessInReportCmd
          CFI (cfiCond349) Conditional ??CrossCallReturnLabel_139
          CFI (cfiCond349) R6 load(1, XDATA, add(CFA_XSP16, literal(-20)))
          CFI (cfiCond349) VB load(1, XDATA, add(CFA_XSP16, literal(-19)))
          CFI (cfiCond349) V0 load(1, XDATA, add(CFA_XSP16, literal(-18)))
          CFI (cfiCond349) V1 load(1, XDATA, add(CFA_XSP16, literal(-17)))
          CFI (cfiCond349) V2 load(1, XDATA, add(CFA_XSP16, literal(-16)))
          CFI (cfiCond349) V3 load(1, XDATA, add(CFA_XSP16, literal(-15)))
          CFI (cfiCond349) V4 load(1, XDATA, add(CFA_XSP16, literal(-14)))
          CFI (cfiCond349) V5 load(1, XDATA, add(CFA_XSP16, literal(-13)))
          CFI (cfiCond349) V6 load(1, XDATA, add(CFA_XSP16, literal(-12)))
          CFI (cfiCond349) V7 load(1, XDATA, add(CFA_XSP16, literal(-11)))
          CFI (cfiCond349) V8 load(1, XDATA, add(CFA_XSP16, literal(-10)))
          CFI (cfiCond349) V9 load(1, XDATA, add(CFA_XSP16, literal(-9)))
          CFI (cfiCond349) V10 load(1, XDATA, add(CFA_XSP16, literal(-8)))
          CFI (cfiCond349) V11 load(1, XDATA, add(CFA_XSP16, literal(-7)))
          CFI (cfiCond349) R7 load(1, XDATA, add(CFA_XSP16, literal(-6)))
          CFI (cfiCond349) ?RET_LOW load(1, XDATA, add(CFA_XSP16, literal(-5)))
          CFI (cfiCond349) ?RET_HIGH load(1, XDATA, add(CFA_XSP16, literal(-4)))
          CFI (cfiCond349) ?BRET_EXT load(1, XDATA, add(CFA_XSP16, literal(-3)))
          CFI (cfiCond349) DPL0 load(1, XDATA, add(CFA_XSP16, literal(-2)))
          CFI (cfiCond349) DPH0 load(1, XDATA, add(CFA_XSP16, literal(-1)))
          CFI (cfiCond349) CFA_SP SP+-2
          CFI (cfiCond349) CFA_XSP16 add(XSP16, 63)
          CFI Block cfiPicker350 Using cfiCommon1
          CFI (cfiPicker350) NoFunction
          CFI (cfiPicker350) Picker
        MOV     DPL,?V2
        MOV     DPH,?V3
          CFI EndBlock cfiCond344
          CFI EndBlock cfiCond345
          CFI EndBlock cfiCond346
          CFI EndBlock cfiCond347
          CFI EndBlock cfiCond348
          CFI EndBlock cfiCond349
          CFI EndBlock cfiPicker350
        REQUIRE ??Subroutine46_0
        ; // Fall through to label ??Subroutine46_0

        RSEG BANKED_CODE:CODE:NOROOT(0)
??Subroutine46_0:
          CFI Block cfiCond351 Using cfiCommon0
          CFI Function zha_project_event_loop
          CFI Conditional ??CrossCallReturnLabel_130
          CFI R6 load(1, XDATA, add(CFA_XSP16, literal(-12)))
          CFI VB load(1, XDATA, add(CFA_XSP16, literal(-11)))
          CFI V0 load(1, XDATA, add(CFA_XSP16, literal(-10)))
          CFI V1 load(1, XDATA, add(CFA_XSP16, literal(-9)))
          CFI V2 load(1, XDATA, add(CFA_XSP16, literal(-8)))
          CFI V3 load(1, XDATA, add(CFA_XSP16, literal(-7)))
          CFI R7 load(1, XDATA, add(CFA_XSP16, literal(-6)))
          CFI ?RET_LOW load(1, XDATA, add(CFA_XSP16, literal(-5)))
          CFI ?RET_HIGH load(1, XDATA, add(CFA_XSP16, literal(-4)))
          CFI ?BRET_EXT load(1, XDATA, add(CFA_XSP16, literal(-3)))
          CFI DPL0 load(1, XDATA, add(CFA_XSP16, literal(-2)))
          CFI DPH0 load(1, XDATA, add(CFA_XSP16, literal(-1)))
          CFI CFA_SP SP+-2
          CFI CFA_XSP16 add(XSP16, 65)
          CFI Block cfiCond352 Using cfiCommon0
          CFI (cfiCond352) Function zha_project_IdentifyCB
          CFI (cfiCond352) Conditional ??CrossCallReturnLabel_131
          CFI (cfiCond352) DPL0 Frame(CFA_SP, 4)
          CFI (cfiCond352) DPH0 Frame(CFA_SP, 5)
          CFI (cfiCond352) CFA_SP SP+-7
          CFI Block cfiCond353 Using cfiCommon0
          CFI (cfiCond353) Function zha_project_ProcessZDOMsgs
          CFI (cfiCond353) Conditional ??CrossCallReturnLabel_132
          CFI (cfiCond353) R6 load(1, XDATA, add(CFA_XSP16, literal(-14)))
          CFI (cfiCond353) VB load(1, XDATA, add(CFA_XSP16, literal(-13)))
          CFI (cfiCond353) V0 load(1, XDATA, add(CFA_XSP16, literal(-12)))
          CFI (cfiCond353) V1 load(1, XDATA, add(CFA_XSP16, literal(-11)))
          CFI (cfiCond353) V2 load(1, XDATA, add(CFA_XSP16, literal(-10)))
          CFI (cfiCond353) V3 load(1, XDATA, add(CFA_XSP16, literal(-9)))
          CFI (cfiCond353) V4 load(1, XDATA, add(CFA_XSP16, literal(-8)))
          CFI (cfiCond353) V5 load(1, XDATA, add(CFA_XSP16, literal(-7)))
          CFI (cfiCond353) R7 load(1, XDATA, add(CFA_XSP16, literal(-6)))
          CFI (cfiCond353) ?RET_LOW load(1, XDATA, add(CFA_XSP16, literal(-5)))
          CFI (cfiCond353) ?RET_HIGH load(1, XDATA, add(CFA_XSP16, literal(-4)))
          CFI (cfiCond353) ?BRET_EXT load(1, XDATA, add(CFA_XSP16, literal(-3)))
          CFI (cfiCond353) DPL0 load(1, XDATA, add(CFA_XSP16, literal(-2)))
          CFI (cfiCond353) DPH0 load(1, XDATA, add(CFA_XSP16, literal(-1)))
          CFI (cfiCond353) CFA_SP SP+-2
          CFI (cfiCond353) CFA_XSP16 add(XSP16, 25)
          CFI Block cfiCond354 Using cfiCommon0
          CFI (cfiCond354) Function zha_project_ProcessZDOMsgs
          CFI (cfiCond354) Conditional ??CrossCallReturnLabel_133
          CFI (cfiCond354) R6 load(1, XDATA, add(CFA_XSP16, literal(-14)))
          CFI (cfiCond354) VB load(1, XDATA, add(CFA_XSP16, literal(-13)))
          CFI (cfiCond354) V0 load(1, XDATA, add(CFA_XSP16, literal(-12)))
          CFI (cfiCond354) V1 load(1, XDATA, add(CFA_XSP16, literal(-11)))
          CFI (cfiCond354) V2 load(1, XDATA, add(CFA_XSP16, literal(-10)))
          CFI (cfiCond354) V3 load(1, XDATA, add(CFA_XSP16, literal(-9)))
          CFI (cfiCond354) V4 load(1, XDATA, add(CFA_XSP16, literal(-8)))
          CFI (cfiCond354) V5 load(1, XDATA, add(CFA_XSP16, literal(-7)))
          CFI (cfiCond354) R7 load(1, XDATA, add(CFA_XSP16, literal(-6)))
          CFI (cfiCond354) ?RET_LOW load(1, XDATA, add(CFA_XSP16, literal(-5)))
          CFI (cfiCond354) ?RET_HIGH load(1, XDATA, add(CFA_XSP16, literal(-4)))
          CFI (cfiCond354) ?BRET_EXT load(1, XDATA, add(CFA_XSP16, literal(-3)))
          CFI (cfiCond354) DPL0 load(1, XDATA, add(CFA_XSP16, literal(-2)))
          CFI (cfiCond354) DPH0 load(1, XDATA, add(CFA_XSP16, literal(-1)))
          CFI (cfiCond354) CFA_SP SP+-2
          CFI (cfiCond354) CFA_XSP16 add(XSP16, 25)
          CFI Block cfiCond355 Using cfiCommon0
          CFI (cfiCond355) Function zha_project_ProcessInReadRspCmd
          CFI (cfiCond355) Conditional ??CrossCallReturnLabel_134
          CFI (cfiCond355) R6 load(1, XDATA, add(CFA_XSP16, literal(-20)))
          CFI (cfiCond355) VB load(1, XDATA, add(CFA_XSP16, literal(-19)))
          CFI (cfiCond355) V0 load(1, XDATA, add(CFA_XSP16, literal(-18)))
          CFI (cfiCond355) V1 load(1, XDATA, add(CFA_XSP16, literal(-17)))
          CFI (cfiCond355) V2 load(1, XDATA, add(CFA_XSP16, literal(-16)))
          CFI (cfiCond355) V3 load(1, XDATA, add(CFA_XSP16, literal(-15)))
          CFI (cfiCond355) V4 load(1, XDATA, add(CFA_XSP16, literal(-14)))
          CFI (cfiCond355) V5 load(1, XDATA, add(CFA_XSP16, literal(-13)))
          CFI (cfiCond355) V6 load(1, XDATA, add(CFA_XSP16, literal(-12)))
          CFI (cfiCond355) V7 load(1, XDATA, add(CFA_XSP16, literal(-11)))
          CFI (cfiCond355) V8 load(1, XDATA, add(CFA_XSP16, literal(-10)))
          CFI (cfiCond355) V9 load(1, XDATA, add(CFA_XSP16, literal(-9)))
          CFI (cfiCond355) V10 load(1, XDATA, add(CFA_XSP16, literal(-8)))
          CFI (cfiCond355) V11 load(1, XDATA, add(CFA_XSP16, literal(-7)))
          CFI (cfiCond355) R7 load(1, XDATA, add(CFA_XSP16, literal(-6)))
          CFI (cfiCond355) ?RET_LOW load(1, XDATA, add(CFA_XSP16, literal(-5)))
          CFI (cfiCond355) ?RET_HIGH load(1, XDATA, add(CFA_XSP16, literal(-4)))
          CFI (cfiCond355) ?BRET_EXT load(1, XDATA, add(CFA_XSP16, literal(-3)))
          CFI (cfiCond355) DPL0 load(1, XDATA, add(CFA_XSP16, literal(-2)))
          CFI (cfiCond355) DPH0 load(1, XDATA, add(CFA_XSP16, literal(-1)))
          CFI (cfiCond355) CFA_SP SP+-2
          CFI (cfiCond355) CFA_XSP16 add(XSP16, 63)
          CFI Block cfiCond356 Using cfiCommon0
          CFI (cfiCond356) Function zha_project_ProcessInReadRspCmd
          CFI (cfiCond356) Conditional ??CrossCallReturnLabel_135
          CFI (cfiCond356) R6 load(1, XDATA, add(CFA_XSP16, literal(-20)))
          CFI (cfiCond356) VB load(1, XDATA, add(CFA_XSP16, literal(-19)))
          CFI (cfiCond356) V0 load(1, XDATA, add(CFA_XSP16, literal(-18)))
          CFI (cfiCond356) V1 load(1, XDATA, add(CFA_XSP16, literal(-17)))
          CFI (cfiCond356) V2 load(1, XDATA, add(CFA_XSP16, literal(-16)))
          CFI (cfiCond356) V3 load(1, XDATA, add(CFA_XSP16, literal(-15)))
          CFI (cfiCond356) V4 load(1, XDATA, add(CFA_XSP16, literal(-14)))
          CFI (cfiCond356) V5 load(1, XDATA, add(CFA_XSP16, literal(-13)))
          CFI (cfiCond356) V6 load(1, XDATA, add(CFA_XSP16, literal(-12)))
          CFI (cfiCond356) V7 load(1, XDATA, add(CFA_XSP16, literal(-11)))
          CFI (cfiCond356) V8 load(1, XDATA, add(CFA_XSP16, literal(-10)))
          CFI (cfiCond356) V9 load(1, XDATA, add(CFA_XSP16, literal(-9)))
          CFI (cfiCond356) V10 load(1, XDATA, add(CFA_XSP16, literal(-8)))
          CFI (cfiCond356) V11 load(1, XDATA, add(CFA_XSP16, literal(-7)))
          CFI (cfiCond356) R7 load(1, XDATA, add(CFA_XSP16, literal(-6)))
          CFI (cfiCond356) ?RET_LOW load(1, XDATA, add(CFA_XSP16, literal(-5)))
          CFI (cfiCond356) ?RET_HIGH load(1, XDATA, add(CFA_XSP16, literal(-4)))
          CFI (cfiCond356) ?BRET_EXT load(1, XDATA, add(CFA_XSP16, literal(-3)))
          CFI (cfiCond356) DPL0 load(1, XDATA, add(CFA_XSP16, literal(-2)))
          CFI (cfiCond356) DPH0 load(1, XDATA, add(CFA_XSP16, literal(-1)))
          CFI (cfiCond356) CFA_SP SP+-2
          CFI (cfiCond356) CFA_XSP16 add(XSP16, 63)
          CFI Block cfiCond357 Using cfiCommon0
          CFI (cfiCond357) Function zha_project_ProcessInReadRspCmd
          CFI (cfiCond357) Conditional ??CrossCallReturnLabel_136
          CFI (cfiCond357) R6 load(1, XDATA, add(CFA_XSP16, literal(-20)))
          CFI (cfiCond357) VB load(1, XDATA, add(CFA_XSP16, literal(-19)))
          CFI (cfiCond357) V0 load(1, XDATA, add(CFA_XSP16, literal(-18)))
          CFI (cfiCond357) V1 load(1, XDATA, add(CFA_XSP16, literal(-17)))
          CFI (cfiCond357) V2 load(1, XDATA, add(CFA_XSP16, literal(-16)))
          CFI (cfiCond357) V3 load(1, XDATA, add(CFA_XSP16, literal(-15)))
          CFI (cfiCond357) V4 load(1, XDATA, add(CFA_XSP16, literal(-14)))
          CFI (cfiCond357) V5 load(1, XDATA, add(CFA_XSP16, literal(-13)))
          CFI (cfiCond357) V6 load(1, XDATA, add(CFA_XSP16, literal(-12)))
          CFI (cfiCond357) V7 load(1, XDATA, add(CFA_XSP16, literal(-11)))
          CFI (cfiCond357) V8 load(1, XDATA, add(CFA_XSP16, literal(-10)))
          CFI (cfiCond357) V9 load(1, XDATA, add(CFA_XSP16, literal(-9)))
          CFI (cfiCond357) V10 load(1, XDATA, add(CFA_XSP16, literal(-8)))
          CFI (cfiCond357) V11 load(1, XDATA, add(CFA_XSP16, literal(-7)))
          CFI (cfiCond357) R7 load(1, XDATA, add(CFA_XSP16, literal(-6)))
          CFI (cfiCond357) ?RET_LOW load(1, XDATA, add(CFA_XSP16, literal(-5)))
          CFI (cfiCond357) ?RET_HIGH load(1, XDATA, add(CFA_XSP16, literal(-4)))
          CFI (cfiCond357) ?BRET_EXT load(1, XDATA, add(CFA_XSP16, literal(-3)))
          CFI (cfiCond357) DPL0 load(1, XDATA, add(CFA_XSP16, literal(-2)))
          CFI (cfiCond357) DPH0 load(1, XDATA, add(CFA_XSP16, literal(-1)))
          CFI (cfiCond357) CFA_SP SP+-2
          CFI (cfiCond357) CFA_XSP16 add(XSP16, 63)
          CFI Block cfiCond358 Using cfiCommon0
          CFI (cfiCond358) Function zha_project_ProcessInReportCmd
          CFI (cfiCond358) Conditional ??CrossCallReturnLabel_137
          CFI (cfiCond358) R6 load(1, XDATA, add(CFA_XSP16, literal(-20)))
          CFI (cfiCond358) VB load(1, XDATA, add(CFA_XSP16, literal(-19)))
          CFI (cfiCond358) V0 load(1, XDATA, add(CFA_XSP16, literal(-18)))
          CFI (cfiCond358) V1 load(1, XDATA, add(CFA_XSP16, literal(-17)))
          CFI (cfiCond358) V2 load(1, XDATA, add(CFA_XSP16, literal(-16)))
          CFI (cfiCond358) V3 load(1, XDATA, add(CFA_XSP16, literal(-15)))
          CFI (cfiCond358) V4 load(1, XDATA, add(CFA_XSP16, literal(-14)))
          CFI (cfiCond358) V5 load(1, XDATA, add(CFA_XSP16, literal(-13)))
          CFI (cfiCond358) V6 load(1, XDATA, add(CFA_XSP16, literal(-12)))
          CFI (cfiCond358) V7 load(1, XDATA, add(CFA_XSP16, literal(-11)))
          CFI (cfiCond358) V8 load(1, XDATA, add(CFA_XSP16, literal(-10)))
          CFI (cfiCond358) V9 load(1, XDATA, add(CFA_XSP16, literal(-9)))
          CFI (cfiCond358) V10 load(1, XDATA, add(CFA_XSP16, literal(-8)))
          CFI (cfiCond358) V11 load(1, XDATA, add(CFA_XSP16, literal(-7)))
          CFI (cfiCond358) R7 load(1, XDATA, add(CFA_XSP16, literal(-6)))
          CFI (cfiCond358) ?RET_LOW load(1, XDATA, add(CFA_XSP16, literal(-5)))
          CFI (cfiCond358) ?RET_HIGH load(1, XDATA, add(CFA_XSP16, literal(-4)))
          CFI (cfiCond358) ?BRET_EXT load(1, XDATA, add(CFA_XSP16, literal(-3)))
          CFI (cfiCond358) DPL0 load(1, XDATA, add(CFA_XSP16, literal(-2)))
          CFI (cfiCond358) DPH0 load(1, XDATA, add(CFA_XSP16, literal(-1)))
          CFI (cfiCond358) CFA_SP SP+-2
          CFI (cfiCond358) CFA_XSP16 add(XSP16, 63)
          CFI Block cfiCond359 Using cfiCommon0
          CFI (cfiCond359) Function zha_project_ProcessInReportCmd
          CFI (cfiCond359) Conditional ??CrossCallReturnLabel_138
          CFI (cfiCond359) R6 load(1, XDATA, add(CFA_XSP16, literal(-20)))
          CFI (cfiCond359) VB load(1, XDATA, add(CFA_XSP16, literal(-19)))
          CFI (cfiCond359) V0 load(1, XDATA, add(CFA_XSP16, literal(-18)))
          CFI (cfiCond359) V1 load(1, XDATA, add(CFA_XSP16, literal(-17)))
          CFI (cfiCond359) V2 load(1, XDATA, add(CFA_XSP16, literal(-16)))
          CFI (cfiCond359) V3 load(1, XDATA, add(CFA_XSP16, literal(-15)))
          CFI (cfiCond359) V4 load(1, XDATA, add(CFA_XSP16, literal(-14)))
          CFI (cfiCond359) V5 load(1, XDATA, add(CFA_XSP16, literal(-13)))
          CFI (cfiCond359) V6 load(1, XDATA, add(CFA_XSP16, literal(-12)))
          CFI (cfiCond359) V7 load(1, XDATA, add(CFA_XSP16, literal(-11)))
          CFI (cfiCond359) V8 load(1, XDATA, add(CFA_XSP16, literal(-10)))
          CFI (cfiCond359) V9 load(1, XDATA, add(CFA_XSP16, literal(-9)))
          CFI (cfiCond359) V10 load(1, XDATA, add(CFA_XSP16, literal(-8)))
          CFI (cfiCond359) V11 load(1, XDATA, add(CFA_XSP16, literal(-7)))
          CFI (cfiCond359) R7 load(1, XDATA, add(CFA_XSP16, literal(-6)))
          CFI (cfiCond359) ?RET_LOW load(1, XDATA, add(CFA_XSP16, literal(-5)))
          CFI (cfiCond359) ?RET_HIGH load(1, XDATA, add(CFA_XSP16, literal(-4)))
          CFI (cfiCond359) ?BRET_EXT load(1, XDATA, add(CFA_XSP16, literal(-3)))
          CFI (cfiCond359) DPL0 load(1, XDATA, add(CFA_XSP16, literal(-2)))
          CFI (cfiCond359) DPH0 load(1, XDATA, add(CFA_XSP16, literal(-1)))
          CFI (cfiCond359) CFA_SP SP+-2
          CFI (cfiCond359) CFA_XSP16 add(XSP16, 63)
          CFI Block cfiCond360 Using cfiCommon0
          CFI (cfiCond360) Function zha_project_ProcessInReportCmd
          CFI (cfiCond360) Conditional ??CrossCallReturnLabel_139
          CFI (cfiCond360) R6 load(1, XDATA, add(CFA_XSP16, literal(-20)))
          CFI (cfiCond360) VB load(1, XDATA, add(CFA_XSP16, literal(-19)))
          CFI (cfiCond360) V0 load(1, XDATA, add(CFA_XSP16, literal(-18)))
          CFI (cfiCond360) V1 load(1, XDATA, add(CFA_XSP16, literal(-17)))
          CFI (cfiCond360) V2 load(1, XDATA, add(CFA_XSP16, literal(-16)))
          CFI (cfiCond360) V3 load(1, XDATA, add(CFA_XSP16, literal(-15)))
          CFI (cfiCond360) V4 load(1, XDATA, add(CFA_XSP16, literal(-14)))
          CFI (cfiCond360) V5 load(1, XDATA, add(CFA_XSP16, literal(-13)))
          CFI (cfiCond360) V6 load(1, XDATA, add(CFA_XSP16, literal(-12)))
          CFI (cfiCond360) V7 load(1, XDATA, add(CFA_XSP16, literal(-11)))
          CFI (cfiCond360) V8 load(1, XDATA, add(CFA_XSP16, literal(-10)))
          CFI (cfiCond360) V9 load(1, XDATA, add(CFA_XSP16, literal(-9)))
          CFI (cfiCond360) V10 load(1, XDATA, add(CFA_XSP16, literal(-8)))
          CFI (cfiCond360) V11 load(1, XDATA, add(CFA_XSP16, literal(-7)))
          CFI (cfiCond360) R7 load(1, XDATA, add(CFA_XSP16, literal(-6)))
          CFI (cfiCond360) ?RET_LOW load(1, XDATA, add(CFA_XSP16, literal(-5)))
          CFI (cfiCond360) ?RET_HIGH load(1, XDATA, add(CFA_XSP16, literal(-4)))
          CFI (cfiCond360) ?BRET_EXT load(1, XDATA, add(CFA_XSP16, literal(-3)))
          CFI (cfiCond360) DPL0 load(1, XDATA, add(CFA_XSP16, literal(-2)))
          CFI (cfiCond360) DPH0 load(1, XDATA, add(CFA_XSP16, literal(-1)))
          CFI (cfiCond360) CFA_SP SP+-2
          CFI (cfiCond360) CFA_XSP16 add(XSP16, 63)
          CFI Block cfiPicker361 Using cfiCommon1
          CFI (cfiPicker361) NoFunction
          CFI (cfiPicker361) Picker
        MOVX    A,@DPTR
        MOV     R0,A
        INC     DPTR
        MOVX    A,@DPTR
        MOV     R1,A
        RET
          CFI EndBlock cfiCond351
          CFI EndBlock cfiCond352
          CFI EndBlock cfiCond353
          CFI EndBlock cfiCond354
          CFI EndBlock cfiCond355
          CFI EndBlock cfiCond356
          CFI EndBlock cfiCond357
          CFI EndBlock cfiCond358
          CFI EndBlock cfiCond359
          CFI EndBlock cfiCond360
          CFI EndBlock cfiPicker361

        RSEG BANKED_CODE:CODE:NOROOT(0)
?Subroutine16:
          CFI Block cfiCond362 Using cfiCommon0
          CFI Function zha_project_OnOffCB
          CFI Conditional ??CrossCallReturnLabel_39
          CFI R6 load(1, XDATA, add(CFA_XSP16, literal(-10)))
          CFI VB load(1, XDATA, add(CFA_XSP16, literal(-9)))
          CFI V0 load(1, XDATA, add(CFA_XSP16, literal(-8)))
          CFI V1 load(1, XDATA, add(CFA_XSP16, literal(-7)))
          CFI R7 load(1, XDATA, add(CFA_XSP16, literal(-6)))
          CFI ?RET_LOW load(1, XDATA, add(CFA_XSP16, literal(-5)))
          CFI ?RET_HIGH load(1, XDATA, add(CFA_XSP16, literal(-4)))
          CFI ?BRET_EXT load(1, XDATA, add(CFA_XSP16, literal(-3)))
          CFI DPL0 load(1, XDATA, add(CFA_XSP16, literal(-2)))
          CFI DPH0 load(1, XDATA, add(CFA_XSP16, literal(-1)))
          CFI CFA_SP SP+-2
          CFI CFA_XSP16 add(XSP16, 10)
          CFI Block cfiCond363 Using cfiCommon0
          CFI (cfiCond363) Function zha_project_ProcessZDOMsgs
          CFI (cfiCond363) Conditional ??CrossCallReturnLabel_40
          CFI (cfiCond363) R6 load(1, XDATA, add(CFA_XSP16, literal(-14)))
          CFI (cfiCond363) VB load(1, XDATA, add(CFA_XSP16, literal(-13)))
          CFI (cfiCond363) V0 load(1, XDATA, add(CFA_XSP16, literal(-12)))
          CFI (cfiCond363) V1 load(1, XDATA, add(CFA_XSP16, literal(-11)))
          CFI (cfiCond363) V2 load(1, XDATA, add(CFA_XSP16, literal(-10)))
          CFI (cfiCond363) V3 load(1, XDATA, add(CFA_XSP16, literal(-9)))
          CFI (cfiCond363) V4 load(1, XDATA, add(CFA_XSP16, literal(-8)))
          CFI (cfiCond363) V5 load(1, XDATA, add(CFA_XSP16, literal(-7)))
          CFI (cfiCond363) R7 load(1, XDATA, add(CFA_XSP16, literal(-6)))
          CFI (cfiCond363) ?RET_LOW load(1, XDATA, add(CFA_XSP16, literal(-5)))
          CFI (cfiCond363) ?RET_HIGH load(1, XDATA, add(CFA_XSP16, literal(-4)))
          CFI (cfiCond363) ?BRET_EXT load(1, XDATA, add(CFA_XSP16, literal(-3)))
          CFI (cfiCond363) DPL0 load(1, XDATA, add(CFA_XSP16, literal(-2)))
          CFI (cfiCond363) DPH0 load(1, XDATA, add(CFA_XSP16, literal(-1)))
          CFI (cfiCond363) CFA_SP SP+-2
          CFI (cfiCond363) CFA_XSP16 add(XSP16, 25)
          CFI Block cfiPicker364 Using cfiCommon1
          CFI (cfiPicker364) NoFunction
          CFI (cfiPicker364) Picker
        MOVX    A,@DPTR
        MOV     R0,A
        INC     DPTR
        MOVX    A,@DPTR
        MOV     R1,A
        MOV     DPTR,#zha_project_DstAddr
        MOV     A,R0
        MOVX    @DPTR,A
        INC     DPTR
        MOV     A,R1
        RET
          CFI EndBlock cfiCond362
          CFI EndBlock cfiCond363
          CFI EndBlock cfiPicker364

        RSEG BANKED_CODE:CODE:NOROOT(0)
?Subroutine7:
          CFI Block cfiCond365 Using cfiCommon0
          CFI Function zha_project_ProcessZDOMsgs
          CFI Conditional ??CrossCallReturnLabel_140
          CFI R6 load(1, XDATA, add(CFA_XSP16, literal(-14)))
          CFI VB load(1, XDATA, add(CFA_XSP16, literal(-13)))
          CFI V0 load(1, XDATA, add(CFA_XSP16, literal(-12)))
          CFI V1 load(1, XDATA, add(CFA_XSP16, literal(-11)))
          CFI V2 load(1, XDATA, add(CFA_XSP16, literal(-10)))
          CFI V3 load(1, XDATA, add(CFA_XSP16, literal(-9)))
          CFI V4 load(1, XDATA, add(CFA_XSP16, literal(-8)))
          CFI V5 load(1, XDATA, add(CFA_XSP16, literal(-7)))
          CFI R7 load(1, XDATA, add(CFA_XSP16, literal(-6)))
          CFI ?RET_LOW load(1, XDATA, add(CFA_XSP16, literal(-5)))
          CFI ?RET_HIGH load(1, XDATA, add(CFA_XSP16, literal(-4)))
          CFI ?BRET_EXT load(1, XDATA, add(CFA_XSP16, literal(-3)))
          CFI DPL0 load(1, XDATA, add(CFA_XSP16, literal(-2)))
          CFI DPH0 load(1, XDATA, add(CFA_XSP16, literal(-1)))
          CFI CFA_SP SP+-2
          CFI CFA_XSP16 add(XSP16, 25)
          CFI Block cfiCond366 Using cfiCommon0
          CFI (cfiCond366) Function zha_project_ProcessZDOMsgs
          CFI (cfiCond366) Conditional ??CrossCallReturnLabel_141
          CFI (cfiCond366) R6 load(1, XDATA, add(CFA_XSP16, literal(-14)))
          CFI (cfiCond366) VB load(1, XDATA, add(CFA_XSP16, literal(-13)))
          CFI (cfiCond366) V0 load(1, XDATA, add(CFA_XSP16, literal(-12)))
          CFI (cfiCond366) V1 load(1, XDATA, add(CFA_XSP16, literal(-11)))
          CFI (cfiCond366) V2 load(1, XDATA, add(CFA_XSP16, literal(-10)))
          CFI (cfiCond366) V3 load(1, XDATA, add(CFA_XSP16, literal(-9)))
          CFI (cfiCond366) V4 load(1, XDATA, add(CFA_XSP16, literal(-8)))
          CFI (cfiCond366) V5 load(1, XDATA, add(CFA_XSP16, literal(-7)))
          CFI (cfiCond366) R7 load(1, XDATA, add(CFA_XSP16, literal(-6)))
          CFI (cfiCond366) ?RET_LOW load(1, XDATA, add(CFA_XSP16, literal(-5)))
          CFI (cfiCond366) ?RET_HIGH load(1, XDATA, add(CFA_XSP16, literal(-4)))
          CFI (cfiCond366) ?BRET_EXT load(1, XDATA, add(CFA_XSP16, literal(-3)))
          CFI (cfiCond366) DPL0 load(1, XDATA, add(CFA_XSP16, literal(-2)))
          CFI (cfiCond366) DPH0 load(1, XDATA, add(CFA_XSP16, literal(-1)))
          CFI (cfiCond366) CFA_SP SP+-2
          CFI (cfiCond366) CFA_XSP16 add(XSP16, 25)
          CFI Block cfiPicker367 Using cfiCommon1
          CFI (cfiPicker367) NoFunction
          CFI (cfiPicker367) Picker
        MOV     A,#0x2
          CFI EndBlock cfiCond365
          CFI EndBlock cfiCond366
          CFI EndBlock cfiPicker367
        REQUIRE ??Subroutine47_0
        ; // Fall through to label ??Subroutine47_0

        RSEG BANKED_CODE:CODE:NOROOT(0)
??Subroutine47_0:
          CFI Block cfiCond368 Using cfiCommon0
          CFI Function zha_project_ProcessZDOMsgs
          CFI Conditional ??CrossCallReturnLabel_142
          CFI R6 load(1, XDATA, add(CFA_XSP16, literal(-14)))
          CFI VB load(1, XDATA, add(CFA_XSP16, literal(-13)))
          CFI V0 load(1, XDATA, add(CFA_XSP16, literal(-12)))
          CFI V1 load(1, XDATA, add(CFA_XSP16, literal(-11)))
          CFI V2 load(1, XDATA, add(CFA_XSP16, literal(-10)))
          CFI V3 load(1, XDATA, add(CFA_XSP16, literal(-9)))
          CFI V4 load(1, XDATA, add(CFA_XSP16, literal(-8)))
          CFI V5 load(1, XDATA, add(CFA_XSP16, literal(-7)))
          CFI R7 load(1, XDATA, add(CFA_XSP16, literal(-6)))
          CFI ?RET_LOW load(1, XDATA, add(CFA_XSP16, literal(-5)))
          CFI ?RET_HIGH load(1, XDATA, add(CFA_XSP16, literal(-4)))
          CFI ?BRET_EXT load(1, XDATA, add(CFA_XSP16, literal(-3)))
          CFI DPL0 load(1, XDATA, add(CFA_XSP16, literal(-2)))
          CFI DPH0 load(1, XDATA, add(CFA_XSP16, literal(-1)))
          CFI CFA_SP SP+-2
          CFI CFA_XSP16 add(XSP16, 25)
          CFI Block cfiCond369 Using cfiCommon0
          CFI (cfiCond369) Function zha_project_ProcessZDOMsgs
          CFI (cfiCond369) Conditional ??CrossCallReturnLabel_140
          CFI (cfiCond369) R6 load(1, XDATA, add(CFA_XSP16, literal(-14)))
          CFI (cfiCond369) VB load(1, XDATA, add(CFA_XSP16, literal(-13)))
          CFI (cfiCond369) V0 load(1, XDATA, add(CFA_XSP16, literal(-12)))
          CFI (cfiCond369) V1 load(1, XDATA, add(CFA_XSP16, literal(-11)))
          CFI (cfiCond369) V2 load(1, XDATA, add(CFA_XSP16, literal(-10)))
          CFI (cfiCond369) V3 load(1, XDATA, add(CFA_XSP16, literal(-9)))
          CFI (cfiCond369) V4 load(1, XDATA, add(CFA_XSP16, literal(-8)))
          CFI (cfiCond369) V5 load(1, XDATA, add(CFA_XSP16, literal(-7)))
          CFI (cfiCond369) R7 load(1, XDATA, add(CFA_XSP16, literal(-6)))
          CFI (cfiCond369) ?RET_LOW load(1, XDATA, add(CFA_XSP16, literal(-5)))
          CFI (cfiCond369) ?RET_HIGH load(1, XDATA, add(CFA_XSP16, literal(-4)))
          CFI (cfiCond369) ?BRET_EXT load(1, XDATA, add(CFA_XSP16, literal(-3)))
          CFI (cfiCond369) DPL0 load(1, XDATA, add(CFA_XSP16, literal(-2)))
          CFI (cfiCond369) DPH0 load(1, XDATA, add(CFA_XSP16, literal(-1)))
          CFI (cfiCond369) CFA_SP SP+-2
          CFI (cfiCond369) CFA_XSP16 add(XSP16, 25)
          CFI Block cfiCond370 Using cfiCommon0
          CFI (cfiCond370) Function zha_project_ProcessZDOMsgs
          CFI (cfiCond370) Conditional ??CrossCallReturnLabel_141
          CFI (cfiCond370) R6 load(1, XDATA, add(CFA_XSP16, literal(-14)))
          CFI (cfiCond370) VB load(1, XDATA, add(CFA_XSP16, literal(-13)))
          CFI (cfiCond370) V0 load(1, XDATA, add(CFA_XSP16, literal(-12)))
          CFI (cfiCond370) V1 load(1, XDATA, add(CFA_XSP16, literal(-11)))
          CFI (cfiCond370) V2 load(1, XDATA, add(CFA_XSP16, literal(-10)))
          CFI (cfiCond370) V3 load(1, XDATA, add(CFA_XSP16, literal(-9)))
          CFI (cfiCond370) V4 load(1, XDATA, add(CFA_XSP16, literal(-8)))
          CFI (cfiCond370) V5 load(1, XDATA, add(CFA_XSP16, literal(-7)))
          CFI (cfiCond370) R7 load(1, XDATA, add(CFA_XSP16, literal(-6)))
          CFI (cfiCond370) ?RET_LOW load(1, XDATA, add(CFA_XSP16, literal(-5)))
          CFI (cfiCond370) ?RET_HIGH load(1, XDATA, add(CFA_XSP16, literal(-4)))
          CFI (cfiCond370) ?BRET_EXT load(1, XDATA, add(CFA_XSP16, literal(-3)))
          CFI (cfiCond370) DPL0 load(1, XDATA, add(CFA_XSP16, literal(-2)))
          CFI (cfiCond370) DPH0 load(1, XDATA, add(CFA_XSP16, literal(-1)))
          CFI (cfiCond370) CFA_SP SP+-2
          CFI (cfiCond370) CFA_XSP16 add(XSP16, 25)
          CFI Block cfiPicker371 Using cfiCommon1
          CFI (cfiPicker371) NoFunction
          CFI (cfiPicker371) Picker
        MOVX    @DPTR,A
        MOV     DPL,R6
        MOV     DPH,R7
        INC     DPTR
        RET
          CFI EndBlock cfiCond368
          CFI EndBlock cfiCond369
          CFI EndBlock cfiCond370
          CFI EndBlock cfiPicker371
// 2154 
// 2155 /*********************************************************************
// 2156  * @fn      zha_project_EZModeCB
// 2157  *
// 2158  * @brief   The Application is informed of events. This can be used to show on the UI what is
// 2159 *           going on during EZ-Mode steering/finding/binding.
// 2160  *
// 2161  * @param   state - an
// 2162  *
// 2163  * @return  none
// 2164  */
// 2165 static void zha_project_EZModeCB( zlcEZMode_State_t state, zclEZMode_CBData_t *pData )
// 2166 {
// 2167 #ifdef LCD_SUPPORTED
// 2168   char *pStr;
// 2169   uint8 err;
// 2170 #endif
// 2171 
// 2172   // time to go into identify mode
// 2173   if ( state == EZMODE_STATE_IDENTIFYING )
// 2174   {
// 2175 #ifdef LCD_SUPPORTED
// 2176     HalLcdWriteString( "EZMode", HAL_LCD_LINE_2 );
// 2177 #endif
// 2178 
// 2179     zha_project_IdentifyTime = ( EZMODE_TIME / 1000 );  // convert to seconds
// 2180     //zha_project_ProcessIdentifyTimeChange();
// 2181   }
// 2182 
// 2183   // autoclosing, show what happened (success, cancelled, etc...)
// 2184   if( state == EZMODE_STATE_AUTOCLOSE )
// 2185   {
// 2186 #ifdef LCD_SUPPORTED
// 2187     pStr = NULL;
// 2188     err = pData->sAutoClose.err;
// 2189     if ( err == EZMODE_ERR_SUCCESS )
// 2190     {
// 2191       pStr = "EZMode: Success";
// 2192     }
// 2193     else if ( err == EZMODE_ERR_NOMATCH )
// 2194     {
// 2195       pStr = "EZMode: NoMatch"; // not a match made in heaven
// 2196     }
// 2197     if ( pStr )
// 2198     {
// 2199       if ( giLightScreenMode == LIGHT_MAINMODE )
// 2200       {
// 2201         HalLcdWriteString ( pStr, HAL_LCD_LINE_2 );
// 2202       }
// 2203     }
// 2204 #endif
// 2205   }
// 2206 
// 2207   // finished, either show DstAddr/EP, or nothing (depending on success or not)
// 2208   if( state == EZMODE_STATE_FINISH )
// 2209   {
// 2210     // turn off identify mode
// 2211     zha_project_IdentifyTime = 0;
// 2212     //zha_project_ProcessIdentifyTimeChange();
// 2213 
// 2214 #ifdef LCD_SUPPORTED
// 2215     // if successful, inform user which nwkaddr/ep we bound to
// 2216     pStr = NULL;
// 2217     err = pData->sFinish.err;
// 2218     if( err == EZMODE_ERR_SUCCESS )
// 2219     {
// 2220       // already stated on autoclose
// 2221     }
// 2222     else if ( err == EZMODE_ERR_CANCELLED )
// 2223     {
// 2224       pStr = "EZMode: Cancel";
// 2225     }
// 2226     else if ( err == EZMODE_ERR_BAD_PARAMETER )
// 2227     {
// 2228       pStr = "EZMode: BadParm";
// 2229     }
// 2230     else if ( err == EZMODE_ERR_TIMEDOUT )
// 2231     {
// 2232       pStr = "EZMode: TimeOut";
// 2233     }
// 2234     if ( pStr )
// 2235     {
// 2236       if ( giLightScreenMode == LIGHT_MAINMODE )
// 2237       {
// 2238         HalLcdWriteString ( pStr, HAL_LCD_LINE_2 );
// 2239       }
// 2240     }
// 2241 #endif
// 2242     // show main UI screen 3 seconds after binding
// 2243     //osal_start_timerEx( zha_project_TaskID, SAMPLELIGHT_MAIN_SCREEN_EVT, 3000 );
// 2244   }
// 2245 }
// 2246 #endif // ZCL_EZMODE
// 2247 
// 2248 

        RSEG BANKED_CODE:CODE:NOROOT(0)
// 2249 static void zha_project_LevelControlMoveToLevelCB( zclLCMoveToLevel_t *pCmd )
zha_project_LevelControlMoveToLevelCB:
          CFI Block cfiBlock372 Using cfiCommon0
          CFI Function zha_project_LevelControlMoveToLevelCB
        CODE
// 2250 {
        PUSH    DPL
          CFI DPL0 Frame(CFA_SP, 4)
          CFI CFA_SP SP+-4
        PUSH    DPH
          CFI DPH0 Frame(CFA_SP, 5)
          CFI CFA_SP SP+-5
        ; Saved register size: 2
        ; Auto size: 0
// 2251     zha_project_Level_to_Level=pCmd->level;
        MOV     DPL,R2
        MOV     DPH,R3
        MOVX    A,@DPTR
        MOV     DPTR,#zha_project_Level_to_Level
        MOVX    @DPTR,A
// 2252 }
        LJMP    ??Subroutine36_0 & 0xFFFF
          CFI EndBlock cfiBlock372

        RSEG XDATA_ID:CODE:NOROOT(0)
`?<Initializer for sampleLight_TestEp>`:
        DATA8
        DB 1
        DATA16
        DW zha_project_TaskID
        DW 0H
        DATA8
        DB 0

        RSEG XDATA_ID:CODE:NOROOT(0)
`?<Initializer for zha_project_NwkState>`:
        DATA8
        DB 1

        RSEG XDATA_ID:CODE:NOROOT(0)
`?<Initializer for zha_project_CmdCallbacks>`:
        DATA16
        DW `??zha_project_BasicResetCB::?relay`
        DW `??zha_project_IdentifyCB::?relay`
        DW 0H
        DW 0H
        DW 0H
        DW `??zha_project_IdentifyQueryRspCB::?relay`
        DW `??zha_project_OnOffCB::?relay`
        DW 0H
        DW 0H
        DW 0H
        DW `??zha_project_LevelControlMoveToLevelCB::?relay`
        DW 0H
        DW 0H
        DW 0H
        DW 0H
        DW 0H
        DW 0H
        DW 0H
        DW 0H
        DW 0H

        RSEG XDATA_ROM_C:CONST:REORDER:NOROOT(0)
        DATA32
__Constant_c8:
        DD 200

        RSEG BANK_RELAYS:CODE:REORDER:NOROOT(0)
`??zha_project_Init::?relay`:
        CODE
        LCALL   ?BDISPATCH
        DATA24
        DC24    zha_project_Init

        RSEG BANK_RELAYS:CODE:REORDER:NOROOT(0)
`??zha_project_event_loop::?relay`:
        CODE
        LCALL   ?BDISPATCH
        DATA24
        DC24    zha_project_event_loop

        RSEG BANK_RELAYS:CODE:REORDER:NOROOT(0)
`??zha_project_HandleKeys::?relay`:
        CODE
        LCALL   ?BDISPATCH
        DATA24
        DC24    zha_project_HandleKeys

        RSEG BANK_RELAYS:CODE:REORDER:NOROOT(0)
`??zha_project_BasicResetCB::?relay`:
        CODE
        LCALL   ?BDISPATCH
        DATA24
        DC24    zha_project_BasicResetCB

        RSEG BANK_RELAYS:CODE:REORDER:NOROOT(0)
`??zha_project_IdentifyCB::?relay`:
        CODE
        LCALL   ?BDISPATCH
        DATA24
        DC24    zha_project_IdentifyCB

        RSEG BANK_RELAYS:CODE:REORDER:NOROOT(0)
`??zha_project_IdentifyQueryRspCB::?relay`:
        CODE
        LCALL   ?BDISPATCH
        DATA24
        DC24    zha_project_IdentifyQueryRspCB

        RSEG BANK_RELAYS:CODE:REORDER:NOROOT(0)
`??zha_project_OnOffCB::?relay`:
        CODE
        LCALL   ?BDISPATCH
        DATA24
        DC24    zha_project_OnOffCB

        RSEG BANK_RELAYS:CODE:REORDER:NOROOT(0)
`??zha_project_ProcessInReadRspCmd::?relay`:
        CODE
        LCALL   ?BDISPATCH
        DATA24
        DC24    zha_project_ProcessInReadRspCmd

        RSEG BANK_RELAYS:CODE:REORDER:NOROOT(0)
`??zha_project_ProcessInReportCmd::?relay`:
        CODE
        LCALL   ?BDISPATCH
        DATA24
        DC24    zha_project_ProcessInReportCmd

        RSEG BANK_RELAYS:CODE:REORDER:NOROOT(0)
`??zha_project_ProcessZDOMsgs::?relay`:
        CODE
        LCALL   ?BDISPATCH
        DATA24
        DC24    zha_project_ProcessZDOMsgs

        RSEG BANK_RELAYS:CODE:REORDER:NOROOT(0)
`??zha_project_LevelControlMoveToLevelCB::?relay`:
        CODE
        LCALL   ?BDISPATCH
        DATA24
        DC24    zha_project_LevelControlMoveToLevelCB

        END
// 2253 
// 2254 
// 2255 static ZStatus_t zclZLL_ColorControl_MoveToColorTemperature(zclCCMoveToColorTemperature_t *pCmd)
// 2256 {
// 2257         zha_project_Light_Color_Status = pCmd->colorTemperature;
// 2258 }
// 2259 
// 2260 static void zclSS_ChangeNotification(zclZoneChangeNotif_t *pCmd)
// 2261 {
// 2262         zha_project_Alarm_Status=pCmd->zoneStatus;
// 2263 }
// 2264 
// 2265 
// 2266 /****************************************************************************
// 2267 ****************************************************************************/
// 2268 
// 2269 
// 
// 3 821 bytes in segment BANKED_CODE
//    66 bytes in segment BANK_RELAYS
//    47 bytes in segment XDATA_I
//    47 bytes in segment XDATA_ID
//     4 bytes in segment XDATA_ROM_C
//    60 bytes in segment XDATA_Z
// 
// 3 934 bytes of CODE  memory
//     0 bytes of CONST memory (+ 4 bytes shared)
//   107 bytes of XDATA memory
//
//Errors: none
//Warnings: 87
